Archive member included to satisfy reference by file (symbol)

d:/mounriver_studio/toolchain/risc-v embedded gcc12/bin/../lib/gcc/riscv-none-elf/12.2.0/rv32imac_xw/ilp32\libgcc.a(divdf3.o)
                              ./bldc_hardware/pwm_input.o (__divdf3)
d:/mounriver_studio/toolchain/risc-v embedded gcc12/bin/../lib/gcc/riscv-none-elf/12.2.0/rv32imac_xw/ilp32\libgcc.a(muldf3.o)
                              ./bldc_hardware/pwm_input.o (__muldf3)
d:/mounriver_studio/toolchain/risc-v embedded gcc12/bin/../lib/gcc/riscv-none-elf/12.2.0/rv32imac_xw/ilp32\libgcc.a(fixunsdfsi.o)
                              ./addition_hardware/battery.o (__fixunsdfsi)
d:/mounriver_studio/toolchain/risc-v embedded gcc12/bin/../lib/gcc/riscv-none-elf/12.2.0/rv32imac_xw/ilp32\libgcc.a(floatunsidf.o)
                              ./bldc_hardware/pwm_input.o (__floatunsidf)
d:/mounriver_studio/toolchain/risc-v embedded gcc12/bin/../lib/gcc/riscv-none-elf/12.2.0/rv32imac_xw/ilp32\libgcc.a(addsf3.o)
                              ./bldc_software/control.o (__addsf3)
d:/mounriver_studio/toolchain/risc-v embedded gcc12/bin/../lib/gcc/riscv-none-elf/12.2.0/rv32imac_xw/ilp32\libgcc.a(divsf3.o)
                              ./user/ch32v20x_it.o (__divsf3)
d:/mounriver_studio/toolchain/risc-v embedded gcc12/bin/../lib/gcc/riscv-none-elf/12.2.0/rv32imac_xw/ilp32\libgcc.a(gesf2.o)
                              ./user/ch32v20x_it.o (__gesf2)
d:/mounriver_studio/toolchain/risc-v embedded gcc12/bin/../lib/gcc/riscv-none-elf/12.2.0/rv32imac_xw/ilp32\libgcc.a(lesf2.o)
                              ./user/ch32v20x_it.o (__lesf2)
d:/mounriver_studio/toolchain/risc-v embedded gcc12/bin/../lib/gcc/riscv-none-elf/12.2.0/rv32imac_xw/ilp32\libgcc.a(mulsf3.o)
                              ./bldc_software/control.o (__mulsf3)
d:/mounriver_studio/toolchain/risc-v embedded gcc12/bin/../lib/gcc/riscv-none-elf/12.2.0/rv32imac_xw/ilp32\libgcc.a(subsf3.o)
                              ./bldc_software/control.o (__subsf3)
d:/mounriver_studio/toolchain/risc-v embedded gcc12/bin/../lib/gcc/riscv-none-elf/12.2.0/rv32imac_xw/ilp32\libgcc.a(fixsfsi.o)
                              ./user/ch32v20x_it.o (__fixsfsi)
d:/mounriver_studio/toolchain/risc-v embedded gcc12/bin/../lib/gcc/riscv-none-elf/12.2.0/rv32imac_xw/ilp32\libgcc.a(floatsisf.o)
                              ./user/main.o (__floatsisf)
d:/mounriver_studio/toolchain/risc-v embedded gcc12/bin/../lib/gcc/riscv-none-elf/12.2.0/rv32imac_xw/ilp32\libgcc.a(floatunsisf.o)
                              ./user/ch32v20x_it.o (__floatunsisf)
d:/mounriver_studio/toolchain/risc-v embedded gcc12/bin/../lib/gcc/riscv-none-elf/12.2.0/rv32imac_xw/ilp32\libgcc.a(extendsfdf2.o)
                              ./addition_hardware/battery.o (__extendsfdf2)
d:/mounriver_studio/toolchain/risc-v embedded gcc12/bin/../lib/gcc/riscv-none-elf/12.2.0/rv32imac_xw/ilp32\libgcc.a(truncdfsf2.o)
                              ./bldc_software/control.o (__truncdfsf2)
d:/mounriver_studio/toolchain/risc-v embedded gcc12/bin/../lib/gcc/riscv-none-elf/12.2.0/rv32imac_xw/ilp32\libgcc.a(save-restore.o)
                              ./bldc_software/motor.o (__riscv_save_8)
d:/mounriver_studio/toolchain/risc-v embedded gcc12/bin/../lib/gcc/riscv-none-elf/12.2.0/rv32imac_xw/ilp32\libgcc.a(_clzsi2.o)
                              d:/mounriver_studio/toolchain/risc-v embedded gcc12/bin/../lib/gcc/riscv-none-elf/12.2.0/rv32imac_xw/ilp32\libgcc.a(divdf3.o) (__clzsi2)
d:/mounriver_studio/toolchain/risc-v embedded gcc12/bin/../lib/gcc/riscv-none-elf/12.2.0/rv32imac_xw/ilp32\libgcc.a(_clz.o)
                              d:/mounriver_studio/toolchain/risc-v embedded gcc12/bin/../lib/gcc/riscv-none-elf/12.2.0/rv32imac_xw/ilp32\libgcc.a(_clzsi2.o) (__clz_tab)
d:/mounriver_studio/toolchain/risc-v embedded gcc12/bin/../lib/gcc/riscv-none-elf/12.2.0/../../../../riscv-none-elf/lib/rv32imac_xw/ilp32\libg_nano.a(lib_a-memset.o)
                              ./user/main.o (memset)
d:/mounriver_studio/toolchain/risc-v embedded gcc12/bin/../lib/gcc/riscv-none-elf/12.2.0/../../../../riscv-none-elf/lib/rv32imac_xw/ilp32\libg_nano.a(lib_a-printf.o)
                              ./user/ch32v20x_it.o (printf)
d:/mounriver_studio/toolchain/risc-v embedded gcc12/bin/../lib/gcc/riscv-none-elf/12.2.0/../../../../riscv-none-elf/lib/rv32imac_xw/ilp32\libg_nano.a(lib_a-puts.o)
                              ./user/ch32v20x_it.o (puts)
d:/mounriver_studio/toolchain/risc-v embedded gcc12/bin/../lib/gcc/riscv-none-elf/12.2.0/../../../../riscv-none-elf/lib/rv32imac_xw/ilp32\libg_nano.a(lib_a-rand.o)
                              ./bldc_software/control.o (srand)
d:/mounriver_studio/toolchain/risc-v embedded gcc12/bin/../lib/gcc/riscv-none-elf/12.2.0/../../../../riscv-none-elf/lib/rv32imac_xw/ilp32\libg_nano.a(lib_a-wbuf.o)
                              d:/mounriver_studio/toolchain/risc-v embedded gcc12/bin/../lib/gcc/riscv-none-elf/12.2.0/../../../../riscv-none-elf/lib/rv32imac_xw/ilp32\libg_nano.a(lib_a-puts.o) (__swbuf_r)
d:/mounriver_studio/toolchain/risc-v embedded gcc12/bin/../lib/gcc/riscv-none-elf/12.2.0/../../../../riscv-none-elf/lib/rv32imac_xw/ilp32\libg_nano.a(lib_a-wsetup.o)
                              d:/mounriver_studio/toolchain/risc-v embedded gcc12/bin/../lib/gcc/riscv-none-elf/12.2.0/../../../../riscv-none-elf/lib/rv32imac_xw/ilp32\libg_nano.a(lib_a-puts.o) (__swsetup_r)
d:/mounriver_studio/toolchain/risc-v embedded gcc12/bin/../lib/gcc/riscv-none-elf/12.2.0/../../../../riscv-none-elf/lib/rv32imac_xw/ilp32\libg_nano.a(lib_a-assert.o)
                              d:/mounriver_studio/toolchain/risc-v embedded gcc12/bin/../lib/gcc/riscv-none-elf/12.2.0/../../../../riscv-none-elf/lib/rv32imac_xw/ilp32\libg_nano.a(lib_a-rand.o) (__assert_func)
d:/mounriver_studio/toolchain/risc-v embedded gcc12/bin/../lib/gcc/riscv-none-elf/12.2.0/../../../../riscv-none-elf/lib/rv32imac_xw/ilp32\libg_nano.a(lib_a-fflush.o)
                              d:/mounriver_studio/toolchain/risc-v embedded gcc12/bin/../lib/gcc/riscv-none-elf/12.2.0/../../../../riscv-none-elf/lib/rv32imac_xw/ilp32\libg_nano.a(lib_a-wbuf.o) (_fflush_r)
d:/mounriver_studio/toolchain/risc-v embedded gcc12/bin/../lib/gcc/riscv-none-elf/12.2.0/../../../../riscv-none-elf/lib/rv32imac_xw/ilp32\libg_nano.a(lib_a-findfp.o)
                              d:/mounriver_studio/toolchain/risc-v embedded gcc12/bin/../lib/gcc/riscv-none-elf/12.2.0/../../../../riscv-none-elf/lib/rv32imac_xw/ilp32\libg_nano.a(lib_a-printf.o) (__sinit)
d:/mounriver_studio/toolchain/risc-v embedded gcc12/bin/../lib/gcc/riscv-none-elf/12.2.0/../../../../riscv-none-elf/lib/rv32imac_xw/ilp32\libg_nano.a(lib_a-fprintf.o)
                              d:/mounriver_studio/toolchain/risc-v embedded gcc12/bin/../lib/gcc/riscv-none-elf/12.2.0/../../../../riscv-none-elf/lib/rv32imac_xw/ilp32\libg_nano.a(lib_a-assert.o) (fiprintf)
d:/mounriver_studio/toolchain/risc-v embedded gcc12/bin/../lib/gcc/riscv-none-elf/12.2.0/../../../../riscv-none-elf/lib/rv32imac_xw/ilp32\libg_nano.a(lib_a-fwalk.o)
                              d:/mounriver_studio/toolchain/risc-v embedded gcc12/bin/../lib/gcc/riscv-none-elf/12.2.0/../../../../riscv-none-elf/lib/rv32imac_xw/ilp32\libg_nano.a(lib_a-findfp.o) (_fwalk)
d:/mounriver_studio/toolchain/risc-v embedded gcc12/bin/../lib/gcc/riscv-none-elf/12.2.0/../../../../riscv-none-elf/lib/rv32imac_xw/ilp32\libg_nano.a(lib_a-impure.o)
                              d:/mounriver_studio/toolchain/risc-v embedded gcc12/bin/../lib/gcc/riscv-none-elf/12.2.0/../../../../riscv-none-elf/lib/rv32imac_xw/ilp32\libg_nano.a(lib_a-fflush.o) (_global_impure_ptr)
d:/mounriver_studio/toolchain/risc-v embedded gcc12/bin/../lib/gcc/riscv-none-elf/12.2.0/../../../../riscv-none-elf/lib/rv32imac_xw/ilp32\libg_nano.a(lib_a-lock.o)
                              d:/mounriver_studio/toolchain/risc-v embedded gcc12/bin/../lib/gcc/riscv-none-elf/12.2.0/../../../../riscv-none-elf/lib/rv32imac_xw/ilp32\libg_nano.a(lib_a-findfp.o) (__retarget_lock_init_recursive)
d:/mounriver_studio/toolchain/risc-v embedded gcc12/bin/../lib/gcc/riscv-none-elf/12.2.0/../../../../riscv-none-elf/lib/rv32imac_xw/ilp32\libg_nano.a(lib_a-makebuf.o)
                              d:/mounriver_studio/toolchain/risc-v embedded gcc12/bin/../lib/gcc/riscv-none-elf/12.2.0/../../../../riscv-none-elf/lib/rv32imac_xw/ilp32\libg_nano.a(lib_a-wsetup.o) (__smakebuf_r)
d:/mounriver_studio/toolchain/risc-v embedded gcc12/bin/../lib/gcc/riscv-none-elf/12.2.0/../../../../riscv-none-elf/lib/rv32imac_xw/ilp32\libg_nano.a(lib_a-malloc.o)
                              d:/mounriver_studio/toolchain/risc-v embedded gcc12/bin/../lib/gcc/riscv-none-elf/12.2.0/../../../../riscv-none-elf/lib/rv32imac_xw/ilp32\libg_nano.a(lib_a-rand.o) (malloc)
d:/mounriver_studio/toolchain/risc-v embedded gcc12/bin/../lib/gcc/riscv-none-elf/12.2.0/../../../../riscv-none-elf/lib/rv32imac_xw/ilp32\libg_nano.a(lib_a-nano-freer.o)
                              d:/mounriver_studio/toolchain/risc-v embedded gcc12/bin/../lib/gcc/riscv-none-elf/12.2.0/../../../../riscv-none-elf/lib/rv32imac_xw/ilp32\libg_nano.a(lib_a-wsetup.o) (_free_r)
d:/mounriver_studio/toolchain/risc-v embedded gcc12/bin/../lib/gcc/riscv-none-elf/12.2.0/../../../../riscv-none-elf/lib/rv32imac_xw/ilp32\libg_nano.a(lib_a-nano-mallocr.o)
                              d:/mounriver_studio/toolchain/risc-v embedded gcc12/bin/../lib/gcc/riscv-none-elf/12.2.0/../../../../riscv-none-elf/lib/rv32imac_xw/ilp32\libg_nano.a(lib_a-findfp.o) (_malloc_r)
d:/mounriver_studio/toolchain/risc-v embedded gcc12/bin/../lib/gcc/riscv-none-elf/12.2.0/../../../../riscv-none-elf/lib/rv32imac_xw/ilp32\libg_nano.a(lib_a-nano-vfprintf.o)
                              d:/mounriver_studio/toolchain/risc-v embedded gcc12/bin/../lib/gcc/riscv-none-elf/12.2.0/../../../../riscv-none-elf/lib/rv32imac_xw/ilp32\libg_nano.a(lib_a-printf.o) (_vfprintf_r)
d:/mounriver_studio/toolchain/risc-v embedded gcc12/bin/../lib/gcc/riscv-none-elf/12.2.0/../../../../riscv-none-elf/lib/rv32imac_xw/ilp32\libg_nano.a(lib_a-sbrkr.o)
                              d:/mounriver_studio/toolchain/risc-v embedded gcc12/bin/../lib/gcc/riscv-none-elf/12.2.0/../../../../riscv-none-elf/lib/rv32imac_xw/ilp32\libg_nano.a(lib_a-nano-mallocr.o) (_sbrk_r)
d:/mounriver_studio/toolchain/risc-v embedded gcc12/bin/../lib/gcc/riscv-none-elf/12.2.0/../../../../riscv-none-elf/lib/rv32imac_xw/ilp32\libg_nano.a(lib_a-stdio.o)
                              d:/mounriver_studio/toolchain/risc-v embedded gcc12/bin/../lib/gcc/riscv-none-elf/12.2.0/../../../../riscv-none-elf/lib/rv32imac_xw/ilp32\libg_nano.a(lib_a-findfp.o) (__sread)
d:/mounriver_studio/toolchain/risc-v embedded gcc12/bin/../lib/gcc/riscv-none-elf/12.2.0/../../../../riscv-none-elf/lib/rv32imac_xw/ilp32\libg_nano.a(lib_a-writer.o)
                              d:/mounriver_studio/toolchain/risc-v embedded gcc12/bin/../lib/gcc/riscv-none-elf/12.2.0/../../../../riscv-none-elf/lib/rv32imac_xw/ilp32\libg_nano.a(lib_a-stdio.o) (_write_r)
d:/mounriver_studio/toolchain/risc-v embedded gcc12/bin/../lib/gcc/riscv-none-elf/12.2.0/../../../../riscv-none-elf/lib/rv32imac_xw/ilp32\libg_nano.a(lib_a-abort.o)
                              d:/mounriver_studio/toolchain/risc-v embedded gcc12/bin/../lib/gcc/riscv-none-elf/12.2.0/../../../../riscv-none-elf/lib/rv32imac_xw/ilp32\libg_nano.a(lib_a-assert.o) (abort)
d:/mounriver_studio/toolchain/risc-v embedded gcc12/bin/../lib/gcc/riscv-none-elf/12.2.0/../../../../riscv-none-elf/lib/rv32imac_xw/ilp32\libg_nano.a(lib_a-closer.o)
                              d:/mounriver_studio/toolchain/risc-v embedded gcc12/bin/../lib/gcc/riscv-none-elf/12.2.0/../../../../riscv-none-elf/lib/rv32imac_xw/ilp32\libg_nano.a(lib_a-stdio.o) (_close_r)
d:/mounriver_studio/toolchain/risc-v embedded gcc12/bin/../lib/gcc/riscv-none-elf/12.2.0/../../../../riscv-none-elf/lib/rv32imac_xw/ilp32\libg_nano.a(lib_a-fstatr.o)
                              d:/mounriver_studio/toolchain/risc-v embedded gcc12/bin/../lib/gcc/riscv-none-elf/12.2.0/../../../../riscv-none-elf/lib/rv32imac_xw/ilp32\libg_nano.a(lib_a-makebuf.o) (_fstat_r)
d:/mounriver_studio/toolchain/risc-v embedded gcc12/bin/../lib/gcc/riscv-none-elf/12.2.0/../../../../riscv-none-elf/lib/rv32imac_xw/ilp32\libg_nano.a(lib_a-fvwrite.o)
                              d:/mounriver_studio/toolchain/risc-v embedded gcc12/bin/../lib/gcc/riscv-none-elf/12.2.0/../../../../riscv-none-elf/lib/rv32imac_xw/ilp32\libg_nano.a(lib_a-nano-vfprintf.o) (__sfvwrite_r)
d:/mounriver_studio/toolchain/risc-v embedded gcc12/bin/../lib/gcc/riscv-none-elf/12.2.0/../../../../riscv-none-elf/lib/rv32imac_xw/ilp32\libg_nano.a(lib_a-isattyr.o)
                              d:/mounriver_studio/toolchain/risc-v embedded gcc12/bin/../lib/gcc/riscv-none-elf/12.2.0/../../../../riscv-none-elf/lib/rv32imac_xw/ilp32\libg_nano.a(lib_a-makebuf.o) (_isatty_r)
d:/mounriver_studio/toolchain/risc-v embedded gcc12/bin/../lib/gcc/riscv-none-elf/12.2.0/../../../../riscv-none-elf/lib/rv32imac_xw/ilp32\libg_nano.a(lib_a-lseekr.o)
                              d:/mounriver_studio/toolchain/risc-v embedded gcc12/bin/../lib/gcc/riscv-none-elf/12.2.0/../../../../riscv-none-elf/lib/rv32imac_xw/ilp32\libg_nano.a(lib_a-stdio.o) (_lseek_r)
d:/mounriver_studio/toolchain/risc-v embedded gcc12/bin/../lib/gcc/riscv-none-elf/12.2.0/../../../../riscv-none-elf/lib/rv32imac_xw/ilp32\libg_nano.a(lib_a-memchr.o)
                              d:/mounriver_studio/toolchain/risc-v embedded gcc12/bin/../lib/gcc/riscv-none-elf/12.2.0/../../../../riscv-none-elf/lib/rv32imac_xw/ilp32\libg_nano.a(lib_a-nano-vfprintf.o) (memchr)
d:/mounriver_studio/toolchain/risc-v embedded gcc12/bin/../lib/gcc/riscv-none-elf/12.2.0/../../../../riscv-none-elf/lib/rv32imac_xw/ilp32\libg_nano.a(lib_a-memcpy-asm.o)
                              d:/mounriver_studio/toolchain/risc-v embedded gcc12/bin/../lib/gcc/riscv-none-elf/12.2.0/../../../../riscv-none-elf/lib/rv32imac_xw/ilp32\libg_nano.a(lib_a-fvwrite.o) (memcpy)
d:/mounriver_studio/toolchain/risc-v embedded gcc12/bin/../lib/gcc/riscv-none-elf/12.2.0/../../../../riscv-none-elf/lib/rv32imac_xw/ilp32\libg_nano.a(lib_a-memmove.o)
                              d:/mounriver_studio/toolchain/risc-v embedded gcc12/bin/../lib/gcc/riscv-none-elf/12.2.0/../../../../riscv-none-elf/lib/rv32imac_xw/ilp32\libg_nano.a(lib_a-fvwrite.o) (memmove)
d:/mounriver_studio/toolchain/risc-v embedded gcc12/bin/../lib/gcc/riscv-none-elf/12.2.0/../../../../riscv-none-elf/lib/rv32imac_xw/ilp32\libg_nano.a(lib_a-mlock.o)
                              d:/mounriver_studio/toolchain/risc-v embedded gcc12/bin/../lib/gcc/riscv-none-elf/12.2.0/../../../../riscv-none-elf/lib/rv32imac_xw/ilp32\libg_nano.a(lib_a-nano-freer.o) (__malloc_lock)
d:/mounriver_studio/toolchain/risc-v embedded gcc12/bin/../lib/gcc/riscv-none-elf/12.2.0/../../../../riscv-none-elf/lib/rv32imac_xw/ilp32\libg_nano.a(lib_a-nano-reallocr.o)
                              d:/mounriver_studio/toolchain/risc-v embedded gcc12/bin/../lib/gcc/riscv-none-elf/12.2.0/../../../../riscv-none-elf/lib/rv32imac_xw/ilp32\libg_nano.a(lib_a-fvwrite.o) (_realloc_r)
d:/mounriver_studio/toolchain/risc-v embedded gcc12/bin/../lib/gcc/riscv-none-elf/12.2.0/../../../../riscv-none-elf/lib/rv32imac_xw/ilp32\libg_nano.a(lib_a-nano-vfprintf_i.o)
                              d:/mounriver_studio/toolchain/risc-v embedded gcc12/bin/../lib/gcc/riscv-none-elf/12.2.0/../../../../riscv-none-elf/lib/rv32imac_xw/ilp32\libg_nano.a(lib_a-nano-vfprintf.o) (_printf_i)
d:/mounriver_studio/toolchain/risc-v embedded gcc12/bin/../lib/gcc/riscv-none-elf/12.2.0/../../../../riscv-none-elf/lib/rv32imac_xw/ilp32\libg_nano.a(lib_a-readr.o)
                              d:/mounriver_studio/toolchain/risc-v embedded gcc12/bin/../lib/gcc/riscv-none-elf/12.2.0/../../../../riscv-none-elf/lib/rv32imac_xw/ilp32\libg_nano.a(lib_a-stdio.o) (_read_r)
d:/mounriver_studio/toolchain/risc-v embedded gcc12/bin/../lib/gcc/riscv-none-elf/12.2.0/../../../../riscv-none-elf/lib/rv32imac_xw/ilp32\libg_nano.a(lib_a-reent.o)
                              d:/mounriver_studio/toolchain/risc-v embedded gcc12/bin/../lib/gcc/riscv-none-elf/12.2.0/../../../../riscv-none-elf/lib/rv32imac_xw/ilp32\libg_nano.a(lib_a-sbrkr.o) (errno)
d:/mounriver_studio/toolchain/risc-v embedded gcc12/bin/../lib/gcc/riscv-none-elf/12.2.0/../../../../riscv-none-elf/lib/rv32imac_xw/ilp32\libg_nano.a(lib_a-signal.o)
                              d:/mounriver_studio/toolchain/risc-v embedded gcc12/bin/../lib/gcc/riscv-none-elf/12.2.0/../../../../riscv-none-elf/lib/rv32imac_xw/ilp32\libg_nano.a(lib_a-abort.o) (raise)
d:/mounriver_studio/toolchain/risc-v embedded gcc12/bin/../lib/gcc/riscv-none-elf/12.2.0/../../../../riscv-none-elf/lib/rv32imac_xw/ilp32\libg_nano.a(lib_a-signalr.o)
                              d:/mounriver_studio/toolchain/risc-v embedded gcc12/bin/../lib/gcc/riscv-none-elf/12.2.0/../../../../riscv-none-elf/lib/rv32imac_xw/ilp32\libg_nano.a(lib_a-signal.o) (_kill_r)
d:/mounriver_studio/toolchain/risc-v embedded gcc12/bin/../lib/gcc/riscv-none-elf/12.2.0/../../../../riscv-none-elf/lib/rv32imac_xw/ilp32\libg_nano.a(lib_a-nano-msizer.o)
                              d:/mounriver_studio/toolchain/risc-v embedded gcc12/bin/../lib/gcc/riscv-none-elf/12.2.0/../../../../riscv-none-elf/lib/rv32imac_xw/ilp32\libg_nano.a(lib_a-nano-reallocr.o) (_malloc_usable_size_r)
d:/mounriver_studio/toolchain/risc-v embedded gcc12/bin/../lib/gcc/riscv-none-elf/12.2.0/../../../../riscv-none-elf/lib/rv32imac_xw/ilp32\libnosys.a(close.o)
                              d:/mounriver_studio/toolchain/risc-v embedded gcc12/bin/../lib/gcc/riscv-none-elf/12.2.0/../../../../riscv-none-elf/lib/rv32imac_xw/ilp32\libg_nano.a(lib_a-closer.o) (_close)
d:/mounriver_studio/toolchain/risc-v embedded gcc12/bin/../lib/gcc/riscv-none-elf/12.2.0/../../../../riscv-none-elf/lib/rv32imac_xw/ilp32\libnosys.a(fstat.o)
                              d:/mounriver_studio/toolchain/risc-v embedded gcc12/bin/../lib/gcc/riscv-none-elf/12.2.0/../../../../riscv-none-elf/lib/rv32imac_xw/ilp32\libg_nano.a(lib_a-fstatr.o) (_fstat)
d:/mounriver_studio/toolchain/risc-v embedded gcc12/bin/../lib/gcc/riscv-none-elf/12.2.0/../../../../riscv-none-elf/lib/rv32imac_xw/ilp32\libnosys.a(getpid.o)
                              d:/mounriver_studio/toolchain/risc-v embedded gcc12/bin/../lib/gcc/riscv-none-elf/12.2.0/../../../../riscv-none-elf/lib/rv32imac_xw/ilp32\libg_nano.a(lib_a-signalr.o) (_getpid)
d:/mounriver_studio/toolchain/risc-v embedded gcc12/bin/../lib/gcc/riscv-none-elf/12.2.0/../../../../riscv-none-elf/lib/rv32imac_xw/ilp32\libnosys.a(isatty.o)
                              d:/mounriver_studio/toolchain/risc-v embedded gcc12/bin/../lib/gcc/riscv-none-elf/12.2.0/../../../../riscv-none-elf/lib/rv32imac_xw/ilp32\libg_nano.a(lib_a-isattyr.o) (_isatty)
d:/mounriver_studio/toolchain/risc-v embedded gcc12/bin/../lib/gcc/riscv-none-elf/12.2.0/../../../../riscv-none-elf/lib/rv32imac_xw/ilp32\libnosys.a(kill.o)
                              d:/mounriver_studio/toolchain/risc-v embedded gcc12/bin/../lib/gcc/riscv-none-elf/12.2.0/../../../../riscv-none-elf/lib/rv32imac_xw/ilp32\libg_nano.a(lib_a-signalr.o) (_kill)
d:/mounriver_studio/toolchain/risc-v embedded gcc12/bin/../lib/gcc/riscv-none-elf/12.2.0/../../../../riscv-none-elf/lib/rv32imac_xw/ilp32\libnosys.a(lseek.o)
                              d:/mounriver_studio/toolchain/risc-v embedded gcc12/bin/../lib/gcc/riscv-none-elf/12.2.0/../../../../riscv-none-elf/lib/rv32imac_xw/ilp32\libg_nano.a(lib_a-lseekr.o) (_lseek)
d:/mounriver_studio/toolchain/risc-v embedded gcc12/bin/../lib/gcc/riscv-none-elf/12.2.0/../../../../riscv-none-elf/lib/rv32imac_xw/ilp32\libnosys.a(read.o)
                              d:/mounriver_studio/toolchain/risc-v embedded gcc12/bin/../lib/gcc/riscv-none-elf/12.2.0/../../../../riscv-none-elf/lib/rv32imac_xw/ilp32\libg_nano.a(lib_a-readr.o) (_read)
d:/mounriver_studio/toolchain/risc-v embedded gcc12/bin/../lib/gcc/riscv-none-elf/12.2.0/../../../../riscv-none-elf/lib/rv32imac_xw/ilp32\libnosys.a(_exit.o)
                              d:/mounriver_studio/toolchain/risc-v embedded gcc12/bin/../lib/gcc/riscv-none-elf/12.2.0/../../../../riscv-none-elf/lib/rv32imac_xw/ilp32\libg_nano.a(lib_a-abort.o) (_exit)

Discarded input sections

 .text          0x0000000000000000        0x0 ./wch_sdk/Startup/startup_ch32v20x_D6.o
 .data          0x0000000000000000        0x0 ./wch_sdk/Startup/startup_ch32v20x_D6.o
 .bss           0x0000000000000000        0x0 ./wch_sdk/Startup/startup_ch32v20x_D6.o
 .text          0x0000000000000000        0x0 ./wch_sdk/Peripheral/src/ch32v20x_adc.o
 .data          0x0000000000000000        0x0 ./wch_sdk/Peripheral/src/ch32v20x_adc.o
 .bss           0x0000000000000000        0x0 ./wch_sdk/Peripheral/src/ch32v20x_adc.o
 .text.ADC_StructInit
                0x0000000000000000       0x1a ./wch_sdk/Peripheral/src/ch32v20x_adc.o
 .text.ADC_ITConfig
                0x0000000000000000       0x18 ./wch_sdk/Peripheral/src/ch32v20x_adc.o
 .text.ADC_GetSoftwareStartConvStatus
                0x0000000000000000        0x8 ./wch_sdk/Peripheral/src/ch32v20x_adc.o
 .text.ADC_DiscModeChannelCountConfig
                0x0000000000000000       0x12 ./wch_sdk/Peripheral/src/ch32v20x_adc.o
 .text.ADC_DiscModeCmd
                0x0000000000000000       0x1a ./wch_sdk/Peripheral/src/ch32v20x_adc.o
 .text.ADC_ExternalTrigConvCmd
                0x0000000000000000       0x18 ./wch_sdk/Peripheral/src/ch32v20x_adc.o
 .text.ADC_GetConversionValue
                0x0000000000000000        0x8 ./wch_sdk/Peripheral/src/ch32v20x_adc.o
 .text.ADC_GetDualModeConversionValue
                0x0000000000000000        0xa ./wch_sdk/Peripheral/src/ch32v20x_adc.o
 .text.ADC_AutoInjectedConvCmd
                0x0000000000000000       0x12 ./wch_sdk/Peripheral/src/ch32v20x_adc.o
 .text.ADC_InjectedDiscModeCmd
                0x0000000000000000       0x14 ./wch_sdk/Peripheral/src/ch32v20x_adc.o
 .text.ADC_ExternalTrigInjectedConvConfig
                0x0000000000000000        0xe ./wch_sdk/Peripheral/src/ch32v20x_adc.o
 .text.ADC_ExternalTrigInjectedConvCmd
                0x0000000000000000       0x14 ./wch_sdk/Peripheral/src/ch32v20x_adc.o
 .text.ADC_SoftwareStartInjectedConvCmd
                0x0000000000000000       0x18 ./wch_sdk/Peripheral/src/ch32v20x_adc.o
 .text.ADC_GetSoftwareStartInjectedConvCmdStatus
                0x0000000000000000        0x8 ./wch_sdk/Peripheral/src/ch32v20x_adc.o
 .text.ADC_InjectedChannelConfig
                0x0000000000000000       0x7a ./wch_sdk/Peripheral/src/ch32v20x_adc.o
 .text.ADC_InjectedSequencerLengthConfig
                0x0000000000000000       0x14 ./wch_sdk/Peripheral/src/ch32v20x_adc.o
 .text.ADC_SetInjectedOffset
                0x0000000000000000       0x14 ./wch_sdk/Peripheral/src/ch32v20x_adc.o
 .text.ADC_GetInjectedConversionValue
                0x0000000000000000       0x1c ./wch_sdk/Peripheral/src/ch32v20x_adc.o
 .text.ADC_AnalogWatchdogCmd
                0x0000000000000000       0x12 ./wch_sdk/Peripheral/src/ch32v20x_adc.o
 .text.ADC_AnalogWatchdogThresholdsConfig
                0x0000000000000000        0x6 ./wch_sdk/Peripheral/src/ch32v20x_adc.o
 .text.ADC_AnalogWatchdogSingleChannelConfig
                0x0000000000000000        0xa ./wch_sdk/Peripheral/src/ch32v20x_adc.o
 .text.ADC_TempSensorVrefintCmd
                0x0000000000000000       0x20 ./wch_sdk/Peripheral/src/ch32v20x_adc.o
 .text.ADC_GetFlagStatus
                0x0000000000000000        0xc ./wch_sdk/Peripheral/src/ch32v20x_adc.o
 .text.ADC_ClearFlag
                0x0000000000000000        0x8 ./wch_sdk/Peripheral/src/ch32v20x_adc.o
 .text.ADC_GetITStatus
                0x0000000000000000       0x18 ./wch_sdk/Peripheral/src/ch32v20x_adc.o
 .text.ADC_ClearITPendingBit
                0x0000000000000000        0xa ./wch_sdk/Peripheral/src/ch32v20x_adc.o
 .text.TempSensor_Volt_To_Temper
                0x0000000000000000       0x28 ./wch_sdk/Peripheral/src/ch32v20x_adc.o
 .text.ADC_BufferCmd
                0x0000000000000000       0x18 ./wch_sdk/Peripheral/src/ch32v20x_adc.o
 .text.Get_CalibrationValue
                0x0000000000000000      0x220 ./wch_sdk/Peripheral/src/ch32v20x_adc.o
 .text          0x0000000000000000        0x0 ./wch_sdk/Peripheral/src/ch32v20x_bkp.o
 .data          0x0000000000000000        0x0 ./wch_sdk/Peripheral/src/ch32v20x_bkp.o
 .bss           0x0000000000000000        0x0 ./wch_sdk/Peripheral/src/ch32v20x_bkp.o
 .text.BKP_DeInit
                0x0000000000000000       0x24 ./wch_sdk/Peripheral/src/ch32v20x_bkp.o
 .text.BKP_TamperPinLevelConfig
                0x0000000000000000       0x22 ./wch_sdk/Peripheral/src/ch32v20x_bkp.o
 .text.BKP_TamperPinCmd
                0x0000000000000000       0x22 ./wch_sdk/Peripheral/src/ch32v20x_bkp.o
 .text.BKP_ITConfig
                0x0000000000000000       0x22 ./wch_sdk/Peripheral/src/ch32v20x_bkp.o
 .text.BKP_RTCOutputConfig
                0x0000000000000000       0x18 ./wch_sdk/Peripheral/src/ch32v20x_bkp.o
 .text.BKP_SetRTCCalibrationValue
                0x0000000000000000       0x18 ./wch_sdk/Peripheral/src/ch32v20x_bkp.o
 .text.BKP_WriteBackupRegister
                0x0000000000000000       0x1c ./wch_sdk/Peripheral/src/ch32v20x_bkp.o
 .text.BKP_ReadBackupRegister
                0x0000000000000000       0x1c ./wch_sdk/Peripheral/src/ch32v20x_bkp.o
 .text.BKP_GetFlagStatus
                0x0000000000000000        0xe ./wch_sdk/Peripheral/src/ch32v20x_bkp.o
 .text.BKP_ClearFlag
                0x0000000000000000       0x12 ./wch_sdk/Peripheral/src/ch32v20x_bkp.o
 .text.BKP_GetITStatus
                0x0000000000000000        0xe ./wch_sdk/Peripheral/src/ch32v20x_bkp.o
 .text.BKP_ClearITPendingBit
                0x0000000000000000       0x12 ./wch_sdk/Peripheral/src/ch32v20x_bkp.o
 .debug_info    0x0000000000000000      0x6f5 ./wch_sdk/Peripheral/src/ch32v20x_bkp.o
 .debug_abbrev  0x0000000000000000      0x1cd ./wch_sdk/Peripheral/src/ch32v20x_bkp.o
 .debug_loclists
                0x0000000000000000       0x95 ./wch_sdk/Peripheral/src/ch32v20x_bkp.o
 .debug_aranges
                0x0000000000000000       0x78 ./wch_sdk/Peripheral/src/ch32v20x_bkp.o
 .debug_rnglists
                0x0000000000000000       0x79 ./wch_sdk/Peripheral/src/ch32v20x_bkp.o
 .debug_line    0x0000000000000000      0x456 ./wch_sdk/Peripheral/src/ch32v20x_bkp.o
 .debug_str     0x0000000000000000      0x654 ./wch_sdk/Peripheral/src/ch32v20x_bkp.o
 .debug_line_str
                0x0000000000000000      0x2a0 ./wch_sdk/Peripheral/src/ch32v20x_bkp.o
 .comment       0x0000000000000000       0x32 ./wch_sdk/Peripheral/src/ch32v20x_bkp.o
 .debug_frame   0x0000000000000000       0xec ./wch_sdk/Peripheral/src/ch32v20x_bkp.o
 .riscv.attributes
                0x0000000000000000       0x31 ./wch_sdk/Peripheral/src/ch32v20x_bkp.o
 .text          0x0000000000000000        0x0 ./wch_sdk/Peripheral/src/ch32v20x_can.o
 .data          0x0000000000000000        0x0 ./wch_sdk/Peripheral/src/ch32v20x_can.o
 .bss           0x0000000000000000        0x0 ./wch_sdk/Peripheral/src/ch32v20x_can.o
 .text.CAN_DeInit
                0x0000000000000000       0x4c ./wch_sdk/Peripheral/src/ch32v20x_can.o
 .text.CAN_Init
                0x0000000000000000       0xe8 ./wch_sdk/Peripheral/src/ch32v20x_can.o
 .text.CAN_FilterInit
                0x0000000000000000      0x11a ./wch_sdk/Peripheral/src/ch32v20x_can.o
 .text.CAN_StructInit
                0x0000000000000000       0x24 ./wch_sdk/Peripheral/src/ch32v20x_can.o
 .text.CAN_SlaveStartBank
                0x0000000000000000       0x2c ./wch_sdk/Peripheral/src/ch32v20x_can.o
 .text.CAN_DBGFreeze
                0x0000000000000000       0x14 ./wch_sdk/Peripheral/src/ch32v20x_can.o
 .text.CAN_TTComModeCmd
                0x0000000000000000       0x4a ./wch_sdk/Peripheral/src/ch32v20x_can.o
 .text.CAN_Transmit
                0x0000000000000000       0xb0 ./wch_sdk/Peripheral/src/ch32v20x_can.o
 .text.CAN_TransmitStatus
                0x0000000000000000       0x62 ./wch_sdk/Peripheral/src/ch32v20x_can.o
 .text.CAN_CancelTransmit
                0x0000000000000000       0x28 ./wch_sdk/Peripheral/src/ch32v20x_can.o
 .text.CAN_Receive
                0x0000000000000000       0x7a ./wch_sdk/Peripheral/src/ch32v20x_can.o
 .text.CAN_FIFORelease
                0x0000000000000000       0x16 ./wch_sdk/Peripheral/src/ch32v20x_can.o
 .text.CAN_MessagePending
                0x0000000000000000       0x16 ./wch_sdk/Peripheral/src/ch32v20x_can.o
 .text.CAN_OperatingModeRequest
                0x0000000000000000       0x72 ./wch_sdk/Peripheral/src/ch32v20x_can.o
 .text.CAN_Sleep
                0x0000000000000000       0x16 ./wch_sdk/Peripheral/src/ch32v20x_can.o
 .text.CAN_WakeUp
                0x0000000000000000       0x1e ./wch_sdk/Peripheral/src/ch32v20x_can.o
 .text.CAN_GetLastErrorCode
                0x0000000000000000        0x8 ./wch_sdk/Peripheral/src/ch32v20x_can.o
 .text.CAN_GetReceiveErrorCounter
                0x0000000000000000        0x6 ./wch_sdk/Peripheral/src/ch32v20x_can.o
 .text.CAN_GetLSBTransmitErrorCounter
                0x0000000000000000        0xa ./wch_sdk/Peripheral/src/ch32v20x_can.o
 .text.CAN_ITConfig
                0x0000000000000000       0x14 ./wch_sdk/Peripheral/src/ch32v20x_can.o
 .text.CAN_GetFlagStatus
                0x0000000000000000       0x46 ./wch_sdk/Peripheral/src/ch32v20x_can.o
 .text.CAN_ClearFlag
                0x0000000000000000       0x40 ./wch_sdk/Peripheral/src/ch32v20x_can.o
 .text.CAN_GetITStatus
                0x0000000000000000       0xce ./wch_sdk/Peripheral/src/ch32v20x_can.o
 .text.CAN_ClearITPendingBit
                0x0000000000000000       0x98 ./wch_sdk/Peripheral/src/ch32v20x_can.o
 .debug_info    0x0000000000000000      0xe0b ./wch_sdk/Peripheral/src/ch32v20x_can.o
 .debug_abbrev  0x0000000000000000      0x2e8 ./wch_sdk/Peripheral/src/ch32v20x_can.o
 .debug_loclists
                0x0000000000000000      0x7de ./wch_sdk/Peripheral/src/ch32v20x_can.o
 .debug_aranges
                0x0000000000000000       0xd8 ./wch_sdk/Peripheral/src/ch32v20x_can.o
 .debug_rnglists
                0x0000000000000000      0x11e ./wch_sdk/Peripheral/src/ch32v20x_can.o
 .debug_line    0x0000000000000000     0x1aa2 ./wch_sdk/Peripheral/src/ch32v20x_can.o
 .debug_str     0x0000000000000000      0x76a ./wch_sdk/Peripheral/src/ch32v20x_can.o
 .debug_line_str
                0x0000000000000000      0x2a0 ./wch_sdk/Peripheral/src/ch32v20x_can.o
 .comment       0x0000000000000000       0x32 ./wch_sdk/Peripheral/src/ch32v20x_can.o
 .debug_frame   0x0000000000000000      0x19c ./wch_sdk/Peripheral/src/ch32v20x_can.o
 .riscv.attributes
                0x0000000000000000       0x31 ./wch_sdk/Peripheral/src/ch32v20x_can.o
 .text          0x0000000000000000        0x0 ./wch_sdk/Peripheral/src/ch32v20x_crc.o
 .data          0x0000000000000000        0x0 ./wch_sdk/Peripheral/src/ch32v20x_crc.o
 .bss           0x0000000000000000        0x0 ./wch_sdk/Peripheral/src/ch32v20x_crc.o
 .text.CRC_ResetDR
                0x0000000000000000        0xa ./wch_sdk/Peripheral/src/ch32v20x_crc.o
 .text.CRC_CalcCRC
                0x0000000000000000        0xa ./wch_sdk/Peripheral/src/ch32v20x_crc.o
 .text.CRC_CalcBlockCRC
                0x0000000000000000       0x20 ./wch_sdk/Peripheral/src/ch32v20x_crc.o
 .text.CRC_GetCRC
                0x0000000000000000        0x8 ./wch_sdk/Peripheral/src/ch32v20x_crc.o
 .text.CRC_SetIDRegister
                0x0000000000000000        0x8 ./wch_sdk/Peripheral/src/ch32v20x_crc.o
 .text.CRC_GetIDRegister
                0x0000000000000000        0x8 ./wch_sdk/Peripheral/src/ch32v20x_crc.o
 .debug_info    0x0000000000000000      0x1e4 ./wch_sdk/Peripheral/src/ch32v20x_crc.o
 .debug_abbrev  0x0000000000000000      0x11f ./wch_sdk/Peripheral/src/ch32v20x_crc.o
 .debug_loclists
                0x0000000000000000       0x84 ./wch_sdk/Peripheral/src/ch32v20x_crc.o
 .debug_aranges
                0x0000000000000000       0x48 ./wch_sdk/Peripheral/src/ch32v20x_crc.o
 .debug_rnglists
                0x0000000000000000       0x43 ./wch_sdk/Peripheral/src/ch32v20x_crc.o
 .debug_line    0x0000000000000000      0x1dc ./wch_sdk/Peripheral/src/ch32v20x_crc.o
 .debug_str     0x0000000000000000      0x22a ./wch_sdk/Peripheral/src/ch32v20x_crc.o
 .debug_line_str
                0x0000000000000000      0x24a ./wch_sdk/Peripheral/src/ch32v20x_crc.o
 .comment       0x0000000000000000       0x32 ./wch_sdk/Peripheral/src/ch32v20x_crc.o
 .debug_frame   0x0000000000000000       0x70 ./wch_sdk/Peripheral/src/ch32v20x_crc.o
 .riscv.attributes
                0x0000000000000000       0x31 ./wch_sdk/Peripheral/src/ch32v20x_crc.o
 .text          0x0000000000000000        0x0 ./wch_sdk/Peripheral/src/ch32v20x_dbgmcu.o
 .data          0x0000000000000000        0x0 ./wch_sdk/Peripheral/src/ch32v20x_dbgmcu.o
 .bss           0x0000000000000000        0x0 ./wch_sdk/Peripheral/src/ch32v20x_dbgmcu.o
 .text.DBGMCU_GetREVID
                0x0000000000000000        0xa ./wch_sdk/Peripheral/src/ch32v20x_dbgmcu.o
 .text.DBGMCU_GetDEVID
                0x0000000000000000        0xa ./wch_sdk/Peripheral/src/ch32v20x_dbgmcu.o
 .text.__get_DEBUG_CR
                0x0000000000000000        0x6 ./wch_sdk/Peripheral/src/ch32v20x_dbgmcu.o
 .text.__set_DEBUG_CR
                0x0000000000000000        0x6 ./wch_sdk/Peripheral/src/ch32v20x_dbgmcu.o
 .text.DBGMCU_Config
                0x0000000000000000       0x14 ./wch_sdk/Peripheral/src/ch32v20x_dbgmcu.o
 .text.DBGMCU_GetCHIPID
                0x0000000000000000        0xa ./wch_sdk/Peripheral/src/ch32v20x_dbgmcu.o
 .debug_info    0x0000000000000000      0x1cb ./wch_sdk/Peripheral/src/ch32v20x_dbgmcu.o
 .debug_abbrev  0x0000000000000000      0x170 ./wch_sdk/Peripheral/src/ch32v20x_dbgmcu.o
 .debug_loclists
                0x0000000000000000       0x6c ./wch_sdk/Peripheral/src/ch32v20x_dbgmcu.o
 .debug_aranges
                0x0000000000000000       0x48 ./wch_sdk/Peripheral/src/ch32v20x_dbgmcu.o
 .debug_rnglists
                0x0000000000000000       0x56 ./wch_sdk/Peripheral/src/ch32v20x_dbgmcu.o
 .debug_line    0x0000000000000000      0x199 ./wch_sdk/Peripheral/src/ch32v20x_dbgmcu.o
 .debug_str     0x0000000000000000      0x1f2 ./wch_sdk/Peripheral/src/ch32v20x_dbgmcu.o
 .debug_line_str
                0x0000000000000000      0x292 ./wch_sdk/Peripheral/src/ch32v20x_dbgmcu.o
 .comment       0x0000000000000000       0x32 ./wch_sdk/Peripheral/src/ch32v20x_dbgmcu.o
 .debug_frame   0x0000000000000000       0x70 ./wch_sdk/Peripheral/src/ch32v20x_dbgmcu.o
 .riscv.attributes
                0x0000000000000000       0x35 ./wch_sdk/Peripheral/src/ch32v20x_dbgmcu.o
 .text          0x0000000000000000        0x0 ./wch_sdk/Peripheral/src/ch32v20x_dma.o
 .data          0x0000000000000000        0x0 ./wch_sdk/Peripheral/src/ch32v20x_dma.o
 .bss           0x0000000000000000        0x0 ./wch_sdk/Peripheral/src/ch32v20x_dma.o
 .text.DMA_StructInit
                0x0000000000000000       0x2e ./wch_sdk/Peripheral/src/ch32v20x_dma.o
 .text.DMA_ITConfig
                0x0000000000000000       0x14 ./wch_sdk/Peripheral/src/ch32v20x_dma.o
 .text.DMA_SetCurrDataCounter
                0x0000000000000000        0x4 ./wch_sdk/Peripheral/src/ch32v20x_dma.o
 .text.DMA_GetCurrDataCounter
                0x0000000000000000        0x8 ./wch_sdk/Peripheral/src/ch32v20x_dma.o
 .text.DMA_GetFlagStatus
                0x0000000000000000        0xe ./wch_sdk/Peripheral/src/ch32v20x_dma.o
 .text.DMA_ClearFlag
                0x0000000000000000        0x8 ./wch_sdk/Peripheral/src/ch32v20x_dma.o
 .text.DMA_GetITStatus
                0x0000000000000000        0x8 ./wch_sdk/Peripheral/src/ch32v20x_dma.o
 .text.DMA_ClearITPendingBit
                0x0000000000000000        0x8 ./wch_sdk/Peripheral/src/ch32v20x_dma.o
 .text          0x0000000000000000        0x0 ./wch_sdk/Peripheral/src/ch32v20x_exti.o
 .data          0x0000000000000000        0x0 ./wch_sdk/Peripheral/src/ch32v20x_exti.o
 .bss           0x0000000000000000        0x0 ./wch_sdk/Peripheral/src/ch32v20x_exti.o
 .text.EXTI_DeInit
                0x0000000000000000       0x22 ./wch_sdk/Peripheral/src/ch32v20x_exti.o
 .text.EXTI_StructInit
                0x0000000000000000       0x12 ./wch_sdk/Peripheral/src/ch32v20x_exti.o
 .text.EXTI_GenerateSWInterrupt
                0x0000000000000000       0x10 ./wch_sdk/Peripheral/src/ch32v20x_exti.o
 .text.EXTI_GetFlagStatus
                0x0000000000000000       0x12 ./wch_sdk/Peripheral/src/ch32v20x_exti.o
 .text.EXTI_ClearFlag
                0x0000000000000000        0xc ./wch_sdk/Peripheral/src/ch32v20x_exti.o
 .text.EXTI_GetITStatus
                0x0000000000000000       0x1a ./wch_sdk/Peripheral/src/ch32v20x_exti.o
 .text          0x0000000000000000        0x0 ./wch_sdk/Peripheral/src/ch32v20x_flash.o
 .data          0x0000000000000000        0x0 ./wch_sdk/Peripheral/src/ch32v20x_flash.o
 .bss           0x0000000000000000        0x0 ./wch_sdk/Peripheral/src/ch32v20x_flash.o
 .text.FLASH_Unlock
                0x0000000000000000       0x1a ./wch_sdk/Peripheral/src/ch32v20x_flash.o
 .text.FLASH_UnlockBank1
                0x0000000000000000        0x8 ./wch_sdk/Peripheral/src/ch32v20x_flash.o
 .text.FLASH_Lock
                0x0000000000000000        0xe ./wch_sdk/Peripheral/src/ch32v20x_flash.o
 .text.FLASH_LockBank1
                0x0000000000000000        0x8 ./wch_sdk/Peripheral/src/ch32v20x_flash.o
 .text.FLASH_GetUserOptionByte
                0x0000000000000000        0xa ./wch_sdk/Peripheral/src/ch32v20x_flash.o
 .text.FLASH_GetWriteProtectionOptionByte
                0x0000000000000000        0x8 ./wch_sdk/Peripheral/src/ch32v20x_flash.o
 .text.FLASH_GetReadOutProtectionStatus
                0x0000000000000000        0xc ./wch_sdk/Peripheral/src/ch32v20x_flash.o
 .text.FLASH_ITConfig
                0x0000000000000000       0x1e ./wch_sdk/Peripheral/src/ch32v20x_flash.o
 .text.FLASH_GetFlagStatus
                0x0000000000000000       0x1e ./wch_sdk/Peripheral/src/ch32v20x_flash.o
 .text.FLASH_ClearFlag
                0x0000000000000000        0x8 ./wch_sdk/Peripheral/src/ch32v20x_flash.o
 .text.FLASH_GetStatus
                0x0000000000000000       0x16 ./wch_sdk/Peripheral/src/ch32v20x_flash.o
 .text.FLASH_GetBank1Status
                0x0000000000000000       0x16 ./wch_sdk/Peripheral/src/ch32v20x_flash.o
 .text.FLASH_WaitForLastOperation
                0x0000000000000000       0x34 ./wch_sdk/Peripheral/src/ch32v20x_flash.o
 .text.FLASH_ErasePage
                0x0000000000000000       0x4c ./wch_sdk/Peripheral/src/ch32v20x_flash.o
 .text.FLASH_EraseAllPages
                0x0000000000000000       0x48 ./wch_sdk/Peripheral/src/ch32v20x_flash.o
 .text.FLASH_EraseAllBank1Pages
                0x0000000000000000        0x8 ./wch_sdk/Peripheral/src/ch32v20x_flash.o
 .text.FLASH_EraseOptionBytes
                0x0000000000000000       0xe6 ./wch_sdk/Peripheral/src/ch32v20x_flash.o
 .text.FLASH_ProgramWord
                0x0000000000000000       0x68 ./wch_sdk/Peripheral/src/ch32v20x_flash.o
 .text.FLASH_ProgramHalfWord
                0x0000000000000000       0x44 ./wch_sdk/Peripheral/src/ch32v20x_flash.o
 .text.FLASH_ProgramOptionByteData
                0x0000000000000000      0x114 ./wch_sdk/Peripheral/src/ch32v20x_flash.o
 .text.FLASH_EnableWriteProtection
                0x0000000000000000      0x10e ./wch_sdk/Peripheral/src/ch32v20x_flash.o
 .text.FLASH_ReadOutProtection
                0x0000000000000000       0xf8 ./wch_sdk/Peripheral/src/ch32v20x_flash.o
 .text.FLASH_UserOptionByteConfig
                0x0000000000000000       0xfc ./wch_sdk/Peripheral/src/ch32v20x_flash.o
 .text.FLASH_WaitForLastBank1Operation
                0x0000000000000000        0x8 ./wch_sdk/Peripheral/src/ch32v20x_flash.o
 .text.FLASH_Unlock_Fast
                0x0000000000000000       0x1e ./wch_sdk/Peripheral/src/ch32v20x_flash.o
 .text.FLASH_Lock_Fast
                0x0000000000000000        0xe ./wch_sdk/Peripheral/src/ch32v20x_flash.o
 .text.FLASH_ErasePage_Fast
                0x0000000000000000       0x2e ./wch_sdk/Peripheral/src/ch32v20x_flash.o
 .text.FLASH_EraseBlock_32K_Fast
                0x0000000000000000       0x30 ./wch_sdk/Peripheral/src/ch32v20x_flash.o
 .text.FLASH_EraseBlock_64K_Fast
                0x0000000000000000       0x30 ./wch_sdk/Peripheral/src/ch32v20x_flash.o
 .text.FLASH_ProgramPage_Fast
                0x0000000000000000       0x64 ./wch_sdk/Peripheral/src/ch32v20x_flash.o
 .text.FLASH_Access_Clock_Cfg
                0x0000000000000000       0x18 ./wch_sdk/Peripheral/src/ch32v20x_flash.o
 .text.FLASH_Enhance_Mode
                0x0000000000000000       0x2e ./wch_sdk/Peripheral/src/ch32v20x_flash.o
 .text.FLASH_GetMACAddress
                0x0000000000000000       0x26 ./wch_sdk/Peripheral/src/ch32v20x_flash.o
 .debug_info    0x0000000000000000      0xa2a ./wch_sdk/Peripheral/src/ch32v20x_flash.o
 .debug_abbrev  0x0000000000000000      0x2ea ./wch_sdk/Peripheral/src/ch32v20x_flash.o
 .debug_loclists
                0x0000000000000000      0x5a1 ./wch_sdk/Peripheral/src/ch32v20x_flash.o
 .debug_aranges
                0x0000000000000000      0x120 ./wch_sdk/Peripheral/src/ch32v20x_flash.o
 .debug_rnglists
                0x0000000000000000      0x136 ./wch_sdk/Peripheral/src/ch32v20x_flash.o
 .debug_line    0x0000000000000000     0x1bbc ./wch_sdk/Peripheral/src/ch32v20x_flash.o
 .debug_str     0x0000000000000000      0x642 ./wch_sdk/Peripheral/src/ch32v20x_flash.o
 .debug_line_str
                0x0000000000000000      0x299 ./wch_sdk/Peripheral/src/ch32v20x_flash.o
 .comment       0x0000000000000000       0x32 ./wch_sdk/Peripheral/src/ch32v20x_flash.o
 .debug_frame   0x0000000000000000      0x300 ./wch_sdk/Peripheral/src/ch32v20x_flash.o
 .riscv.attributes
                0x0000000000000000       0x31 ./wch_sdk/Peripheral/src/ch32v20x_flash.o
 .text          0x0000000000000000        0x0 ./wch_sdk/Peripheral/src/ch32v20x_gpio.o
 .data          0x0000000000000000        0x0 ./wch_sdk/Peripheral/src/ch32v20x_gpio.o
 .bss           0x0000000000000000        0x0 ./wch_sdk/Peripheral/src/ch32v20x_gpio.o
 .text.GPIO_DeInit
                0x0000000000000000       0xa4 ./wch_sdk/Peripheral/src/ch32v20x_gpio.o
 .text.GPIO_AFIODeInit
                0x0000000000000000       0x28 ./wch_sdk/Peripheral/src/ch32v20x_gpio.o
 .text.GPIO_StructInit
                0x0000000000000000        0xe ./wch_sdk/Peripheral/src/ch32v20x_gpio.o
 .text.GPIO_ReadInputDataBit
                0x0000000000000000       0x1e ./wch_sdk/Peripheral/src/ch32v20x_gpio.o
 .text.GPIO_ReadInputData
                0x0000000000000000       0x20 ./wch_sdk/Peripheral/src/ch32v20x_gpio.o
 .text.GPIO_ReadOutputDataBit
                0x0000000000000000       0x1e ./wch_sdk/Peripheral/src/ch32v20x_gpio.o
 .text.GPIO_ReadOutputData
                0x0000000000000000       0x20 ./wch_sdk/Peripheral/src/ch32v20x_gpio.o
 .text.GPIO_SetBits
                0x0000000000000000       0x18 ./wch_sdk/Peripheral/src/ch32v20x_gpio.o
 .text.GPIO_ResetBits
                0x0000000000000000       0x18 ./wch_sdk/Peripheral/src/ch32v20x_gpio.o
 .text.GPIO_WriteBit
                0x0000000000000000       0x1e ./wch_sdk/Peripheral/src/ch32v20x_gpio.o
 .text.GPIO_Write
                0x0000000000000000       0x18 ./wch_sdk/Peripheral/src/ch32v20x_gpio.o
 .text.GPIO_PinLockConfig
                0x0000000000000000       0x24 ./wch_sdk/Peripheral/src/ch32v20x_gpio.o
 .text.GPIO_EventOutputConfig
                0x0000000000000000       0x18 ./wch_sdk/Peripheral/src/ch32v20x_gpio.o
 .text.GPIO_EventOutputCmd
                0x0000000000000000       0x16 ./wch_sdk/Peripheral/src/ch32v20x_gpio.o
 .text.GPIO_ETH_MediaInterfaceConfig
                0x0000000000000000       0x24 ./wch_sdk/Peripheral/src/ch32v20x_gpio.o
 .text.GPIO_IPD_Unused
                0x0000000000000000      0x2b8 ./wch_sdk/Peripheral/src/ch32v20x_gpio.o
 .text          0x0000000000000000        0x0 ./wch_sdk/Peripheral/src/ch32v20x_i2c.o
 .data          0x0000000000000000        0x0 ./wch_sdk/Peripheral/src/ch32v20x_i2c.o
 .bss           0x0000000000000000        0x0 ./wch_sdk/Peripheral/src/ch32v20x_i2c.o
 .text.I2C_DeInit
                0x0000000000000000       0x4c ./wch_sdk/Peripheral/src/ch32v20x_i2c.o
 .text.I2C_Init
                0x0000000000000000      0x108 ./wch_sdk/Peripheral/src/ch32v20x_i2c.o
 .text.I2C_StructInit
                0x0000000000000000       0x18 ./wch_sdk/Peripheral/src/ch32v20x_i2c.o
 .text.I2C_Cmd  0x0000000000000000       0x18 ./wch_sdk/Peripheral/src/ch32v20x_i2c.o
 .text.I2C_DMACmd
                0x0000000000000000       0x1e ./wch_sdk/Peripheral/src/ch32v20x_i2c.o
 .text.I2C_DMALastTransferCmd
                0x0000000000000000       0x14 ./wch_sdk/Peripheral/src/ch32v20x_i2c.o
 .text.I2C_GenerateSTART
                0x0000000000000000       0x1a ./wch_sdk/Peripheral/src/ch32v20x_i2c.o
 .text.I2C_GenerateSTOP
                0x0000000000000000       0x1a ./wch_sdk/Peripheral/src/ch32v20x_i2c.o
 .text.I2C_AcknowledgeConfig
                0x0000000000000000       0x1a ./wch_sdk/Peripheral/src/ch32v20x_i2c.o
 .text.I2C_OwnAddress2Config
                0x0000000000000000       0x14 ./wch_sdk/Peripheral/src/ch32v20x_i2c.o
 .text.I2C_DualAddressCmd
                0x0000000000000000       0x18 ./wch_sdk/Peripheral/src/ch32v20x_i2c.o
 .text.I2C_GeneralCallCmd
                0x0000000000000000       0x1a ./wch_sdk/Peripheral/src/ch32v20x_i2c.o
 .text.I2C_ITConfig
                0x0000000000000000       0x12 ./wch_sdk/Peripheral/src/ch32v20x_i2c.o
 .text.I2C_SendData
                0x0000000000000000        0x4 ./wch_sdk/Peripheral/src/ch32v20x_i2c.o
 .text.I2C_ReceiveData
                0x0000000000000000        0x8 ./wch_sdk/Peripheral/src/ch32v20x_i2c.o
 .text.I2C_Send7bitAddress
                0x0000000000000000        0xe ./wch_sdk/Peripheral/src/ch32v20x_i2c.o
 .text.I2C_ReadRegister
                0x0000000000000000       0x14 ./wch_sdk/Peripheral/src/ch32v20x_i2c.o
 .text.I2C_SoftwareResetCmd
                0x0000000000000000       0x12 ./wch_sdk/Peripheral/src/ch32v20x_i2c.o
 .text.I2C_NACKPositionConfig
                0x0000000000000000       0x22 ./wch_sdk/Peripheral/src/ch32v20x_i2c.o
 .text.I2C_SMBusAlertConfig
                0x0000000000000000       0x1a ./wch_sdk/Peripheral/src/ch32v20x_i2c.o
 .text.I2C_TransmitPEC
                0x0000000000000000       0x14 ./wch_sdk/Peripheral/src/ch32v20x_i2c.o
 .text.I2C_PECPositionConfig
                0x0000000000000000        0x8 ./wch_sdk/Peripheral/src/ch32v20x_i2c.o
 .text.I2C_CalculatePEC
                0x0000000000000000       0x1a ./wch_sdk/Peripheral/src/ch32v20x_i2c.o
 .text.I2C_GetPEC
                0x0000000000000000        0x6 ./wch_sdk/Peripheral/src/ch32v20x_i2c.o
 .text.I2C_ARPCmd
                0x0000000000000000       0x18 ./wch_sdk/Peripheral/src/ch32v20x_i2c.o
 .text.I2C_StretchClockCmd
                0x0000000000000000       0x1a ./wch_sdk/Peripheral/src/ch32v20x_i2c.o
 .text.I2C_FastModeDutyCycleConfig
                0x0000000000000000       0x1a ./wch_sdk/Peripheral/src/ch32v20x_i2c.o
 .text.I2C_CheckEvent
                0x0000000000000000       0x16 ./wch_sdk/Peripheral/src/ch32v20x_i2c.o
 .text.I2C_GetLastEvent
                0x0000000000000000        0xe ./wch_sdk/Peripheral/src/ch32v20x_i2c.o
 .text.I2C_GetFlagStatus
                0x0000000000000000       0x32 ./wch_sdk/Peripheral/src/ch32v20x_i2c.o
 .text.I2C_ClearFlag
                0x0000000000000000        0xc ./wch_sdk/Peripheral/src/ch32v20x_i2c.o
 .text.I2C_GetITStatus
                0x0000000000000000       0x1c ./wch_sdk/Peripheral/src/ch32v20x_i2c.o
 .text.I2C_ClearITPendingBit
                0x0000000000000000        0xc ./wch_sdk/Peripheral/src/ch32v20x_i2c.o
 .debug_info    0x0000000000000000      0xb0e ./wch_sdk/Peripheral/src/ch32v20x_i2c.o
 .debug_abbrev  0x0000000000000000      0x26d ./wch_sdk/Peripheral/src/ch32v20x_i2c.o
 .debug_loclists
                0x0000000000000000      0x653 ./wch_sdk/Peripheral/src/ch32v20x_i2c.o
 .debug_aranges
                0x0000000000000000      0x120 ./wch_sdk/Peripheral/src/ch32v20x_i2c.o
 .debug_rnglists
                0x0000000000000000      0x136 ./wch_sdk/Peripheral/src/ch32v20x_i2c.o
 .debug_line    0x0000000000000000      0xfa3 ./wch_sdk/Peripheral/src/ch32v20x_i2c.o
 .debug_str     0x0000000000000000      0x68f ./wch_sdk/Peripheral/src/ch32v20x_i2c.o
 .debug_line_str
                0x0000000000000000      0x2a0 ./wch_sdk/Peripheral/src/ch32v20x_i2c.o
 .comment       0x0000000000000000       0x32 ./wch_sdk/Peripheral/src/ch32v20x_i2c.o
 .debug_frame   0x0000000000000000      0x25c ./wch_sdk/Peripheral/src/ch32v20x_i2c.o
 .riscv.attributes
                0x0000000000000000       0x31 ./wch_sdk/Peripheral/src/ch32v20x_i2c.o
 .text          0x0000000000000000        0x0 ./wch_sdk/Peripheral/src/ch32v20x_iwdg.o
 .data          0x0000000000000000        0x0 ./wch_sdk/Peripheral/src/ch32v20x_iwdg.o
 .bss           0x0000000000000000        0x0 ./wch_sdk/Peripheral/src/ch32v20x_iwdg.o
 .text.IWDG_GetFlagStatus
                0x0000000000000000        0xe ./wch_sdk/Peripheral/src/ch32v20x_iwdg.o
 .text          0x0000000000000000        0x0 ./wch_sdk/Peripheral/src/ch32v20x_misc.o
 .data          0x0000000000000000        0x0 ./wch_sdk/Peripheral/src/ch32v20x_misc.o
 .bss           0x0000000000000000        0x0 ./wch_sdk/Peripheral/src/ch32v20x_misc.o
 .text.NVIC_PriorityGroupConfig
                0x0000000000000000        0xa ./wch_sdk/Peripheral/src/ch32v20x_misc.o
 .text.NVIC_Init
                0x0000000000000000       0xac ./wch_sdk/Peripheral/src/ch32v20x_misc.o
 .sbss.NVIC_Priority_Group
                0x0000000000000000        0x4 ./wch_sdk/Peripheral/src/ch32v20x_misc.o
 .debug_info    0x0000000000000000      0x5a0 ./wch_sdk/Peripheral/src/ch32v20x_misc.o
 .debug_abbrev  0x0000000000000000      0x1db ./wch_sdk/Peripheral/src/ch32v20x_misc.o
 .debug_loclists
                0x0000000000000000       0xc4 ./wch_sdk/Peripheral/src/ch32v20x_misc.o
 .debug_aranges
                0x0000000000000000       0x28 ./wch_sdk/Peripheral/src/ch32v20x_misc.o
 .debug_rnglists
                0x0000000000000000       0x58 ./wch_sdk/Peripheral/src/ch32v20x_misc.o
 .debug_line    0x0000000000000000      0x2cc ./wch_sdk/Peripheral/src/ch32v20x_misc.o
 .debug_str     0x0000000000000000      0x633 ./wch_sdk/Peripheral/src/ch32v20x_misc.o
 .debug_line_str
                0x0000000000000000      0x295 ./wch_sdk/Peripheral/src/ch32v20x_misc.o
 .comment       0x0000000000000000       0x32 ./wch_sdk/Peripheral/src/ch32v20x_misc.o
 .debug_frame   0x0000000000000000       0x30 ./wch_sdk/Peripheral/src/ch32v20x_misc.o
 .riscv.attributes
                0x0000000000000000       0x31 ./wch_sdk/Peripheral/src/ch32v20x_misc.o
 .text          0x0000000000000000        0x0 ./wch_sdk/Peripheral/src/ch32v20x_opa.o
 .data          0x0000000000000000        0x0 ./wch_sdk/Peripheral/src/ch32v20x_opa.o
 .bss           0x0000000000000000        0x0 ./wch_sdk/Peripheral/src/ch32v20x_opa.o
 .text.OPA_DeInit
                0x0000000000000000        0xa ./wch_sdk/Peripheral/src/ch32v20x_opa.o
 .text.OPA_Init
                0x0000000000000000       0x34 ./wch_sdk/Peripheral/src/ch32v20x_opa.o
 .text.OPA_StructInit
                0x0000000000000000       0x12 ./wch_sdk/Peripheral/src/ch32v20x_opa.o
 .text.OPA_Cmd  0x0000000000000000       0x26 ./wch_sdk/Peripheral/src/ch32v20x_opa.o
 .debug_info    0x0000000000000000      0x254 ./wch_sdk/Peripheral/src/ch32v20x_opa.o
 .debug_abbrev  0x0000000000000000      0x122 ./wch_sdk/Peripheral/src/ch32v20x_opa.o
 .debug_loclists
                0x0000000000000000       0x54 ./wch_sdk/Peripheral/src/ch32v20x_opa.o
 .debug_aranges
                0x0000000000000000       0x38 ./wch_sdk/Peripheral/src/ch32v20x_opa.o
 .debug_rnglists
                0x0000000000000000       0x31 ./wch_sdk/Peripheral/src/ch32v20x_opa.o
 .debug_line    0x0000000000000000      0x235 ./wch_sdk/Peripheral/src/ch32v20x_opa.o
 .debug_str     0x0000000000000000      0x26a ./wch_sdk/Peripheral/src/ch32v20x_opa.o
 .debug_line_str
                0x0000000000000000      0x291 ./wch_sdk/Peripheral/src/ch32v20x_opa.o
 .comment       0x0000000000000000       0x32 ./wch_sdk/Peripheral/src/ch32v20x_opa.o
 .debug_frame   0x0000000000000000       0x50 ./wch_sdk/Peripheral/src/ch32v20x_opa.o
 .riscv.attributes
                0x0000000000000000       0x31 ./wch_sdk/Peripheral/src/ch32v20x_opa.o
 .text          0x0000000000000000        0x0 ./wch_sdk/Peripheral/src/ch32v20x_pwr.o
 .data          0x0000000000000000        0x0 ./wch_sdk/Peripheral/src/ch32v20x_pwr.o
 .bss           0x0000000000000000        0x0 ./wch_sdk/Peripheral/src/ch32v20x_pwr.o
 .text.PWR_DeInit
                0x0000000000000000       0x2c ./wch_sdk/Peripheral/src/ch32v20x_pwr.o
 .text.PWR_BackupAccessCmd
                0x0000000000000000       0x16 ./wch_sdk/Peripheral/src/ch32v20x_pwr.o
 .text.PWR_PVDCmd
                0x0000000000000000       0x14 ./wch_sdk/Peripheral/src/ch32v20x_pwr.o
 .text.PWR_PVDLevelConfig
                0x0000000000000000       0x10 ./wch_sdk/Peripheral/src/ch32v20x_pwr.o
 .text.PWR_WakeUpPinCmd
                0x0000000000000000       0x16 ./wch_sdk/Peripheral/src/ch32v20x_pwr.o
 .text.PWR_EnterSTOPMode
                0x0000000000000000       0x72 ./wch_sdk/Peripheral/src/ch32v20x_pwr.o
 .text.PWR_EnterSTANDBYMode
                0x0000000000000000       0x30 ./wch_sdk/Peripheral/src/ch32v20x_pwr.o
 .text.PWR_GetFlagStatus
                0x0000000000000000        0xe ./wch_sdk/Peripheral/src/ch32v20x_pwr.o
 .text.PWR_ClearFlag
                0x0000000000000000        0xe ./wch_sdk/Peripheral/src/ch32v20x_pwr.o
 .text.PWR_EnterSTANDBYMode_RAM
                0x0000000000000000       0x2a ./wch_sdk/Peripheral/src/ch32v20x_pwr.o
 .text.PWR_EnterSTANDBYMode_RAM_LV
                0x0000000000000000       0x2c ./wch_sdk/Peripheral/src/ch32v20x_pwr.o
 .text.PWR_EnterSTANDBYMode_RAM_VBAT_EN
                0x0000000000000000       0x2c ./wch_sdk/Peripheral/src/ch32v20x_pwr.o
 .text.PWR_EnterSTANDBYMode_RAM_LV_VBAT_EN
                0x0000000000000000       0x2c ./wch_sdk/Peripheral/src/ch32v20x_pwr.o
 .text.PWR_EnterSTOPMode_RAM_LV
                0x0000000000000000       0x78 ./wch_sdk/Peripheral/src/ch32v20x_pwr.o
 .debug_info    0x0000000000000000      0x6e1 ./wch_sdk/Peripheral/src/ch32v20x_pwr.o
 .debug_abbrev  0x0000000000000000      0x291 ./wch_sdk/Peripheral/src/ch32v20x_pwr.o
 .debug_loclists
                0x0000000000000000      0x1e2 ./wch_sdk/Peripheral/src/ch32v20x_pwr.o
 .debug_aranges
                0x0000000000000000       0x88 ./wch_sdk/Peripheral/src/ch32v20x_pwr.o
 .debug_rnglists
                0x0000000000000000       0xd7 ./wch_sdk/Peripheral/src/ch32v20x_pwr.o
 .debug_line    0x0000000000000000      0x940 ./wch_sdk/Peripheral/src/ch32v20x_pwr.o
 .debug_str     0x0000000000000000      0x406 ./wch_sdk/Peripheral/src/ch32v20x_pwr.o
 .debug_line_str
                0x0000000000000000      0x2a0 ./wch_sdk/Peripheral/src/ch32v20x_pwr.o
 .comment       0x0000000000000000       0x32 ./wch_sdk/Peripheral/src/ch32v20x_pwr.o
 .debug_frame   0x0000000000000000       0xfc ./wch_sdk/Peripheral/src/ch32v20x_pwr.o
 .riscv.attributes
                0x0000000000000000       0x35 ./wch_sdk/Peripheral/src/ch32v20x_pwr.o
 .text          0x0000000000000000        0x0 ./wch_sdk/Peripheral/src/ch32v20x_rcc.o
 .data          0x0000000000000000        0x0 ./wch_sdk/Peripheral/src/ch32v20x_rcc.o
 .bss           0x0000000000000000        0x0 ./wch_sdk/Peripheral/src/ch32v20x_rcc.o
 .text.RCC_DeInit
                0x0000000000000000       0x42 ./wch_sdk/Peripheral/src/ch32v20x_rcc.o
 .text.RCC_HSEConfig
                0x0000000000000000       0x3c ./wch_sdk/Peripheral/src/ch32v20x_rcc.o
 .text.RCC_AdjustHSICalibrationValue
                0x0000000000000000       0x12 ./wch_sdk/Peripheral/src/ch32v20x_rcc.o
 .text.RCC_HSICmd
                0x0000000000000000       0x14 ./wch_sdk/Peripheral/src/ch32v20x_rcc.o
 .text.RCC_PLLConfig
                0x0000000000000000       0x16 ./wch_sdk/Peripheral/src/ch32v20x_rcc.o
 .text.RCC_PLLCmd
                0x0000000000000000       0x24 ./wch_sdk/Peripheral/src/ch32v20x_rcc.o
 .text.RCC_SYSCLKConfig
                0x0000000000000000        0xe ./wch_sdk/Peripheral/src/ch32v20x_rcc.o
 .text.RCC_GetSYSCLKSource
                0x0000000000000000        0xa ./wch_sdk/Peripheral/src/ch32v20x_rcc.o
 .text.RCC_HCLKConfig
                0x0000000000000000       0x10 ./wch_sdk/Peripheral/src/ch32v20x_rcc.o
 .text.RCC_PCLK1Config
                0x0000000000000000       0x10 ./wch_sdk/Peripheral/src/ch32v20x_rcc.o
 .text.RCC_PCLK2Config
                0x0000000000000000       0x16 ./wch_sdk/Peripheral/src/ch32v20x_rcc.o
 .text.RCC_ITConfig
                0x0000000000000000       0x16 ./wch_sdk/Peripheral/src/ch32v20x_rcc.o
 .text.RCC_USBCLKConfig
                0x0000000000000000       0x1a ./wch_sdk/Peripheral/src/ch32v20x_rcc.o
 .text.RCC_LSEConfig
                0x0000000000000000       0x28 ./wch_sdk/Peripheral/src/ch32v20x_rcc.o
 .text.RCC_LSICmd
                0x0000000000000000       0x14 ./wch_sdk/Peripheral/src/ch32v20x_rcc.o
 .text.RCC_RTCCLKConfig
                0x0000000000000000        0xc ./wch_sdk/Peripheral/src/ch32v20x_rcc.o
 .text.RCC_RTCCLKCmd
                0x0000000000000000       0x20 ./wch_sdk/Peripheral/src/ch32v20x_rcc.o
 .text.RCC_BackupResetCmd
                0x0000000000000000       0x20 ./wch_sdk/Peripheral/src/ch32v20x_rcc.o
 .text.RCC_ClockSecuritySystemCmd
                0x0000000000000000       0x24 ./wch_sdk/Peripheral/src/ch32v20x_rcc.o
 .text.RCC_MCOConfig
                0x0000000000000000        0x8 ./wch_sdk/Peripheral/src/ch32v20x_rcc.o
 .text.RCC_GetFlagStatus
                0x0000000000000000       0x2e ./wch_sdk/Peripheral/src/ch32v20x_rcc.o
 .text.RCC_WaitForHSEStartUp
                0x0000000000000000       0x42 ./wch_sdk/Peripheral/src/ch32v20x_rcc.o
 .text.RCC_ClearFlag
                0x0000000000000000       0x10 ./wch_sdk/Peripheral/src/ch32v20x_rcc.o
 .text.RCC_GetITStatus
                0x0000000000000000        0xe ./wch_sdk/Peripheral/src/ch32v20x_rcc.o
 .text.RCC_ClearITPendingBit
                0x0000000000000000        0x8 ./wch_sdk/Peripheral/src/ch32v20x_rcc.o
 .text.RCC_ADCCLKADJcmd
                0x0000000000000000       0x18 ./wch_sdk/Peripheral/src/ch32v20x_rcc.o
 .text.RCC_ETHDIVConfig
                0x0000000000000000       0x1a ./wch_sdk/Peripheral/src/ch32v20x_rcc.o
 .text          0x0000000000000000        0x0 ./wch_sdk/Peripheral/src/ch32v20x_rtc.o
 .data          0x0000000000000000        0x0 ./wch_sdk/Peripheral/src/ch32v20x_rtc.o
 .bss           0x0000000000000000        0x0 ./wch_sdk/Peripheral/src/ch32v20x_rtc.o
 .text.RTC_ITConfig
                0x0000000000000000       0x1a ./wch_sdk/Peripheral/src/ch32v20x_rtc.o
 .text.RTC_EnterConfigMode
                0x0000000000000000       0x12 ./wch_sdk/Peripheral/src/ch32v20x_rtc.o
 .text.RTC_ExitConfigMode
                0x0000000000000000       0x18 ./wch_sdk/Peripheral/src/ch32v20x_rtc.o
 .text.RTC_GetCounter
                0x0000000000000000       0x38 ./wch_sdk/Peripheral/src/ch32v20x_rtc.o
 .text.RTC_SetCounter
                0x0000000000000000       0x36 ./wch_sdk/Peripheral/src/ch32v20x_rtc.o
 .text.RTC_SetPrescaler
                0x0000000000000000       0x38 ./wch_sdk/Peripheral/src/ch32v20x_rtc.o
 .text.RTC_SetAlarm
                0x0000000000000000       0x36 ./wch_sdk/Peripheral/src/ch32v20x_rtc.o
 .text.RTC_GetDivider
                0x0000000000000000       0x18 ./wch_sdk/Peripheral/src/ch32v20x_rtc.o
 .text.RTC_WaitForLastTask
                0x0000000000000000       0x12 ./wch_sdk/Peripheral/src/ch32v20x_rtc.o
 .text.RTC_WaitForSynchro
                0x0000000000000000       0x20 ./wch_sdk/Peripheral/src/ch32v20x_rtc.o
 .text.RTC_GetFlagStatus
                0x0000000000000000       0x12 ./wch_sdk/Peripheral/src/ch32v20x_rtc.o
 .text.RTC_ClearFlag
                0x0000000000000000       0x14 ./wch_sdk/Peripheral/src/ch32v20x_rtc.o
 .text.RTC_GetITStatus
                0x0000000000000000       0x20 ./wch_sdk/Peripheral/src/ch32v20x_rtc.o
 .text.RTC_ClearITPendingBit
                0x0000000000000000        0x8 ./wch_sdk/Peripheral/src/ch32v20x_rtc.o
 .debug_info    0x0000000000000000      0x440 ./wch_sdk/Peripheral/src/ch32v20x_rtc.o
 .debug_abbrev  0x0000000000000000      0x17c ./wch_sdk/Peripheral/src/ch32v20x_rtc.o
 .debug_loclists
                0x0000000000000000      0x244 ./wch_sdk/Peripheral/src/ch32v20x_rtc.o
 .debug_aranges
                0x0000000000000000       0x88 ./wch_sdk/Peripheral/src/ch32v20x_rtc.o
 .debug_rnglists
                0x0000000000000000       0x8b ./wch_sdk/Peripheral/src/ch32v20x_rtc.o
 .debug_line    0x0000000000000000      0x59d ./wch_sdk/Peripheral/src/ch32v20x_rtc.o
 .debug_str     0x0000000000000000      0x39b ./wch_sdk/Peripheral/src/ch32v20x_rtc.o
 .debug_line_str
                0x0000000000000000      0x291 ./wch_sdk/Peripheral/src/ch32v20x_rtc.o
 .comment       0x0000000000000000       0x32 ./wch_sdk/Peripheral/src/ch32v20x_rtc.o
 .debug_frame   0x0000000000000000      0x114 ./wch_sdk/Peripheral/src/ch32v20x_rtc.o
 .riscv.attributes
                0x0000000000000000       0x31 ./wch_sdk/Peripheral/src/ch32v20x_rtc.o
 .text          0x0000000000000000        0x0 ./wch_sdk/Peripheral/src/ch32v20x_spi.o
 .data          0x0000000000000000        0x0 ./wch_sdk/Peripheral/src/ch32v20x_spi.o
 .bss           0x0000000000000000        0x0 ./wch_sdk/Peripheral/src/ch32v20x_spi.o
 .text.SPI_I2S_DeInit
                0x0000000000000000       0x56 ./wch_sdk/Peripheral/src/ch32v20x_spi.o
 .text.SPI_Init
                0x0000000000000000       0x3e ./wch_sdk/Peripheral/src/ch32v20x_spi.o
 .text.I2S_Init
                0x0000000000000000       0xc2 ./wch_sdk/Peripheral/src/ch32v20x_spi.o
 .text.SPI_StructInit
                0x0000000000000000       0x22 ./wch_sdk/Peripheral/src/ch32v20x_spi.o
 .text.I2S_StructInit
                0x0000000000000000       0x12 ./wch_sdk/Peripheral/src/ch32v20x_spi.o
 .text.SPI_Cmd  0x0000000000000000       0x1a ./wch_sdk/Peripheral/src/ch32v20x_spi.o
 .text.I2S_Cmd  0x0000000000000000       0x1a ./wch_sdk/Peripheral/src/ch32v20x_spi.o
 .text.SPI_I2S_ITConfig
                0x0000000000000000       0x1e ./wch_sdk/Peripheral/src/ch32v20x_spi.o
 .text.SPI_I2S_DMACmd
                0x0000000000000000       0x12 ./wch_sdk/Peripheral/src/ch32v20x_spi.o
 .text.SPI_I2S_SendData
                0x0000000000000000        0x4 ./wch_sdk/Peripheral/src/ch32v20x_spi.o
 .text.SPI_I2S_ReceiveData
                0x0000000000000000        0x4 ./wch_sdk/Peripheral/src/ch32v20x_spi.o
 .text.SPI_NSSInternalSoftwareConfig
                0x0000000000000000       0x24 ./wch_sdk/Peripheral/src/ch32v20x_spi.o
 .text.SPI_SSOutputCmd
                0x0000000000000000       0x18 ./wch_sdk/Peripheral/src/ch32v20x_spi.o
 .text.SPI_DataSizeConfig
                0x0000000000000000       0x14 ./wch_sdk/Peripheral/src/ch32v20x_spi.o
 .text.SPI_TransmitCRC
                0x0000000000000000        0xa ./wch_sdk/Peripheral/src/ch32v20x_spi.o
 .text.SPI_CalculateCRC
                0x0000000000000000       0x14 ./wch_sdk/Peripheral/src/ch32v20x_spi.o
 .text.SPI_GetCRC
                0x0000000000000000       0x12 ./wch_sdk/Peripheral/src/ch32v20x_spi.o
 .text.SPI_GetCRCPolynomial
                0x0000000000000000        0x4 ./wch_sdk/Peripheral/src/ch32v20x_spi.o
 .text.SPI_BiDirectionalLineConfig
                0x0000000000000000       0x1a ./wch_sdk/Peripheral/src/ch32v20x_spi.o
 .text.SPI_I2S_GetFlagStatus
                0x0000000000000000        0xa ./wch_sdk/Peripheral/src/ch32v20x_spi.o
 .text.SPI_I2S_ClearFlag
                0x0000000000000000        0xc ./wch_sdk/Peripheral/src/ch32v20x_spi.o
 .text.SPI_I2S_GetITStatus
                0x0000000000000000       0x2a ./wch_sdk/Peripheral/src/ch32v20x_spi.o
 .text.SPI_I2S_ClearITPendingBit
                0x0000000000000000       0x14 ./wch_sdk/Peripheral/src/ch32v20x_spi.o
 .debug_info    0x0000000000000000      0x95e ./wch_sdk/Peripheral/src/ch32v20x_spi.o
 .debug_abbrev  0x0000000000000000      0x1f5 ./wch_sdk/Peripheral/src/ch32v20x_spi.o
 .debug_loclists
                0x0000000000000000      0x4ca ./wch_sdk/Peripheral/src/ch32v20x_spi.o
 .debug_aranges
                0x0000000000000000       0xd0 ./wch_sdk/Peripheral/src/ch32v20x_spi.o
 .debug_rnglists
                0x0000000000000000       0xdc ./wch_sdk/Peripheral/src/ch32v20x_spi.o
 .debug_line    0x0000000000000000      0xb01 ./wch_sdk/Peripheral/src/ch32v20x_spi.o
 .debug_str     0x0000000000000000      0x63e ./wch_sdk/Peripheral/src/ch32v20x_spi.o
 .debug_line_str
                0x0000000000000000      0x2a0 ./wch_sdk/Peripheral/src/ch32v20x_spi.o
 .comment       0x0000000000000000       0x32 ./wch_sdk/Peripheral/src/ch32v20x_spi.o
 .debug_frame   0x0000000000000000      0x1ac ./wch_sdk/Peripheral/src/ch32v20x_spi.o
 .riscv.attributes
                0x0000000000000000       0x31 ./wch_sdk/Peripheral/src/ch32v20x_spi.o
 .text          0x0000000000000000        0x0 ./wch_sdk/Peripheral/src/ch32v20x_tim.o
 .data          0x0000000000000000        0x0 ./wch_sdk/Peripheral/src/ch32v20x_tim.o
 .bss           0x0000000000000000        0x0 ./wch_sdk/Peripheral/src/ch32v20x_tim.o
 .text.TIM_DMAConfig
                0x0000000000000000        0x8 ./wch_sdk/Peripheral/src/ch32v20x_tim.o
 .text.TIM_DMACmd
                0x0000000000000000        0x8 ./wch_sdk/Peripheral/src/ch32v20x_tim.o
 .text.TIM_InternalClockConfig
                0x0000000000000000       0x10 ./wch_sdk/Peripheral/src/ch32v20x_tim.o
 .text.TIM_ITRxExternalClockConfig
                0x0000000000000000       0x18 ./wch_sdk/Peripheral/src/ch32v20x_tim.o
 .text.TIM_TIxExternalClockConfig
                0x0000000000000000       0x48 ./wch_sdk/Peripheral/src/ch32v20x_tim.o
 .text.TIM_ETRConfig
                0x0000000000000000       0x16 ./wch_sdk/Peripheral/src/ch32v20x_tim.o
 .text.TIM_ETRClockMode1Config
                0x0000000000000000       0x2a ./wch_sdk/Peripheral/src/ch32v20x_tim.o
 .text.TIM_ETRClockMode2Config
                0x0000000000000000       0x22 ./wch_sdk/Peripheral/src/ch32v20x_tim.o
 .text.TIM_PrescalerConfig
                0x0000000000000000        0x6 ./wch_sdk/Peripheral/src/ch32v20x_tim.o
 .text.TIM_CounterModeConfig
                0x0000000000000000       0x10 ./wch_sdk/Peripheral/src/ch32v20x_tim.o
 .text.TIM_EncoderInterfaceConfig
                0x0000000000000000       0x3e ./wch_sdk/Peripheral/src/ch32v20x_tim.o
 .text.TIM_ForcedOC1Config
                0x0000000000000000       0x10 ./wch_sdk/Peripheral/src/ch32v20x_tim.o
 .text.TIM_ForcedOC2Config
                0x0000000000000000       0x14 ./wch_sdk/Peripheral/src/ch32v20x_tim.o
 .text.TIM_ForcedOC3Config
                0x0000000000000000       0x10 ./wch_sdk/Peripheral/src/ch32v20x_tim.o
 .text.TIM_ForcedOC4Config
                0x0000000000000000       0x14 ./wch_sdk/Peripheral/src/ch32v20x_tim.o
 .text.TIM_SelectCOM
                0x0000000000000000       0x18 ./wch_sdk/Peripheral/src/ch32v20x_tim.o
 .text.TIM_SelectCCDMA
                0x0000000000000000       0x18 ./wch_sdk/Peripheral/src/ch32v20x_tim.o
 .text.TIM_CCPreloadControl
                0x0000000000000000       0x18 ./wch_sdk/Peripheral/src/ch32v20x_tim.o
 .text.TIM_OC4PreloadConfig
                0x0000000000000000       0x16 ./wch_sdk/Peripheral/src/ch32v20x_tim.o
 .text.TIM_OC4FastConfig
                0x0000000000000000       0x16 ./wch_sdk/Peripheral/src/ch32v20x_tim.o
 .text.TIM_ClearOC1Ref
                0x0000000000000000       0x10 ./wch_sdk/Peripheral/src/ch32v20x_tim.o
 .text.TIM_ClearOC2Ref
                0x0000000000000000       0x12 ./wch_sdk/Peripheral/src/ch32v20x_tim.o
 .text.TIM_ClearOC3Ref
                0x0000000000000000       0x10 ./wch_sdk/Peripheral/src/ch32v20x_tim.o
 .text.TIM_ClearOC4Ref
                0x0000000000000000       0x12 ./wch_sdk/Peripheral/src/ch32v20x_tim.o
 .text.TIM_OC1PolarityConfig
                0x0000000000000000        0xe ./wch_sdk/Peripheral/src/ch32v20x_tim.o
 .text.TIM_OC1NPolarityConfig
                0x0000000000000000        0xe ./wch_sdk/Peripheral/src/ch32v20x_tim.o
 .text.TIM_OC2PolarityConfig
                0x0000000000000000       0x16 ./wch_sdk/Peripheral/src/ch32v20x_tim.o
 .text.TIM_OC2NPolarityConfig
                0x0000000000000000       0x16 ./wch_sdk/Peripheral/src/ch32v20x_tim.o
 .text.TIM_OC3PolarityConfig
                0x0000000000000000       0x16 ./wch_sdk/Peripheral/src/ch32v20x_tim.o
 .text.TIM_OC3NPolarityConfig
                0x0000000000000000       0x16 ./wch_sdk/Peripheral/src/ch32v20x_tim.o
 .text.TIM_OC4PolarityConfig
                0x0000000000000000       0x14 ./wch_sdk/Peripheral/src/ch32v20x_tim.o
 .text.TIM_SelectOCxM
                0x0000000000000000       0x4c ./wch_sdk/Peripheral/src/ch32v20x_tim.o
 .text.TIM_UpdateDisableConfig
                0x0000000000000000       0x18 ./wch_sdk/Peripheral/src/ch32v20x_tim.o
 .text.TIM_UpdateRequestConfig
                0x0000000000000000       0x18 ./wch_sdk/Peripheral/src/ch32v20x_tim.o
 .text.TIM_SelectHallSensor
                0x0000000000000000       0x1a ./wch_sdk/Peripheral/src/ch32v20x_tim.o
 .text.TIM_SelectOnePulseMode
                0x0000000000000000       0x16 ./wch_sdk/Peripheral/src/ch32v20x_tim.o
 .text.TIM_SelectOutputTrigger
                0x0000000000000000       0x18 ./wch_sdk/Peripheral/src/ch32v20x_tim.o
 .text.TIM_SetCounter
                0x0000000000000000        0x4 ./wch_sdk/Peripheral/src/ch32v20x_tim.o
 .text.TIM_SetAutoreload
                0x0000000000000000        0x4 ./wch_sdk/Peripheral/src/ch32v20x_tim.o
 .text.TIM_SetCompare1
                0x0000000000000000        0x4 ./wch_sdk/Peripheral/src/ch32v20x_tim.o
 .text.TIM_SetCompare2
                0x0000000000000000        0x4 ./wch_sdk/Peripheral/src/ch32v20x_tim.o
 .text.TIM_SetCompare3
                0x0000000000000000        0x4 ./wch_sdk/Peripheral/src/ch32v20x_tim.o
 .text.TIM_SetCompare4
                0x0000000000000000        0x6 ./wch_sdk/Peripheral/src/ch32v20x_tim.o
 .text.TIM_PWMIConfig
                0x0000000000000000       0x9c ./wch_sdk/Peripheral/src/ch32v20x_tim.o
 .text.TIM_SetClockDivision
                0x0000000000000000       0x18 ./wch_sdk/Peripheral/src/ch32v20x_tim.o
 .text.TIM_GetCapture3
                0x0000000000000000        0x4 ./wch_sdk/Peripheral/src/ch32v20x_tim.o
 .text.TIM_GetCapture4
                0x0000000000000000        0x6 ./wch_sdk/Peripheral/src/ch32v20x_tim.o
 .text.TIM_GetCounter
                0x0000000000000000        0x4 ./wch_sdk/Peripheral/src/ch32v20x_tim.o
 .text.TIM_GetPrescaler
                0x0000000000000000        0x4 ./wch_sdk/Peripheral/src/ch32v20x_tim.o
 .text.TIM_GetFlagStatus
                0x0000000000000000        0xa ./wch_sdk/Peripheral/src/ch32v20x_tim.o
 .text.TIM_ClearFlag
                0x0000000000000000        0xc ./wch_sdk/Peripheral/src/ch32v20x_tim.o
 .text          0x0000000000000000        0x0 ./wch_sdk/Peripheral/src/ch32v20x_usart.o
 .data          0x0000000000000000        0x0 ./wch_sdk/Peripheral/src/ch32v20x_usart.o
 .bss           0x0000000000000000        0x0 ./wch_sdk/Peripheral/src/ch32v20x_usart.o
 .text.USART_DeInit
                0x0000000000000000       0x9e ./wch_sdk/Peripheral/src/ch32v20x_usart.o
 .text.USART_StructInit
                0x0000000000000000       0x18 ./wch_sdk/Peripheral/src/ch32v20x_usart.o
 .text.USART_ClockInit
                0x0000000000000000       0x1e ./wch_sdk/Peripheral/src/ch32v20x_usart.o
 .text.USART_ClockStructInit
                0x0000000000000000       0x12 ./wch_sdk/Peripheral/src/ch32v20x_usart.o
 .text.USART_ITConfig
                0x0000000000000000       0x38 ./wch_sdk/Peripheral/src/ch32v20x_usart.o
 .text.USART_DMACmd
                0x0000000000000000       0x12 ./wch_sdk/Peripheral/src/ch32v20x_usart.o
 .text.USART_SetAddress
                0x0000000000000000       0x16 ./wch_sdk/Peripheral/src/ch32v20x_usart.o
 .text.USART_WakeUpConfig
                0x0000000000000000       0x14 ./wch_sdk/Peripheral/src/ch32v20x_usart.o
 .text.USART_ReceiverWakeUpCmd
                0x0000000000000000       0x18 ./wch_sdk/Peripheral/src/ch32v20x_usart.o
 .text.USART_LINBreakDetectLengthConfig
                0x0000000000000000       0x18 ./wch_sdk/Peripheral/src/ch32v20x_usart.o
 .text.USART_LINCmd
                0x0000000000000000       0x14 ./wch_sdk/Peripheral/src/ch32v20x_usart.o
 .text.USART_ReceiveData
                0x0000000000000000        0x8 ./wch_sdk/Peripheral/src/ch32v20x_usart.o
 .text.USART_SendBreak
                0x0000000000000000        0xa ./wch_sdk/Peripheral/src/ch32v20x_usart.o
 .text.USART_SetGuardTime
                0x0000000000000000       0x12 ./wch_sdk/Peripheral/src/ch32v20x_usart.o
 .text.USART_SetPrescaler
                0x0000000000000000       0x18 ./wch_sdk/Peripheral/src/ch32v20x_usart.o
 .text.USART_SmartCardCmd
                0x0000000000000000       0x1a ./wch_sdk/Peripheral/src/ch32v20x_usart.o
 .text.USART_SmartCardNACKCmd
                0x0000000000000000       0x18 ./wch_sdk/Peripheral/src/ch32v20x_usart.o
 .text.USART_HalfDuplexCmd
                0x0000000000000000       0x18 ./wch_sdk/Peripheral/src/ch32v20x_usart.o
 .text.USART_OverSampling8Cmd
                0x0000000000000000       0x12 ./wch_sdk/Peripheral/src/ch32v20x_usart.o
 .text.USART_OneBitMethodCmd
                0x0000000000000000       0x1e ./wch_sdk/Peripheral/src/ch32v20x_usart.o
 .text.USART_IrDAConfig
                0x0000000000000000       0x16 ./wch_sdk/Peripheral/src/ch32v20x_usart.o
 .text.USART_IrDACmd
                0x0000000000000000       0x18 ./wch_sdk/Peripheral/src/ch32v20x_usart.o
 .text.USART_ClearFlag
                0x0000000000000000        0xc ./wch_sdk/Peripheral/src/ch32v20x_usart.o
 .text.USART_GetITStatus
                0x0000000000000000       0x3e ./wch_sdk/Peripheral/src/ch32v20x_usart.o
 .text.USART_ClearITPendingBit
                0x0000000000000000       0x14 ./wch_sdk/Peripheral/src/ch32v20x_usart.o
 .text          0x0000000000000000        0x0 ./wch_sdk/Peripheral/src/ch32v20x_wwdg.o
 .data          0x0000000000000000        0x0 ./wch_sdk/Peripheral/src/ch32v20x_wwdg.o
 .bss           0x0000000000000000        0x0 ./wch_sdk/Peripheral/src/ch32v20x_wwdg.o
 .text.WWDG_DeInit
                0x0000000000000000       0x2e ./wch_sdk/Peripheral/src/ch32v20x_wwdg.o
 .text.WWDG_SetPrescaler
                0x0000000000000000       0x14 ./wch_sdk/Peripheral/src/ch32v20x_wwdg.o
 .text.WWDG_SetWindowValue
                0x0000000000000000       0x26 ./wch_sdk/Peripheral/src/ch32v20x_wwdg.o
 .text.WWDG_EnableIT
                0x0000000000000000       0x12 ./wch_sdk/Peripheral/src/ch32v20x_wwdg.o
 .text.WWDG_SetCounter
                0x0000000000000000        0xe ./wch_sdk/Peripheral/src/ch32v20x_wwdg.o
 .text.WWDG_Enable
                0x0000000000000000        0xe ./wch_sdk/Peripheral/src/ch32v20x_wwdg.o
 .text.WWDG_GetFlagStatus
                0x0000000000000000        0xc ./wch_sdk/Peripheral/src/ch32v20x_wwdg.o
 .text.WWDG_ClearFlag
                0x0000000000000000        0xe ./wch_sdk/Peripheral/src/ch32v20x_wwdg.o
 .debug_info    0x0000000000000000      0x262 ./wch_sdk/Peripheral/src/ch32v20x_wwdg.o
 .debug_abbrev  0x0000000000000000      0x184 ./wch_sdk/Peripheral/src/ch32v20x_wwdg.o
 .debug_loclists
                0x0000000000000000       0x72 ./wch_sdk/Peripheral/src/ch32v20x_wwdg.o
 .debug_aranges
                0x0000000000000000       0x58 ./wch_sdk/Peripheral/src/ch32v20x_wwdg.o
 .debug_rnglists
                0x0000000000000000       0x55 ./wch_sdk/Peripheral/src/ch32v20x_wwdg.o
 .debug_line    0x0000000000000000      0x26c ./wch_sdk/Peripheral/src/ch32v20x_wwdg.o
 .debug_str     0x0000000000000000      0x270 ./wch_sdk/Peripheral/src/ch32v20x_wwdg.o
 .debug_line_str
                0x0000000000000000      0x2a4 ./wch_sdk/Peripheral/src/ch32v20x_wwdg.o
 .comment       0x0000000000000000       0x32 ./wch_sdk/Peripheral/src/ch32v20x_wwdg.o
 .debug_frame   0x0000000000000000       0xa4 ./wch_sdk/Peripheral/src/ch32v20x_wwdg.o
 .riscv.attributes
                0x0000000000000000       0x31 ./wch_sdk/Peripheral/src/ch32v20x_wwdg.o
 .text          0x0000000000000000        0x0 ./wch_sdk/Debug/debug.o
 .data          0x0000000000000000        0x0 ./wch_sdk/Debug/debug.o
 .bss           0x0000000000000000        0x0 ./wch_sdk/Debug/debug.o
 .text.Delay_Init
                0x0000000000000000       0x32 ./wch_sdk/Debug/debug.o
 .text.Delay_Us
                0x0000000000000000       0x3a ./wch_sdk/Debug/debug.o
 .text.Delay_Ms
                0x0000000000000000       0x3a ./wch_sdk/Debug/debug.o
 .text.USART_Printf_Init
                0x0000000000000000       0x7e ./wch_sdk/Debug/debug.o
 .sbss.p_ms     0x0000000000000000        0x2 ./wch_sdk/Debug/debug.o
 .sbss.p_us     0x0000000000000000        0x1 ./wch_sdk/Debug/debug.o
 .text          0x0000000000000000        0x0 ./wch_sdk/Core/core_riscv.o
 .data          0x0000000000000000        0x0 ./wch_sdk/Core/core_riscv.o
 .bss           0x0000000000000000        0x0 ./wch_sdk/Core/core_riscv.o
 .text.__get_MSTATUS
                0x0000000000000000        0x6 ./wch_sdk/Core/core_riscv.o
 .text.__set_MSTATUS
                0x0000000000000000        0x6 ./wch_sdk/Core/core_riscv.o
 .text.__get_MISA
                0x0000000000000000        0x6 ./wch_sdk/Core/core_riscv.o
 .text.__set_MISA
                0x0000000000000000        0x6 ./wch_sdk/Core/core_riscv.o
 .text.__get_MTVEC
                0x0000000000000000        0x6 ./wch_sdk/Core/core_riscv.o
 .text.__set_MTVEC
                0x0000000000000000        0x6 ./wch_sdk/Core/core_riscv.o
 .text.__get_MSCRATCH
                0x0000000000000000        0x6 ./wch_sdk/Core/core_riscv.o
 .text.__set_MSCRATCH
                0x0000000000000000        0x6 ./wch_sdk/Core/core_riscv.o
 .text.__set_MEPC
                0x0000000000000000        0x6 ./wch_sdk/Core/core_riscv.o
 .text.__set_MCAUSE
                0x0000000000000000        0x6 ./wch_sdk/Core/core_riscv.o
 .text.__set_MTVAL
                0x0000000000000000        0x6 ./wch_sdk/Core/core_riscv.o
 .text.__get_MVENDORID
                0x0000000000000000        0x6 ./wch_sdk/Core/core_riscv.o
 .text.__get_MARCHID
                0x0000000000000000        0x6 ./wch_sdk/Core/core_riscv.o
 .text.__get_MIMPID
                0x0000000000000000        0x6 ./wch_sdk/Core/core_riscv.o
 .text.__get_MHARTID
                0x0000000000000000        0x6 ./wch_sdk/Core/core_riscv.o
 .text.__get_SP
                0x0000000000000000        0x4 ./wch_sdk/Core/core_riscv.o
 .text          0x0000000000000000        0x0 ./user/ch32v20x_it.o
 .data          0x0000000000000000        0x0 ./user/ch32v20x_it.o
 .bss           0x0000000000000000        0x0 ./user/ch32v20x_it.o
 .rodata.TIM1_IQRHandler.str1.4
                0x0000000000000000       0x11 ./user/ch32v20x_it.o
 .text.TIM1_IQRHandler
                0x0000000000000000       0x14 ./user/ch32v20x_it.o
 .sbss.last_commutation_num
                0x0000000000000000        0x2 ./user/ch32v20x_it.o
 .sbss.delay_flag
                0x0000000000000000        0x2 ./user/ch32v20x_it.o
 .text          0x0000000000000000        0x0 ./user/main.o
 .data          0x0000000000000000        0x0 ./user/main.o
 .bss           0x0000000000000000        0x0 ./user/main.o
 .text          0x0000000000000000        0x0 ./user/system_ch32v20x.o
 .data          0x0000000000000000        0x0 ./user/system_ch32v20x.o
 .bss           0x0000000000000000        0x0 ./user/system_ch32v20x.o
 .text.SystemCoreClockUpdate
                0x0000000000000000       0x84 ./user/system_ch32v20x.o
 .data.AHBPrescTable
                0x0000000000000000       0x10 ./user/system_ch32v20x.o
 .text          0x0000000000000000        0x0 ./bldc_software/control.o
 .data          0x0000000000000000        0x0 ./bldc_software/control.o
 .bss           0x0000000000000000        0x0 ./bldc_software/control.o
 .text          0x0000000000000000        0x0 ./bldc_software/motor.o
 .data          0x0000000000000000        0x0 ./bldc_software/motor.o
 .bss           0x0000000000000000        0x0 ./bldc_software/motor.o
 .text          0x0000000000000000        0x0 ./bldc_hardware/operational_amplifier.o
 .data          0x0000000000000000        0x0 ./bldc_hardware/operational_amplifier.o
 .bss           0x0000000000000000        0x0 ./bldc_hardware/operational_amplifier.o
 .text          0x0000000000000000        0x0 ./bldc_hardware/pwm_input.o
 .data          0x0000000000000000        0x0 ./bldc_hardware/pwm_input.o
 .bss           0x0000000000000000        0x0 ./bldc_hardware/pwm_input.o
 .text          0x0000000000000000        0x0 ./bldc_hardware/pwm_output.o
 .data          0x0000000000000000        0x0 ./bldc_hardware/pwm_output.o
 .bss           0x0000000000000000        0x0 ./bldc_hardware/pwm_output.o
 .sdata.comp_pwm
                0x0000000000000000        0x1 ./bldc_hardware/pwm_output.o
 .text          0x0000000000000000        0x0 ./addition_software/seekfree_assistant.o
 .data          0x0000000000000000        0x0 ./addition_software/seekfree_assistant.o
 .bss           0x0000000000000000        0x0 ./addition_software/seekfree_assistant.o
 .text          0x0000000000000000        0x0 ./addition_software/seekfree_assistant_interface.o
 .data          0x0000000000000000        0x0 ./addition_software/seekfree_assistant_interface.o
 .bss           0x0000000000000000        0x0 ./addition_software/seekfree_assistant_interface.o
 .text          0x0000000000000000        0x0 ./addition_hardware/battery.o
 .data          0x0000000000000000        0x0 ./addition_hardware/battery.o
 .bss           0x0000000000000000        0x0 ./addition_hardware/battery.o
 .text          0x0000000000000000        0x0 ./addition_hardware/delay.o
 .data          0x0000000000000000        0x0 ./addition_hardware/delay.o
 .bss           0x0000000000000000        0x0 ./addition_hardware/delay.o
 .text          0x0000000000000000        0x0 ./addition_hardware/iwdg.o
 .data          0x0000000000000000        0x0 ./addition_hardware/iwdg.o
 .bss           0x0000000000000000        0x0 ./addition_hardware/iwdg.o
 .text          0x0000000000000000        0x0 ./addition_hardware/led.o
 .data          0x0000000000000000        0x0 ./addition_hardware/led.o
 .bss           0x0000000000000000        0x0 ./addition_hardware/led.o
 .text.led_run_control
                0x0000000000000000       0x16 ./addition_hardware/led.o
 .text.led_err_control
                0x0000000000000000       0x16 ./addition_hardware/led.o
 .text          0x0000000000000000        0x0 ./addition_hardware/usart.o
 .data          0x0000000000000000        0x0 ./addition_hardware/usart.o
 .bss           0x0000000000000000        0x0 ./addition_hardware/usart.o
 .text          0x0000000000000000        0x0 d:/mounriver_studio/toolchain/risc-v embedded gcc12/bin/../lib/gcc/riscv-none-elf/12.2.0/rv32imac_xw/ilp32\libgcc.a(divdf3.o)
 .data          0x0000000000000000        0x0 d:/mounriver_studio/toolchain/risc-v embedded gcc12/bin/../lib/gcc/riscv-none-elf/12.2.0/rv32imac_xw/ilp32\libgcc.a(divdf3.o)
 .bss           0x0000000000000000        0x0 d:/mounriver_studio/toolchain/risc-v embedded gcc12/bin/../lib/gcc/riscv-none-elf/12.2.0/rv32imac_xw/ilp32\libgcc.a(divdf3.o)
 .text          0x0000000000000000        0x0 d:/mounriver_studio/toolchain/risc-v embedded gcc12/bin/../lib/gcc/riscv-none-elf/12.2.0/rv32imac_xw/ilp32\libgcc.a(muldf3.o)
 .data          0x0000000000000000        0x0 d:/mounriver_studio/toolchain/risc-v embedded gcc12/bin/../lib/gcc/riscv-none-elf/12.2.0/rv32imac_xw/ilp32\libgcc.a(muldf3.o)
 .bss           0x0000000000000000        0x0 d:/mounriver_studio/toolchain/risc-v embedded gcc12/bin/../lib/gcc/riscv-none-elf/12.2.0/rv32imac_xw/ilp32\libgcc.a(muldf3.o)
 .text          0x0000000000000000        0x0 d:/mounriver_studio/toolchain/risc-v embedded gcc12/bin/../lib/gcc/riscv-none-elf/12.2.0/rv32imac_xw/ilp32\libgcc.a(fixunsdfsi.o)
 .data          0x0000000000000000        0x0 d:/mounriver_studio/toolchain/risc-v embedded gcc12/bin/../lib/gcc/riscv-none-elf/12.2.0/rv32imac_xw/ilp32\libgcc.a(fixunsdfsi.o)
 .bss           0x0000000000000000        0x0 d:/mounriver_studio/toolchain/risc-v embedded gcc12/bin/../lib/gcc/riscv-none-elf/12.2.0/rv32imac_xw/ilp32\libgcc.a(fixunsdfsi.o)
 .text          0x0000000000000000        0x0 d:/mounriver_studio/toolchain/risc-v embedded gcc12/bin/../lib/gcc/riscv-none-elf/12.2.0/rv32imac_xw/ilp32\libgcc.a(floatunsidf.o)
 .data          0x0000000000000000        0x0 d:/mounriver_studio/toolchain/risc-v embedded gcc12/bin/../lib/gcc/riscv-none-elf/12.2.0/rv32imac_xw/ilp32\libgcc.a(floatunsidf.o)
 .bss           0x0000000000000000        0x0 d:/mounriver_studio/toolchain/risc-v embedded gcc12/bin/../lib/gcc/riscv-none-elf/12.2.0/rv32imac_xw/ilp32\libgcc.a(floatunsidf.o)
 .text          0x0000000000000000        0x0 d:/mounriver_studio/toolchain/risc-v embedded gcc12/bin/../lib/gcc/riscv-none-elf/12.2.0/rv32imac_xw/ilp32\libgcc.a(addsf3.o)
 .data          0x0000000000000000        0x0 d:/mounriver_studio/toolchain/risc-v embedded gcc12/bin/../lib/gcc/riscv-none-elf/12.2.0/rv32imac_xw/ilp32\libgcc.a(addsf3.o)
 .bss           0x0000000000000000        0x0 d:/mounriver_studio/toolchain/risc-v embedded gcc12/bin/../lib/gcc/riscv-none-elf/12.2.0/rv32imac_xw/ilp32\libgcc.a(addsf3.o)
 .text          0x0000000000000000        0x0 d:/mounriver_studio/toolchain/risc-v embedded gcc12/bin/../lib/gcc/riscv-none-elf/12.2.0/rv32imac_xw/ilp32\libgcc.a(divsf3.o)
 .data          0x0000000000000000        0x0 d:/mounriver_studio/toolchain/risc-v embedded gcc12/bin/../lib/gcc/riscv-none-elf/12.2.0/rv32imac_xw/ilp32\libgcc.a(divsf3.o)
 .bss           0x0000000000000000        0x0 d:/mounriver_studio/toolchain/risc-v embedded gcc12/bin/../lib/gcc/riscv-none-elf/12.2.0/rv32imac_xw/ilp32\libgcc.a(divsf3.o)
 .text          0x0000000000000000        0x0 d:/mounriver_studio/toolchain/risc-v embedded gcc12/bin/../lib/gcc/riscv-none-elf/12.2.0/rv32imac_xw/ilp32\libgcc.a(gesf2.o)
 .data          0x0000000000000000        0x0 d:/mounriver_studio/toolchain/risc-v embedded gcc12/bin/../lib/gcc/riscv-none-elf/12.2.0/rv32imac_xw/ilp32\libgcc.a(gesf2.o)
 .bss           0x0000000000000000        0x0 d:/mounriver_studio/toolchain/risc-v embedded gcc12/bin/../lib/gcc/riscv-none-elf/12.2.0/rv32imac_xw/ilp32\libgcc.a(gesf2.o)
 .text          0x0000000000000000        0x0 d:/mounriver_studio/toolchain/risc-v embedded gcc12/bin/../lib/gcc/riscv-none-elf/12.2.0/rv32imac_xw/ilp32\libgcc.a(lesf2.o)
 .data          0x0000000000000000        0x0 d:/mounriver_studio/toolchain/risc-v embedded gcc12/bin/../lib/gcc/riscv-none-elf/12.2.0/rv32imac_xw/ilp32\libgcc.a(lesf2.o)
 .bss           0x0000000000000000        0x0 d:/mounriver_studio/toolchain/risc-v embedded gcc12/bin/../lib/gcc/riscv-none-elf/12.2.0/rv32imac_xw/ilp32\libgcc.a(lesf2.o)
 .text          0x0000000000000000        0x0 d:/mounriver_studio/toolchain/risc-v embedded gcc12/bin/../lib/gcc/riscv-none-elf/12.2.0/rv32imac_xw/ilp32\libgcc.a(mulsf3.o)
 .data          0x0000000000000000        0x0 d:/mounriver_studio/toolchain/risc-v embedded gcc12/bin/../lib/gcc/riscv-none-elf/12.2.0/rv32imac_xw/ilp32\libgcc.a(mulsf3.o)
 .bss           0x0000000000000000        0x0 d:/mounriver_studio/toolchain/risc-v embedded gcc12/bin/../lib/gcc/riscv-none-elf/12.2.0/rv32imac_xw/ilp32\libgcc.a(mulsf3.o)
 .text          0x0000000000000000        0x0 d:/mounriver_studio/toolchain/risc-v embedded gcc12/bin/../lib/gcc/riscv-none-elf/12.2.0/rv32imac_xw/ilp32\libgcc.a(subsf3.o)
 .data          0x0000000000000000        0x0 d:/mounriver_studio/toolchain/risc-v embedded gcc12/bin/../lib/gcc/riscv-none-elf/12.2.0/rv32imac_xw/ilp32\libgcc.a(subsf3.o)
 .bss           0x0000000000000000        0x0 d:/mounriver_studio/toolchain/risc-v embedded gcc12/bin/../lib/gcc/riscv-none-elf/12.2.0/rv32imac_xw/ilp32\libgcc.a(subsf3.o)
 .text          0x0000000000000000        0x0 d:/mounriver_studio/toolchain/risc-v embedded gcc12/bin/../lib/gcc/riscv-none-elf/12.2.0/rv32imac_xw/ilp32\libgcc.a(fixsfsi.o)
 .data          0x0000000000000000        0x0 d:/mounriver_studio/toolchain/risc-v embedded gcc12/bin/../lib/gcc/riscv-none-elf/12.2.0/rv32imac_xw/ilp32\libgcc.a(fixsfsi.o)
 .bss           0x0000000000000000        0x0 d:/mounriver_studio/toolchain/risc-v embedded gcc12/bin/../lib/gcc/riscv-none-elf/12.2.0/rv32imac_xw/ilp32\libgcc.a(fixsfsi.o)
 .text          0x0000000000000000        0x0 d:/mounriver_studio/toolchain/risc-v embedded gcc12/bin/../lib/gcc/riscv-none-elf/12.2.0/rv32imac_xw/ilp32\libgcc.a(floatsisf.o)
 .data          0x0000000000000000        0x0 d:/mounriver_studio/toolchain/risc-v embedded gcc12/bin/../lib/gcc/riscv-none-elf/12.2.0/rv32imac_xw/ilp32\libgcc.a(floatsisf.o)
 .bss           0x0000000000000000        0x0 d:/mounriver_studio/toolchain/risc-v embedded gcc12/bin/../lib/gcc/riscv-none-elf/12.2.0/rv32imac_xw/ilp32\libgcc.a(floatsisf.o)
 .text          0x0000000000000000        0x0 d:/mounriver_studio/toolchain/risc-v embedded gcc12/bin/../lib/gcc/riscv-none-elf/12.2.0/rv32imac_xw/ilp32\libgcc.a(floatunsisf.o)
 .data          0x0000000000000000        0x0 d:/mounriver_studio/toolchain/risc-v embedded gcc12/bin/../lib/gcc/riscv-none-elf/12.2.0/rv32imac_xw/ilp32\libgcc.a(floatunsisf.o)
 .bss           0x0000000000000000        0x0 d:/mounriver_studio/toolchain/risc-v embedded gcc12/bin/../lib/gcc/riscv-none-elf/12.2.0/rv32imac_xw/ilp32\libgcc.a(floatunsisf.o)
 .text          0x0000000000000000        0x0 d:/mounriver_studio/toolchain/risc-v embedded gcc12/bin/../lib/gcc/riscv-none-elf/12.2.0/rv32imac_xw/ilp32\libgcc.a(extendsfdf2.o)
 .data          0x0000000000000000        0x0 d:/mounriver_studio/toolchain/risc-v embedded gcc12/bin/../lib/gcc/riscv-none-elf/12.2.0/rv32imac_xw/ilp32\libgcc.a(extendsfdf2.o)
 .bss           0x0000000000000000        0x0 d:/mounriver_studio/toolchain/risc-v embedded gcc12/bin/../lib/gcc/riscv-none-elf/12.2.0/rv32imac_xw/ilp32\libgcc.a(extendsfdf2.o)
 .text          0x0000000000000000        0x0 d:/mounriver_studio/toolchain/risc-v embedded gcc12/bin/../lib/gcc/riscv-none-elf/12.2.0/rv32imac_xw/ilp32\libgcc.a(truncdfsf2.o)
 .data          0x0000000000000000        0x0 d:/mounriver_studio/toolchain/risc-v embedded gcc12/bin/../lib/gcc/riscv-none-elf/12.2.0/rv32imac_xw/ilp32\libgcc.a(truncdfsf2.o)
 .bss           0x0000000000000000        0x0 d:/mounriver_studio/toolchain/risc-v embedded gcc12/bin/../lib/gcc/riscv-none-elf/12.2.0/rv32imac_xw/ilp32\libgcc.a(truncdfsf2.o)
 .data          0x0000000000000000        0x0 d:/mounriver_studio/toolchain/risc-v embedded gcc12/bin/../lib/gcc/riscv-none-elf/12.2.0/rv32imac_xw/ilp32\libgcc.a(save-restore.o)
 .bss           0x0000000000000000        0x0 d:/mounriver_studio/toolchain/risc-v embedded gcc12/bin/../lib/gcc/riscv-none-elf/12.2.0/rv32imac_xw/ilp32\libgcc.a(save-restore.o)
 .eh_frame      0x0000000000000000       0xf8 d:/mounriver_studio/toolchain/risc-v embedded gcc12/bin/../lib/gcc/riscv-none-elf/12.2.0/rv32imac_xw/ilp32\libgcc.a(save-restore.o)
 .text          0x0000000000000000        0x0 d:/mounriver_studio/toolchain/risc-v embedded gcc12/bin/../lib/gcc/riscv-none-elf/12.2.0/rv32imac_xw/ilp32\libgcc.a(_clzsi2.o)
 .data          0x0000000000000000        0x0 d:/mounriver_studio/toolchain/risc-v embedded gcc12/bin/../lib/gcc/riscv-none-elf/12.2.0/rv32imac_xw/ilp32\libgcc.a(_clzsi2.o)
 .bss           0x0000000000000000        0x0 d:/mounriver_studio/toolchain/risc-v embedded gcc12/bin/../lib/gcc/riscv-none-elf/12.2.0/rv32imac_xw/ilp32\libgcc.a(_clzsi2.o)
 .text          0x0000000000000000        0x0 d:/mounriver_studio/toolchain/risc-v embedded gcc12/bin/../lib/gcc/riscv-none-elf/12.2.0/rv32imac_xw/ilp32\libgcc.a(_clz.o)
 .data          0x0000000000000000        0x0 d:/mounriver_studio/toolchain/risc-v embedded gcc12/bin/../lib/gcc/riscv-none-elf/12.2.0/rv32imac_xw/ilp32\libgcc.a(_clz.o)
 .bss           0x0000000000000000        0x0 d:/mounriver_studio/toolchain/risc-v embedded gcc12/bin/../lib/gcc/riscv-none-elf/12.2.0/rv32imac_xw/ilp32\libgcc.a(_clz.o)
 .data          0x0000000000000000        0x0 d:/mounriver_studio/toolchain/risc-v embedded gcc12/bin/../lib/gcc/riscv-none-elf/12.2.0/../../../../riscv-none-elf/lib/rv32imac_xw/ilp32\libg_nano.a(lib_a-memset.o)
 .bss           0x0000000000000000        0x0 d:/mounriver_studio/toolchain/risc-v embedded gcc12/bin/../lib/gcc/riscv-none-elf/12.2.0/../../../../riscv-none-elf/lib/rv32imac_xw/ilp32\libg_nano.a(lib_a-memset.o)
 .text          0x0000000000000000        0x0 d:/mounriver_studio/toolchain/risc-v embedded gcc12/bin/../lib/gcc/riscv-none-elf/12.2.0/../../../../riscv-none-elf/lib/rv32imac_xw/ilp32\libg_nano.a(lib_a-printf.o)
 .data          0x0000000000000000        0x0 d:/mounriver_studio/toolchain/risc-v embedded gcc12/bin/../lib/gcc/riscv-none-elf/12.2.0/../../../../riscv-none-elf/lib/rv32imac_xw/ilp32\libg_nano.a(lib_a-printf.o)
 .bss           0x0000000000000000        0x0 d:/mounriver_studio/toolchain/risc-v embedded gcc12/bin/../lib/gcc/riscv-none-elf/12.2.0/../../../../riscv-none-elf/lib/rv32imac_xw/ilp32\libg_nano.a(lib_a-printf.o)
 .text._printf_r
                0x0000000000000000       0x42 d:/mounriver_studio/toolchain/risc-v embedded gcc12/bin/../lib/gcc/riscv-none-elf/12.2.0/../../../../riscv-none-elf/lib/rv32imac_xw/ilp32\libg_nano.a(lib_a-printf.o)
 .text          0x0000000000000000        0x0 d:/mounriver_studio/toolchain/risc-v embedded gcc12/bin/../lib/gcc/riscv-none-elf/12.2.0/../../../../riscv-none-elf/lib/rv32imac_xw/ilp32\libg_nano.a(lib_a-puts.o)
 .data          0x0000000000000000        0x0 d:/mounriver_studio/toolchain/risc-v embedded gcc12/bin/../lib/gcc/riscv-none-elf/12.2.0/../../../../riscv-none-elf/lib/rv32imac_xw/ilp32\libg_nano.a(lib_a-puts.o)
 .bss           0x0000000000000000        0x0 d:/mounriver_studio/toolchain/risc-v embedded gcc12/bin/../lib/gcc/riscv-none-elf/12.2.0/../../../../riscv-none-elf/lib/rv32imac_xw/ilp32\libg_nano.a(lib_a-puts.o)
 .text          0x0000000000000000        0x0 d:/mounriver_studio/toolchain/risc-v embedded gcc12/bin/../lib/gcc/riscv-none-elf/12.2.0/../../../../riscv-none-elf/lib/rv32imac_xw/ilp32\libg_nano.a(lib_a-rand.o)
 .data          0x0000000000000000        0x0 d:/mounriver_studio/toolchain/risc-v embedded gcc12/bin/../lib/gcc/riscv-none-elf/12.2.0/../../../../riscv-none-elf/lib/rv32imac_xw/ilp32\libg_nano.a(lib_a-rand.o)
 .bss           0x0000000000000000        0x0 d:/mounriver_studio/toolchain/risc-v embedded gcc12/bin/../lib/gcc/riscv-none-elf/12.2.0/../../../../riscv-none-elf/lib/rv32imac_xw/ilp32\libg_nano.a(lib_a-rand.o)
 .text          0x0000000000000000        0x0 d:/mounriver_studio/toolchain/risc-v embedded gcc12/bin/../lib/gcc/riscv-none-elf/12.2.0/../../../../riscv-none-elf/lib/rv32imac_xw/ilp32\libg_nano.a(lib_a-wbuf.o)
 .data          0x0000000000000000        0x0 d:/mounriver_studio/toolchain/risc-v embedded gcc12/bin/../lib/gcc/riscv-none-elf/12.2.0/../../../../riscv-none-elf/lib/rv32imac_xw/ilp32\libg_nano.a(lib_a-wbuf.o)
 .bss           0x0000000000000000        0x0 d:/mounriver_studio/toolchain/risc-v embedded gcc12/bin/../lib/gcc/riscv-none-elf/12.2.0/../../../../riscv-none-elf/lib/rv32imac_xw/ilp32\libg_nano.a(lib_a-wbuf.o)
 .text.__swbuf  0x0000000000000000       0x14 d:/mounriver_studio/toolchain/risc-v embedded gcc12/bin/../lib/gcc/riscv-none-elf/12.2.0/../../../../riscv-none-elf/lib/rv32imac_xw/ilp32\libg_nano.a(lib_a-wbuf.o)
 .text          0x0000000000000000        0x0 d:/mounriver_studio/toolchain/risc-v embedded gcc12/bin/../lib/gcc/riscv-none-elf/12.2.0/../../../../riscv-none-elf/lib/rv32imac_xw/ilp32\libg_nano.a(lib_a-wsetup.o)
 .data          0x0000000000000000        0x0 d:/mounriver_studio/toolchain/risc-v embedded gcc12/bin/../lib/gcc/riscv-none-elf/12.2.0/../../../../riscv-none-elf/lib/rv32imac_xw/ilp32\libg_nano.a(lib_a-wsetup.o)
 .bss           0x0000000000000000        0x0 d:/mounriver_studio/toolchain/risc-v embedded gcc12/bin/../lib/gcc/riscv-none-elf/12.2.0/../../../../riscv-none-elf/lib/rv32imac_xw/ilp32\libg_nano.a(lib_a-wsetup.o)
 .text          0x0000000000000000        0x0 d:/mounriver_studio/toolchain/risc-v embedded gcc12/bin/../lib/gcc/riscv-none-elf/12.2.0/../../../../riscv-none-elf/lib/rv32imac_xw/ilp32\libg_nano.a(lib_a-assert.o)
 .data          0x0000000000000000        0x0 d:/mounriver_studio/toolchain/risc-v embedded gcc12/bin/../lib/gcc/riscv-none-elf/12.2.0/../../../../riscv-none-elf/lib/rv32imac_xw/ilp32\libg_nano.a(lib_a-assert.o)
 .bss           0x0000000000000000        0x0 d:/mounriver_studio/toolchain/risc-v embedded gcc12/bin/../lib/gcc/riscv-none-elf/12.2.0/../../../../riscv-none-elf/lib/rv32imac_xw/ilp32\libg_nano.a(lib_a-assert.o)
 .text.__assert
                0x0000000000000000       0x10 d:/mounriver_studio/toolchain/risc-v embedded gcc12/bin/../lib/gcc/riscv-none-elf/12.2.0/../../../../riscv-none-elf/lib/rv32imac_xw/ilp32\libg_nano.a(lib_a-assert.o)
 .text          0x0000000000000000        0x0 d:/mounriver_studio/toolchain/risc-v embedded gcc12/bin/../lib/gcc/riscv-none-elf/12.2.0/../../../../riscv-none-elf/lib/rv32imac_xw/ilp32\libg_nano.a(lib_a-fflush.o)
 .data          0x0000000000000000        0x0 d:/mounriver_studio/toolchain/risc-v embedded gcc12/bin/../lib/gcc/riscv-none-elf/12.2.0/../../../../riscv-none-elf/lib/rv32imac_xw/ilp32\libg_nano.a(lib_a-fflush.o)
 .bss           0x0000000000000000        0x0 d:/mounriver_studio/toolchain/risc-v embedded gcc12/bin/../lib/gcc/riscv-none-elf/12.2.0/../../../../riscv-none-elf/lib/rv32imac_xw/ilp32\libg_nano.a(lib_a-fflush.o)
 .text.fflush   0x0000000000000000       0x2c d:/mounriver_studio/toolchain/risc-v embedded gcc12/bin/../lib/gcc/riscv-none-elf/12.2.0/../../../../riscv-none-elf/lib/rv32imac_xw/ilp32\libg_nano.a(lib_a-fflush.o)
 .text          0x0000000000000000        0x0 d:/mounriver_studio/toolchain/risc-v embedded gcc12/bin/../lib/gcc/riscv-none-elf/12.2.0/../../../../riscv-none-elf/lib/rv32imac_xw/ilp32\libg_nano.a(lib_a-findfp.o)
 .data          0x0000000000000000        0x0 d:/mounriver_studio/toolchain/risc-v embedded gcc12/bin/../lib/gcc/riscv-none-elf/12.2.0/../../../../riscv-none-elf/lib/rv32imac_xw/ilp32\libg_nano.a(lib_a-findfp.o)
 .bss           0x0000000000000000        0x0 d:/mounriver_studio/toolchain/risc-v embedded gcc12/bin/../lib/gcc/riscv-none-elf/12.2.0/../../../../riscv-none-elf/lib/rv32imac_xw/ilp32\libg_nano.a(lib_a-findfp.o)
 .text.__fp_lock
                0x0000000000000000       0x28 d:/mounriver_studio/toolchain/risc-v embedded gcc12/bin/../lib/gcc/riscv-none-elf/12.2.0/../../../../riscv-none-elf/lib/rv32imac_xw/ilp32\libg_nano.a(lib_a-findfp.o)
 .text.__fp_unlock
                0x0000000000000000       0x28 d:/mounriver_studio/toolchain/risc-v embedded gcc12/bin/../lib/gcc/riscv-none-elf/12.2.0/../../../../riscv-none-elf/lib/rv32imac_xw/ilp32\libg_nano.a(lib_a-findfp.o)
 .text._cleanup
                0x0000000000000000       0x10 d:/mounriver_studio/toolchain/risc-v embedded gcc12/bin/../lib/gcc/riscv-none-elf/12.2.0/../../../../riscv-none-elf/lib/rv32imac_xw/ilp32\libg_nano.a(lib_a-findfp.o)
 .text.__fp_lock_all
                0x0000000000000000       0x28 d:/mounriver_studio/toolchain/risc-v embedded gcc12/bin/../lib/gcc/riscv-none-elf/12.2.0/../../../../riscv-none-elf/lib/rv32imac_xw/ilp32\libg_nano.a(lib_a-findfp.o)
 .text.__fp_unlock_all
                0x0000000000000000       0x28 d:/mounriver_studio/toolchain/risc-v embedded gcc12/bin/../lib/gcc/riscv-none-elf/12.2.0/../../../../riscv-none-elf/lib/rv32imac_xw/ilp32\libg_nano.a(lib_a-findfp.o)
 .text          0x0000000000000000        0x0 d:/mounriver_studio/toolchain/risc-v embedded gcc12/bin/../lib/gcc/riscv-none-elf/12.2.0/../../../../riscv-none-elf/lib/rv32imac_xw/ilp32\libg_nano.a(lib_a-fprintf.o)
 .data          0x0000000000000000        0x0 d:/mounriver_studio/toolchain/risc-v embedded gcc12/bin/../lib/gcc/riscv-none-elf/12.2.0/../../../../riscv-none-elf/lib/rv32imac_xw/ilp32\libg_nano.a(lib_a-fprintf.o)
 .bss           0x0000000000000000        0x0 d:/mounriver_studio/toolchain/risc-v embedded gcc12/bin/../lib/gcc/riscv-none-elf/12.2.0/../../../../riscv-none-elf/lib/rv32imac_xw/ilp32\libg_nano.a(lib_a-fprintf.o)
 .text._fprintf_r
                0x0000000000000000       0x20 d:/mounriver_studio/toolchain/risc-v embedded gcc12/bin/../lib/gcc/riscv-none-elf/12.2.0/../../../../riscv-none-elf/lib/rv32imac_xw/ilp32\libg_nano.a(lib_a-fprintf.o)
 .text          0x0000000000000000        0x0 d:/mounriver_studio/toolchain/risc-v embedded gcc12/bin/../lib/gcc/riscv-none-elf/12.2.0/../../../../riscv-none-elf/lib/rv32imac_xw/ilp32\libg_nano.a(lib_a-fwalk.o)
 .data          0x0000000000000000        0x0 d:/mounriver_studio/toolchain/risc-v embedded gcc12/bin/../lib/gcc/riscv-none-elf/12.2.0/../../../../riscv-none-elf/lib/rv32imac_xw/ilp32\libg_nano.a(lib_a-fwalk.o)
 .bss           0x0000000000000000        0x0 d:/mounriver_studio/toolchain/risc-v embedded gcc12/bin/../lib/gcc/riscv-none-elf/12.2.0/../../../../riscv-none-elf/lib/rv32imac_xw/ilp32\libg_nano.a(lib_a-fwalk.o)
 .text._fwalk   0x0000000000000000       0x60 d:/mounriver_studio/toolchain/risc-v embedded gcc12/bin/../lib/gcc/riscv-none-elf/12.2.0/../../../../riscv-none-elf/lib/rv32imac_xw/ilp32\libg_nano.a(lib_a-fwalk.o)
 .text          0x0000000000000000        0x0 d:/mounriver_studio/toolchain/risc-v embedded gcc12/bin/../lib/gcc/riscv-none-elf/12.2.0/../../../../riscv-none-elf/lib/rv32imac_xw/ilp32\libg_nano.a(lib_a-impure.o)
 .data          0x0000000000000000        0x0 d:/mounriver_studio/toolchain/risc-v embedded gcc12/bin/../lib/gcc/riscv-none-elf/12.2.0/../../../../riscv-none-elf/lib/rv32imac_xw/ilp32\libg_nano.a(lib_a-impure.o)
 .bss           0x0000000000000000        0x0 d:/mounriver_studio/toolchain/risc-v embedded gcc12/bin/../lib/gcc/riscv-none-elf/12.2.0/../../../../riscv-none-elf/lib/rv32imac_xw/ilp32\libg_nano.a(lib_a-impure.o)
 .text          0x0000000000000000        0x0 d:/mounriver_studio/toolchain/risc-v embedded gcc12/bin/../lib/gcc/riscv-none-elf/12.2.0/../../../../riscv-none-elf/lib/rv32imac_xw/ilp32\libg_nano.a(lib_a-lock.o)
 .data          0x0000000000000000        0x0 d:/mounriver_studio/toolchain/risc-v embedded gcc12/bin/../lib/gcc/riscv-none-elf/12.2.0/../../../../riscv-none-elf/lib/rv32imac_xw/ilp32\libg_nano.a(lib_a-lock.o)
 .bss           0x0000000000000000        0x0 d:/mounriver_studio/toolchain/risc-v embedded gcc12/bin/../lib/gcc/riscv-none-elf/12.2.0/../../../../riscv-none-elf/lib/rv32imac_xw/ilp32\libg_nano.a(lib_a-lock.o)
 .text.__retarget_lock_init
                0x0000000000000000        0x2 d:/mounriver_studio/toolchain/risc-v embedded gcc12/bin/../lib/gcc/riscv-none-elf/12.2.0/../../../../riscv-none-elf/lib/rv32imac_xw/ilp32\libg_nano.a(lib_a-lock.o)
 .text.__retarget_lock_close
                0x0000000000000000        0x2 d:/mounriver_studio/toolchain/risc-v embedded gcc12/bin/../lib/gcc/riscv-none-elf/12.2.0/../../../../riscv-none-elf/lib/rv32imac_xw/ilp32\libg_nano.a(lib_a-lock.o)
 .text.__retarget_lock_close_recursive
                0x0000000000000000        0x2 d:/mounriver_studio/toolchain/risc-v embedded gcc12/bin/../lib/gcc/riscv-none-elf/12.2.0/../../../../riscv-none-elf/lib/rv32imac_xw/ilp32\libg_nano.a(lib_a-lock.o)
 .text.__retarget_lock_acquire
                0x0000000000000000        0x2 d:/mounriver_studio/toolchain/risc-v embedded gcc12/bin/../lib/gcc/riscv-none-elf/12.2.0/../../../../riscv-none-elf/lib/rv32imac_xw/ilp32\libg_nano.a(lib_a-lock.o)
 .text.__retarget_lock_try_acquire
                0x0000000000000000        0x4 d:/mounriver_studio/toolchain/risc-v embedded gcc12/bin/../lib/gcc/riscv-none-elf/12.2.0/../../../../riscv-none-elf/lib/rv32imac_xw/ilp32\libg_nano.a(lib_a-lock.o)
 .text.__retarget_lock_try_acquire_recursive
                0x0000000000000000        0x4 d:/mounriver_studio/toolchain/risc-v embedded gcc12/bin/../lib/gcc/riscv-none-elf/12.2.0/../../../../riscv-none-elf/lib/rv32imac_xw/ilp32\libg_nano.a(lib_a-lock.o)
 .text.__retarget_lock_release
                0x0000000000000000        0x2 d:/mounriver_studio/toolchain/risc-v embedded gcc12/bin/../lib/gcc/riscv-none-elf/12.2.0/../../../../riscv-none-elf/lib/rv32imac_xw/ilp32\libg_nano.a(lib_a-lock.o)
 .sbss.__lock___arc4random_mutex
                0x0000000000000000        0x1 d:/mounriver_studio/toolchain/risc-v embedded gcc12/bin/../lib/gcc/riscv-none-elf/12.2.0/../../../../riscv-none-elf/lib/rv32imac_xw/ilp32\libg_nano.a(lib_a-lock.o)
 .sbss.__lock___dd_hash_mutex
                0x0000000000000000        0x1 d:/mounriver_studio/toolchain/risc-v embedded gcc12/bin/../lib/gcc/riscv-none-elf/12.2.0/../../../../riscv-none-elf/lib/rv32imac_xw/ilp32\libg_nano.a(lib_a-lock.o)
 .sbss.__lock___tz_mutex
                0x0000000000000000        0x1 d:/mounriver_studio/toolchain/risc-v embedded gcc12/bin/../lib/gcc/riscv-none-elf/12.2.0/../../../../riscv-none-elf/lib/rv32imac_xw/ilp32\libg_nano.a(lib_a-lock.o)
 .sbss.__lock___env_recursive_mutex
                0x0000000000000000        0x1 d:/mounriver_studio/toolchain/risc-v embedded gcc12/bin/../lib/gcc/riscv-none-elf/12.2.0/../../../../riscv-none-elf/lib/rv32imac_xw/ilp32\libg_nano.a(lib_a-lock.o)
 .sbss.__lock___at_quick_exit_mutex
                0x0000000000000000        0x1 d:/mounriver_studio/toolchain/risc-v embedded gcc12/bin/../lib/gcc/riscv-none-elf/12.2.0/../../../../riscv-none-elf/lib/rv32imac_xw/ilp32\libg_nano.a(lib_a-lock.o)
 .sbss.__lock___atexit_recursive_mutex
                0x0000000000000000        0x1 d:/mounriver_studio/toolchain/risc-v embedded gcc12/bin/../lib/gcc/riscv-none-elf/12.2.0/../../../../riscv-none-elf/lib/rv32imac_xw/ilp32\libg_nano.a(lib_a-lock.o)
 .text          0x0000000000000000        0x0 d:/mounriver_studio/toolchain/risc-v embedded gcc12/bin/../lib/gcc/riscv-none-elf/12.2.0/../../../../riscv-none-elf/lib/rv32imac_xw/ilp32\libg_nano.a(lib_a-makebuf.o)
 .data          0x0000000000000000        0x0 d:/mounriver_studio/toolchain/risc-v embedded gcc12/bin/../lib/gcc/riscv-none-elf/12.2.0/../../../../riscv-none-elf/lib/rv32imac_xw/ilp32\libg_nano.a(lib_a-makebuf.o)
 .bss           0x0000000000000000        0x0 d:/mounriver_studio/toolchain/risc-v embedded gcc12/bin/../lib/gcc/riscv-none-elf/12.2.0/../../../../riscv-none-elf/lib/rv32imac_xw/ilp32\libg_nano.a(lib_a-makebuf.o)
 .text          0x0000000000000000        0x0 d:/mounriver_studio/toolchain/risc-v embedded gcc12/bin/../lib/gcc/riscv-none-elf/12.2.0/../../../../riscv-none-elf/lib/rv32imac_xw/ilp32\libg_nano.a(lib_a-malloc.o)
 .data          0x0000000000000000        0x0 d:/mounriver_studio/toolchain/risc-v embedded gcc12/bin/../lib/gcc/riscv-none-elf/12.2.0/../../../../riscv-none-elf/lib/rv32imac_xw/ilp32\libg_nano.a(lib_a-malloc.o)
 .bss           0x0000000000000000        0x0 d:/mounriver_studio/toolchain/risc-v embedded gcc12/bin/../lib/gcc/riscv-none-elf/12.2.0/../../../../riscv-none-elf/lib/rv32imac_xw/ilp32\libg_nano.a(lib_a-malloc.o)
 .text.free     0x0000000000000000       0x12 d:/mounriver_studio/toolchain/risc-v embedded gcc12/bin/../lib/gcc/riscv-none-elf/12.2.0/../../../../riscv-none-elf/lib/rv32imac_xw/ilp32\libg_nano.a(lib_a-malloc.o)
 .text          0x0000000000000000        0x0 d:/mounriver_studio/toolchain/risc-v embedded gcc12/bin/../lib/gcc/riscv-none-elf/12.2.0/../../../../riscv-none-elf/lib/rv32imac_xw/ilp32\libg_nano.a(lib_a-nano-freer.o)
 .data          0x0000000000000000        0x0 d:/mounriver_studio/toolchain/risc-v embedded gcc12/bin/../lib/gcc/riscv-none-elf/12.2.0/../../../../riscv-none-elf/lib/rv32imac_xw/ilp32\libg_nano.a(lib_a-nano-freer.o)
 .bss           0x0000000000000000        0x0 d:/mounriver_studio/toolchain/risc-v embedded gcc12/bin/../lib/gcc/riscv-none-elf/12.2.0/../../../../riscv-none-elf/lib/rv32imac_xw/ilp32\libg_nano.a(lib_a-nano-freer.o)
 .text          0x0000000000000000        0x0 d:/mounriver_studio/toolchain/risc-v embedded gcc12/bin/../lib/gcc/riscv-none-elf/12.2.0/../../../../riscv-none-elf/lib/rv32imac_xw/ilp32\libg_nano.a(lib_a-nano-mallocr.o)
 .data          0x0000000000000000        0x0 d:/mounriver_studio/toolchain/risc-v embedded gcc12/bin/../lib/gcc/riscv-none-elf/12.2.0/../../../../riscv-none-elf/lib/rv32imac_xw/ilp32\libg_nano.a(lib_a-nano-mallocr.o)
 .bss           0x0000000000000000        0x0 d:/mounriver_studio/toolchain/risc-v embedded gcc12/bin/../lib/gcc/riscv-none-elf/12.2.0/../../../../riscv-none-elf/lib/rv32imac_xw/ilp32\libg_nano.a(lib_a-nano-mallocr.o)
 .text          0x0000000000000000        0x0 d:/mounriver_studio/toolchain/risc-v embedded gcc12/bin/../lib/gcc/riscv-none-elf/12.2.0/../../../../riscv-none-elf/lib/rv32imac_xw/ilp32\libg_nano.a(lib_a-nano-vfprintf.o)
 .data          0x0000000000000000        0x0 d:/mounriver_studio/toolchain/risc-v embedded gcc12/bin/../lib/gcc/riscv-none-elf/12.2.0/../../../../riscv-none-elf/lib/rv32imac_xw/ilp32\libg_nano.a(lib_a-nano-vfprintf.o)
 .bss           0x0000000000000000        0x0 d:/mounriver_studio/toolchain/risc-v embedded gcc12/bin/../lib/gcc/riscv-none-elf/12.2.0/../../../../riscv-none-elf/lib/rv32imac_xw/ilp32\libg_nano.a(lib_a-nano-vfprintf.o)
 .text.__sprint_r
                0x0000000000000000       0x28 d:/mounriver_studio/toolchain/risc-v embedded gcc12/bin/../lib/gcc/riscv-none-elf/12.2.0/../../../../riscv-none-elf/lib/rv32imac_xw/ilp32\libg_nano.a(lib_a-nano-vfprintf.o)
 .text.vfprintf
                0x0000000000000000       0x16 d:/mounriver_studio/toolchain/risc-v embedded gcc12/bin/../lib/gcc/riscv-none-elf/12.2.0/../../../../riscv-none-elf/lib/rv32imac_xw/ilp32\libg_nano.a(lib_a-nano-vfprintf.o)
 .text          0x0000000000000000        0x0 d:/mounriver_studio/toolchain/risc-v embedded gcc12/bin/../lib/gcc/riscv-none-elf/12.2.0/../../../../riscv-none-elf/lib/rv32imac_xw/ilp32\libg_nano.a(lib_a-sbrkr.o)
 .data          0x0000000000000000        0x0 d:/mounriver_studio/toolchain/risc-v embedded gcc12/bin/../lib/gcc/riscv-none-elf/12.2.0/../../../../riscv-none-elf/lib/rv32imac_xw/ilp32\libg_nano.a(lib_a-sbrkr.o)
 .bss           0x0000000000000000        0x0 d:/mounriver_studio/toolchain/risc-v embedded gcc12/bin/../lib/gcc/riscv-none-elf/12.2.0/../../../../riscv-none-elf/lib/rv32imac_xw/ilp32\libg_nano.a(lib_a-sbrkr.o)
 .text          0x0000000000000000        0x0 d:/mounriver_studio/toolchain/risc-v embedded gcc12/bin/../lib/gcc/riscv-none-elf/12.2.0/../../../../riscv-none-elf/lib/rv32imac_xw/ilp32\libg_nano.a(lib_a-stdio.o)
 .data          0x0000000000000000        0x0 d:/mounriver_studio/toolchain/risc-v embedded gcc12/bin/../lib/gcc/riscv-none-elf/12.2.0/../../../../riscv-none-elf/lib/rv32imac_xw/ilp32\libg_nano.a(lib_a-stdio.o)
 .bss           0x0000000000000000        0x0 d:/mounriver_studio/toolchain/risc-v embedded gcc12/bin/../lib/gcc/riscv-none-elf/12.2.0/../../../../riscv-none-elf/lib/rv32imac_xw/ilp32\libg_nano.a(lib_a-stdio.o)
 .text.__seofread
                0x0000000000000000        0x4 d:/mounriver_studio/toolchain/risc-v embedded gcc12/bin/../lib/gcc/riscv-none-elf/12.2.0/../../../../riscv-none-elf/lib/rv32imac_xw/ilp32\libg_nano.a(lib_a-stdio.o)
 .text          0x0000000000000000        0x0 d:/mounriver_studio/toolchain/risc-v embedded gcc12/bin/../lib/gcc/riscv-none-elf/12.2.0/../../../../riscv-none-elf/lib/rv32imac_xw/ilp32\libg_nano.a(lib_a-writer.o)
 .data          0x0000000000000000        0x0 d:/mounriver_studio/toolchain/risc-v embedded gcc12/bin/../lib/gcc/riscv-none-elf/12.2.0/../../../../riscv-none-elf/lib/rv32imac_xw/ilp32\libg_nano.a(lib_a-writer.o)
 .bss           0x0000000000000000        0x0 d:/mounriver_studio/toolchain/risc-v embedded gcc12/bin/../lib/gcc/riscv-none-elf/12.2.0/../../../../riscv-none-elf/lib/rv32imac_xw/ilp32\libg_nano.a(lib_a-writer.o)
 .text          0x0000000000000000        0x0 d:/mounriver_studio/toolchain/risc-v embedded gcc12/bin/../lib/gcc/riscv-none-elf/12.2.0/../../../../riscv-none-elf/lib/rv32imac_xw/ilp32\libg_nano.a(lib_a-abort.o)
 .data          0x0000000000000000        0x0 d:/mounriver_studio/toolchain/risc-v embedded gcc12/bin/../lib/gcc/riscv-none-elf/12.2.0/../../../../riscv-none-elf/lib/rv32imac_xw/ilp32\libg_nano.a(lib_a-abort.o)
 .bss           0x0000000000000000        0x0 d:/mounriver_studio/toolchain/risc-v embedded gcc12/bin/../lib/gcc/riscv-none-elf/12.2.0/../../../../riscv-none-elf/lib/rv32imac_xw/ilp32\libg_nano.a(lib_a-abort.o)
 .text          0x0000000000000000        0x0 d:/mounriver_studio/toolchain/risc-v embedded gcc12/bin/../lib/gcc/riscv-none-elf/12.2.0/../../../../riscv-none-elf/lib/rv32imac_xw/ilp32\libg_nano.a(lib_a-closer.o)
 .data          0x0000000000000000        0x0 d:/mounriver_studio/toolchain/risc-v embedded gcc12/bin/../lib/gcc/riscv-none-elf/12.2.0/../../../../riscv-none-elf/lib/rv32imac_xw/ilp32\libg_nano.a(lib_a-closer.o)
 .bss           0x0000000000000000        0x0 d:/mounriver_studio/toolchain/risc-v embedded gcc12/bin/../lib/gcc/riscv-none-elf/12.2.0/../../../../riscv-none-elf/lib/rv32imac_xw/ilp32\libg_nano.a(lib_a-closer.o)
 .text          0x0000000000000000        0x0 d:/mounriver_studio/toolchain/risc-v embedded gcc12/bin/../lib/gcc/riscv-none-elf/12.2.0/../../../../riscv-none-elf/lib/rv32imac_xw/ilp32\libg_nano.a(lib_a-fstatr.o)
 .data          0x0000000000000000        0x0 d:/mounriver_studio/toolchain/risc-v embedded gcc12/bin/../lib/gcc/riscv-none-elf/12.2.0/../../../../riscv-none-elf/lib/rv32imac_xw/ilp32\libg_nano.a(lib_a-fstatr.o)
 .bss           0x0000000000000000        0x0 d:/mounriver_studio/toolchain/risc-v embedded gcc12/bin/../lib/gcc/riscv-none-elf/12.2.0/../../../../riscv-none-elf/lib/rv32imac_xw/ilp32\libg_nano.a(lib_a-fstatr.o)
 .text          0x0000000000000000        0x0 d:/mounriver_studio/toolchain/risc-v embedded gcc12/bin/../lib/gcc/riscv-none-elf/12.2.0/../../../../riscv-none-elf/lib/rv32imac_xw/ilp32\libg_nano.a(lib_a-fvwrite.o)
 .data          0x0000000000000000        0x0 d:/mounriver_studio/toolchain/risc-v embedded gcc12/bin/../lib/gcc/riscv-none-elf/12.2.0/../../../../riscv-none-elf/lib/rv32imac_xw/ilp32\libg_nano.a(lib_a-fvwrite.o)
 .bss           0x0000000000000000        0x0 d:/mounriver_studio/toolchain/risc-v embedded gcc12/bin/../lib/gcc/riscv-none-elf/12.2.0/../../../../riscv-none-elf/lib/rv32imac_xw/ilp32\libg_nano.a(lib_a-fvwrite.o)
 .text.__sfvwrite_r
                0x0000000000000000      0x2f8 d:/mounriver_studio/toolchain/risc-v embedded gcc12/bin/../lib/gcc/riscv-none-elf/12.2.0/../../../../riscv-none-elf/lib/rv32imac_xw/ilp32\libg_nano.a(lib_a-fvwrite.o)
 .comment       0x0000000000000000       0x32 d:/mounriver_studio/toolchain/risc-v embedded gcc12/bin/../lib/gcc/riscv-none-elf/12.2.0/../../../../riscv-none-elf/lib/rv32imac_xw/ilp32\libg_nano.a(lib_a-fvwrite.o)
 .riscv.attributes
                0x0000000000000000       0x31 d:/mounriver_studio/toolchain/risc-v embedded gcc12/bin/../lib/gcc/riscv-none-elf/12.2.0/../../../../riscv-none-elf/lib/rv32imac_xw/ilp32\libg_nano.a(lib_a-fvwrite.o)
 .text          0x0000000000000000        0x0 d:/mounriver_studio/toolchain/risc-v embedded gcc12/bin/../lib/gcc/riscv-none-elf/12.2.0/../../../../riscv-none-elf/lib/rv32imac_xw/ilp32\libg_nano.a(lib_a-isattyr.o)
 .data          0x0000000000000000        0x0 d:/mounriver_studio/toolchain/risc-v embedded gcc12/bin/../lib/gcc/riscv-none-elf/12.2.0/../../../../riscv-none-elf/lib/rv32imac_xw/ilp32\libg_nano.a(lib_a-isattyr.o)
 .bss           0x0000000000000000        0x0 d:/mounriver_studio/toolchain/risc-v embedded gcc12/bin/../lib/gcc/riscv-none-elf/12.2.0/../../../../riscv-none-elf/lib/rv32imac_xw/ilp32\libg_nano.a(lib_a-isattyr.o)
 .text          0x0000000000000000        0x0 d:/mounriver_studio/toolchain/risc-v embedded gcc12/bin/../lib/gcc/riscv-none-elf/12.2.0/../../../../riscv-none-elf/lib/rv32imac_xw/ilp32\libg_nano.a(lib_a-lseekr.o)
 .data          0x0000000000000000        0x0 d:/mounriver_studio/toolchain/risc-v embedded gcc12/bin/../lib/gcc/riscv-none-elf/12.2.0/../../../../riscv-none-elf/lib/rv32imac_xw/ilp32\libg_nano.a(lib_a-lseekr.o)
 .bss           0x0000000000000000        0x0 d:/mounriver_studio/toolchain/risc-v embedded gcc12/bin/../lib/gcc/riscv-none-elf/12.2.0/../../../../riscv-none-elf/lib/rv32imac_xw/ilp32\libg_nano.a(lib_a-lseekr.o)
 .text          0x0000000000000000        0x0 d:/mounriver_studio/toolchain/risc-v embedded gcc12/bin/../lib/gcc/riscv-none-elf/12.2.0/../../../../riscv-none-elf/lib/rv32imac_xw/ilp32\libg_nano.a(lib_a-memchr.o)
 .data          0x0000000000000000        0x0 d:/mounriver_studio/toolchain/risc-v embedded gcc12/bin/../lib/gcc/riscv-none-elf/12.2.0/../../../../riscv-none-elf/lib/rv32imac_xw/ilp32\libg_nano.a(lib_a-memchr.o)
 .bss           0x0000000000000000        0x0 d:/mounriver_studio/toolchain/risc-v embedded gcc12/bin/../lib/gcc/riscv-none-elf/12.2.0/../../../../riscv-none-elf/lib/rv32imac_xw/ilp32\libg_nano.a(lib_a-memchr.o)
 .text          0x0000000000000000       0x16 d:/mounriver_studio/toolchain/risc-v embedded gcc12/bin/../lib/gcc/riscv-none-elf/12.2.0/../../../../riscv-none-elf/lib/rv32imac_xw/ilp32\libg_nano.a(lib_a-memcpy-asm.o)
 .data          0x0000000000000000        0x0 d:/mounriver_studio/toolchain/risc-v embedded gcc12/bin/../lib/gcc/riscv-none-elf/12.2.0/../../../../riscv-none-elf/lib/rv32imac_xw/ilp32\libg_nano.a(lib_a-memcpy-asm.o)
 .bss           0x0000000000000000        0x0 d:/mounriver_studio/toolchain/risc-v embedded gcc12/bin/../lib/gcc/riscv-none-elf/12.2.0/../../../../riscv-none-elf/lib/rv32imac_xw/ilp32\libg_nano.a(lib_a-memcpy-asm.o)
 .riscv.attributes
                0x0000000000000000       0x2f d:/mounriver_studio/toolchain/risc-v embedded gcc12/bin/../lib/gcc/riscv-none-elf/12.2.0/../../../../riscv-none-elf/lib/rv32imac_xw/ilp32\libg_nano.a(lib_a-memcpy-asm.o)
 .text          0x0000000000000000       0x26 d:/mounriver_studio/toolchain/risc-v embedded gcc12/bin/../lib/gcc/riscv-none-elf/12.2.0/../../../../riscv-none-elf/lib/rv32imac_xw/ilp32\libg_nano.a(lib_a-memmove.o)
 .data          0x0000000000000000        0x0 d:/mounriver_studio/toolchain/risc-v embedded gcc12/bin/../lib/gcc/riscv-none-elf/12.2.0/../../../../riscv-none-elf/lib/rv32imac_xw/ilp32\libg_nano.a(lib_a-memmove.o)
 .bss           0x0000000000000000        0x0 d:/mounriver_studio/toolchain/risc-v embedded gcc12/bin/../lib/gcc/riscv-none-elf/12.2.0/../../../../riscv-none-elf/lib/rv32imac_xw/ilp32\libg_nano.a(lib_a-memmove.o)
 .riscv.attributes
                0x0000000000000000       0x2f d:/mounriver_studio/toolchain/risc-v embedded gcc12/bin/../lib/gcc/riscv-none-elf/12.2.0/../../../../riscv-none-elf/lib/rv32imac_xw/ilp32\libg_nano.a(lib_a-memmove.o)
 .text          0x0000000000000000        0x0 d:/mounriver_studio/toolchain/risc-v embedded gcc12/bin/../lib/gcc/riscv-none-elf/12.2.0/../../../../riscv-none-elf/lib/rv32imac_xw/ilp32\libg_nano.a(lib_a-mlock.o)
 .data          0x0000000000000000        0x0 d:/mounriver_studio/toolchain/risc-v embedded gcc12/bin/../lib/gcc/riscv-none-elf/12.2.0/../../../../riscv-none-elf/lib/rv32imac_xw/ilp32\libg_nano.a(lib_a-mlock.o)
 .bss           0x0000000000000000        0x0 d:/mounriver_studio/toolchain/risc-v embedded gcc12/bin/../lib/gcc/riscv-none-elf/12.2.0/../../../../riscv-none-elf/lib/rv32imac_xw/ilp32\libg_nano.a(lib_a-mlock.o)
 .text          0x0000000000000000        0x0 d:/mounriver_studio/toolchain/risc-v embedded gcc12/bin/../lib/gcc/riscv-none-elf/12.2.0/../../../../riscv-none-elf/lib/rv32imac_xw/ilp32\libg_nano.a(lib_a-nano-reallocr.o)
 .data          0x0000000000000000        0x0 d:/mounriver_studio/toolchain/risc-v embedded gcc12/bin/../lib/gcc/riscv-none-elf/12.2.0/../../../../riscv-none-elf/lib/rv32imac_xw/ilp32\libg_nano.a(lib_a-nano-reallocr.o)
 .bss           0x0000000000000000        0x0 d:/mounriver_studio/toolchain/risc-v embedded gcc12/bin/../lib/gcc/riscv-none-elf/12.2.0/../../../../riscv-none-elf/lib/rv32imac_xw/ilp32\libg_nano.a(lib_a-nano-reallocr.o)
 .text._realloc_r
                0x0000000000000000       0x96 d:/mounriver_studio/toolchain/risc-v embedded gcc12/bin/../lib/gcc/riscv-none-elf/12.2.0/../../../../riscv-none-elf/lib/rv32imac_xw/ilp32\libg_nano.a(lib_a-nano-reallocr.o)
 .comment       0x0000000000000000       0x32 d:/mounriver_studio/toolchain/risc-v embedded gcc12/bin/../lib/gcc/riscv-none-elf/12.2.0/../../../../riscv-none-elf/lib/rv32imac_xw/ilp32\libg_nano.a(lib_a-nano-reallocr.o)
 .riscv.attributes
                0x0000000000000000       0x31 d:/mounriver_studio/toolchain/risc-v embedded gcc12/bin/../lib/gcc/riscv-none-elf/12.2.0/../../../../riscv-none-elf/lib/rv32imac_xw/ilp32\libg_nano.a(lib_a-nano-reallocr.o)
 .text          0x0000000000000000        0x0 d:/mounriver_studio/toolchain/risc-v embedded gcc12/bin/../lib/gcc/riscv-none-elf/12.2.0/../../../../riscv-none-elf/lib/rv32imac_xw/ilp32\libg_nano.a(lib_a-nano-vfprintf_i.o)
 .data          0x0000000000000000        0x0 d:/mounriver_studio/toolchain/risc-v embedded gcc12/bin/../lib/gcc/riscv-none-elf/12.2.0/../../../../riscv-none-elf/lib/rv32imac_xw/ilp32\libg_nano.a(lib_a-nano-vfprintf_i.o)
 .bss           0x0000000000000000        0x0 d:/mounriver_studio/toolchain/risc-v embedded gcc12/bin/../lib/gcc/riscv-none-elf/12.2.0/../../../../riscv-none-elf/lib/rv32imac_xw/ilp32\libg_nano.a(lib_a-nano-vfprintf_i.o)
 .text          0x0000000000000000        0x0 d:/mounriver_studio/toolchain/risc-v embedded gcc12/bin/../lib/gcc/riscv-none-elf/12.2.0/../../../../riscv-none-elf/lib/rv32imac_xw/ilp32\libg_nano.a(lib_a-readr.o)
 .data          0x0000000000000000        0x0 d:/mounriver_studio/toolchain/risc-v embedded gcc12/bin/../lib/gcc/riscv-none-elf/12.2.0/../../../../riscv-none-elf/lib/rv32imac_xw/ilp32\libg_nano.a(lib_a-readr.o)
 .bss           0x0000000000000000        0x0 d:/mounriver_studio/toolchain/risc-v embedded gcc12/bin/../lib/gcc/riscv-none-elf/12.2.0/../../../../riscv-none-elf/lib/rv32imac_xw/ilp32\libg_nano.a(lib_a-readr.o)
 .text          0x0000000000000000        0x0 d:/mounriver_studio/toolchain/risc-v embedded gcc12/bin/../lib/gcc/riscv-none-elf/12.2.0/../../../../riscv-none-elf/lib/rv32imac_xw/ilp32\libg_nano.a(lib_a-reent.o)
 .data          0x0000000000000000        0x0 d:/mounriver_studio/toolchain/risc-v embedded gcc12/bin/../lib/gcc/riscv-none-elf/12.2.0/../../../../riscv-none-elf/lib/rv32imac_xw/ilp32\libg_nano.a(lib_a-reent.o)
 .bss           0x0000000000000000        0x0 d:/mounriver_studio/toolchain/risc-v embedded gcc12/bin/../lib/gcc/riscv-none-elf/12.2.0/../../../../riscv-none-elf/lib/rv32imac_xw/ilp32\libg_nano.a(lib_a-reent.o)
 .text.cleanup_glue
                0x0000000000000000       0x2c d:/mounriver_studio/toolchain/risc-v embedded gcc12/bin/../lib/gcc/riscv-none-elf/12.2.0/../../../../riscv-none-elf/lib/rv32imac_xw/ilp32\libg_nano.a(lib_a-reent.o)
 .text._reclaim_reent
                0x0000000000000000      0x10c d:/mounriver_studio/toolchain/risc-v embedded gcc12/bin/../lib/gcc/riscv-none-elf/12.2.0/../../../../riscv-none-elf/lib/rv32imac_xw/ilp32\libg_nano.a(lib_a-reent.o)
 .text          0x0000000000000000        0x0 d:/mounriver_studio/toolchain/risc-v embedded gcc12/bin/../lib/gcc/riscv-none-elf/12.2.0/../../../../riscv-none-elf/lib/rv32imac_xw/ilp32\libg_nano.a(lib_a-signal.o)
 .data          0x0000000000000000        0x0 d:/mounriver_studio/toolchain/risc-v embedded gcc12/bin/../lib/gcc/riscv-none-elf/12.2.0/../../../../riscv-none-elf/lib/rv32imac_xw/ilp32\libg_nano.a(lib_a-signal.o)
 .bss           0x0000000000000000        0x0 d:/mounriver_studio/toolchain/risc-v embedded gcc12/bin/../lib/gcc/riscv-none-elf/12.2.0/../../../../riscv-none-elf/lib/rv32imac_xw/ilp32\libg_nano.a(lib_a-signal.o)
 .text._init_signal_r
                0x0000000000000000       0x3e d:/mounriver_studio/toolchain/risc-v embedded gcc12/bin/../lib/gcc/riscv-none-elf/12.2.0/../../../../riscv-none-elf/lib/rv32imac_xw/ilp32\libg_nano.a(lib_a-signal.o)
 .text._signal_r
                0x0000000000000000       0x46 d:/mounriver_studio/toolchain/risc-v embedded gcc12/bin/../lib/gcc/riscv-none-elf/12.2.0/../../../../riscv-none-elf/lib/rv32imac_xw/ilp32\libg_nano.a(lib_a-signal.o)
 .text.__sigtramp_r
                0x0000000000000000       0x5a d:/mounriver_studio/toolchain/risc-v embedded gcc12/bin/../lib/gcc/riscv-none-elf/12.2.0/../../../../riscv-none-elf/lib/rv32imac_xw/ilp32\libg_nano.a(lib_a-signal.o)
 .text.signal   0x0000000000000000       0x14 d:/mounriver_studio/toolchain/risc-v embedded gcc12/bin/../lib/gcc/riscv-none-elf/12.2.0/../../../../riscv-none-elf/lib/rv32imac_xw/ilp32\libg_nano.a(lib_a-signal.o)
 .text._init_signal
                0x0000000000000000       0x10 d:/mounriver_studio/toolchain/risc-v embedded gcc12/bin/../lib/gcc/riscv-none-elf/12.2.0/../../../../riscv-none-elf/lib/rv32imac_xw/ilp32\libg_nano.a(lib_a-signal.o)
 .text.__sigtramp
                0x0000000000000000       0x12 d:/mounriver_studio/toolchain/risc-v embedded gcc12/bin/../lib/gcc/riscv-none-elf/12.2.0/../../../../riscv-none-elf/lib/rv32imac_xw/ilp32\libg_nano.a(lib_a-signal.o)
 .text          0x0000000000000000        0x0 d:/mounriver_studio/toolchain/risc-v embedded gcc12/bin/../lib/gcc/riscv-none-elf/12.2.0/../../../../riscv-none-elf/lib/rv32imac_xw/ilp32\libg_nano.a(lib_a-signalr.o)
 .data          0x0000000000000000        0x0 d:/mounriver_studio/toolchain/risc-v embedded gcc12/bin/../lib/gcc/riscv-none-elf/12.2.0/../../../../riscv-none-elf/lib/rv32imac_xw/ilp32\libg_nano.a(lib_a-signalr.o)
 .bss           0x0000000000000000        0x0 d:/mounriver_studio/toolchain/risc-v embedded gcc12/bin/../lib/gcc/riscv-none-elf/12.2.0/../../../../riscv-none-elf/lib/rv32imac_xw/ilp32\libg_nano.a(lib_a-signalr.o)
 .text          0x0000000000000000        0x0 d:/mounriver_studio/toolchain/risc-v embedded gcc12/bin/../lib/gcc/riscv-none-elf/12.2.0/../../../../riscv-none-elf/lib/rv32imac_xw/ilp32\libg_nano.a(lib_a-nano-msizer.o)
 .data          0x0000000000000000        0x0 d:/mounriver_studio/toolchain/risc-v embedded gcc12/bin/../lib/gcc/riscv-none-elf/12.2.0/../../../../riscv-none-elf/lib/rv32imac_xw/ilp32\libg_nano.a(lib_a-nano-msizer.o)
 .bss           0x0000000000000000        0x0 d:/mounriver_studio/toolchain/risc-v embedded gcc12/bin/../lib/gcc/riscv-none-elf/12.2.0/../../../../riscv-none-elf/lib/rv32imac_xw/ilp32\libg_nano.a(lib_a-nano-msizer.o)
 .text._malloc_usable_size_r
                0x0000000000000000       0x14 d:/mounriver_studio/toolchain/risc-v embedded gcc12/bin/../lib/gcc/riscv-none-elf/12.2.0/../../../../riscv-none-elf/lib/rv32imac_xw/ilp32\libg_nano.a(lib_a-nano-msizer.o)
 .comment       0x0000000000000000       0x32 d:/mounriver_studio/toolchain/risc-v embedded gcc12/bin/../lib/gcc/riscv-none-elf/12.2.0/../../../../riscv-none-elf/lib/rv32imac_xw/ilp32\libg_nano.a(lib_a-nano-msizer.o)
 .riscv.attributes
                0x0000000000000000       0x31 d:/mounriver_studio/toolchain/risc-v embedded gcc12/bin/../lib/gcc/riscv-none-elf/12.2.0/../../../../riscv-none-elf/lib/rv32imac_xw/ilp32\libg_nano.a(lib_a-nano-msizer.o)
 .text          0x0000000000000000        0x0 d:/mounriver_studio/toolchain/risc-v embedded gcc12/bin/../lib/gcc/riscv-none-elf/12.2.0/../../../../riscv-none-elf/lib/rv32imac_xw/ilp32\libnosys.a(close.o)
 .data          0x0000000000000000        0x0 d:/mounriver_studio/toolchain/risc-v embedded gcc12/bin/../lib/gcc/riscv-none-elf/12.2.0/../../../../riscv-none-elf/lib/rv32imac_xw/ilp32\libnosys.a(close.o)
 .bss           0x0000000000000000        0x0 d:/mounriver_studio/toolchain/risc-v embedded gcc12/bin/../lib/gcc/riscv-none-elf/12.2.0/../../../../riscv-none-elf/lib/rv32imac_xw/ilp32\libnosys.a(close.o)
 .text          0x0000000000000000        0x0 d:/mounriver_studio/toolchain/risc-v embedded gcc12/bin/../lib/gcc/riscv-none-elf/12.2.0/../../../../riscv-none-elf/lib/rv32imac_xw/ilp32\libnosys.a(fstat.o)
 .data          0x0000000000000000        0x0 d:/mounriver_studio/toolchain/risc-v embedded gcc12/bin/../lib/gcc/riscv-none-elf/12.2.0/../../../../riscv-none-elf/lib/rv32imac_xw/ilp32\libnosys.a(fstat.o)
 .bss           0x0000000000000000        0x0 d:/mounriver_studio/toolchain/risc-v embedded gcc12/bin/../lib/gcc/riscv-none-elf/12.2.0/../../../../riscv-none-elf/lib/rv32imac_xw/ilp32\libnosys.a(fstat.o)
 .text          0x0000000000000000        0x0 d:/mounriver_studio/toolchain/risc-v embedded gcc12/bin/../lib/gcc/riscv-none-elf/12.2.0/../../../../riscv-none-elf/lib/rv32imac_xw/ilp32\libnosys.a(getpid.o)
 .data          0x0000000000000000        0x0 d:/mounriver_studio/toolchain/risc-v embedded gcc12/bin/../lib/gcc/riscv-none-elf/12.2.0/../../../../riscv-none-elf/lib/rv32imac_xw/ilp32\libnosys.a(getpid.o)
 .bss           0x0000000000000000        0x0 d:/mounriver_studio/toolchain/risc-v embedded gcc12/bin/../lib/gcc/riscv-none-elf/12.2.0/../../../../riscv-none-elf/lib/rv32imac_xw/ilp32\libnosys.a(getpid.o)
 .text          0x0000000000000000        0x0 d:/mounriver_studio/toolchain/risc-v embedded gcc12/bin/../lib/gcc/riscv-none-elf/12.2.0/../../../../riscv-none-elf/lib/rv32imac_xw/ilp32\libnosys.a(isatty.o)
 .data          0x0000000000000000        0x0 d:/mounriver_studio/toolchain/risc-v embedded gcc12/bin/../lib/gcc/riscv-none-elf/12.2.0/../../../../riscv-none-elf/lib/rv32imac_xw/ilp32\libnosys.a(isatty.o)
 .bss           0x0000000000000000        0x0 d:/mounriver_studio/toolchain/risc-v embedded gcc12/bin/../lib/gcc/riscv-none-elf/12.2.0/../../../../riscv-none-elf/lib/rv32imac_xw/ilp32\libnosys.a(isatty.o)
 .text          0x0000000000000000        0x0 d:/mounriver_studio/toolchain/risc-v embedded gcc12/bin/../lib/gcc/riscv-none-elf/12.2.0/../../../../riscv-none-elf/lib/rv32imac_xw/ilp32\libnosys.a(kill.o)
 .data          0x0000000000000000        0x0 d:/mounriver_studio/toolchain/risc-v embedded gcc12/bin/../lib/gcc/riscv-none-elf/12.2.0/../../../../riscv-none-elf/lib/rv32imac_xw/ilp32\libnosys.a(kill.o)
 .bss           0x0000000000000000        0x0 d:/mounriver_studio/toolchain/risc-v embedded gcc12/bin/../lib/gcc/riscv-none-elf/12.2.0/../../../../riscv-none-elf/lib/rv32imac_xw/ilp32\libnosys.a(kill.o)
 .text          0x0000000000000000        0x0 d:/mounriver_studio/toolchain/risc-v embedded gcc12/bin/../lib/gcc/riscv-none-elf/12.2.0/../../../../riscv-none-elf/lib/rv32imac_xw/ilp32\libnosys.a(lseek.o)
 .data          0x0000000000000000        0x0 d:/mounriver_studio/toolchain/risc-v embedded gcc12/bin/../lib/gcc/riscv-none-elf/12.2.0/../../../../riscv-none-elf/lib/rv32imac_xw/ilp32\libnosys.a(lseek.o)
 .bss           0x0000000000000000        0x0 d:/mounriver_studio/toolchain/risc-v embedded gcc12/bin/../lib/gcc/riscv-none-elf/12.2.0/../../../../riscv-none-elf/lib/rv32imac_xw/ilp32\libnosys.a(lseek.o)
 .text          0x0000000000000000        0x0 d:/mounriver_studio/toolchain/risc-v embedded gcc12/bin/../lib/gcc/riscv-none-elf/12.2.0/../../../../riscv-none-elf/lib/rv32imac_xw/ilp32\libnosys.a(read.o)
 .data          0x0000000000000000        0x0 d:/mounriver_studio/toolchain/risc-v embedded gcc12/bin/../lib/gcc/riscv-none-elf/12.2.0/../../../../riscv-none-elf/lib/rv32imac_xw/ilp32\libnosys.a(read.o)
 .bss           0x0000000000000000        0x0 d:/mounriver_studio/toolchain/risc-v embedded gcc12/bin/../lib/gcc/riscv-none-elf/12.2.0/../../../../riscv-none-elf/lib/rv32imac_xw/ilp32\libnosys.a(read.o)
 .text          0x0000000000000000        0x0 d:/mounriver_studio/toolchain/risc-v embedded gcc12/bin/../lib/gcc/riscv-none-elf/12.2.0/../../../../riscv-none-elf/lib/rv32imac_xw/ilp32\libnosys.a(_exit.o)
 .data          0x0000000000000000        0x0 d:/mounriver_studio/toolchain/risc-v embedded gcc12/bin/../lib/gcc/riscv-none-elf/12.2.0/../../../../riscv-none-elf/lib/rv32imac_xw/ilp32\libnosys.a(_exit.o)
 .bss           0x0000000000000000        0x0 d:/mounriver_studio/toolchain/risc-v embedded gcc12/bin/../lib/gcc/riscv-none-elf/12.2.0/../../../../riscv-none-elf/lib/rv32imac_xw/ilp32\libnosys.a(_exit.o)

Memory Configuration

Name             Origin             Length             Attributes
FLASH            0x0000000000000000 0x0000000000010000 xr
RAM              0x0000000020000000 0x0000000000005000 xrw
*default*        0x0000000000000000 0xffffffffffffffff

Linker script and memory map

LOAD ./wch_sdk/Startup/startup_ch32v20x_D6.o
LOAD ./wch_sdk/Peripheral/src/ch32v20x_adc.o
LOAD ./wch_sdk/Peripheral/src/ch32v20x_bkp.o
LOAD ./wch_sdk/Peripheral/src/ch32v20x_can.o
LOAD ./wch_sdk/Peripheral/src/ch32v20x_crc.o
LOAD ./wch_sdk/Peripheral/src/ch32v20x_dbgmcu.o
LOAD ./wch_sdk/Peripheral/src/ch32v20x_dma.o
LOAD ./wch_sdk/Peripheral/src/ch32v20x_exti.o
LOAD ./wch_sdk/Peripheral/src/ch32v20x_flash.o
LOAD ./wch_sdk/Peripheral/src/ch32v20x_gpio.o
LOAD ./wch_sdk/Peripheral/src/ch32v20x_i2c.o
LOAD ./wch_sdk/Peripheral/src/ch32v20x_iwdg.o
LOAD ./wch_sdk/Peripheral/src/ch32v20x_misc.o
LOAD ./wch_sdk/Peripheral/src/ch32v20x_opa.o
LOAD ./wch_sdk/Peripheral/src/ch32v20x_pwr.o
LOAD ./wch_sdk/Peripheral/src/ch32v20x_rcc.o
LOAD ./wch_sdk/Peripheral/src/ch32v20x_rtc.o
LOAD ./wch_sdk/Peripheral/src/ch32v20x_spi.o
LOAD ./wch_sdk/Peripheral/src/ch32v20x_tim.o
LOAD ./wch_sdk/Peripheral/src/ch32v20x_usart.o
LOAD ./wch_sdk/Peripheral/src/ch32v20x_wwdg.o
LOAD ./wch_sdk/Debug/debug.o
LOAD ./wch_sdk/Core/core_riscv.o
LOAD ./user/ch32v20x_it.o
LOAD ./user/main.o
LOAD ./user/system_ch32v20x.o
LOAD ./bldc_software/control.o
LOAD ./bldc_software/motor.o
LOAD ./bldc_hardware/operational_amplifier.o
LOAD ./bldc_hardware/pwm_input.o
LOAD ./bldc_hardware/pwm_output.o
LOAD ./addition_software/seekfree_assistant.o
LOAD ./addition_software/seekfree_assistant_interface.o
LOAD ./addition_hardware/battery.o
LOAD ./addition_hardware/delay.o
LOAD ./addition_hardware/iwdg.o
LOAD ./addition_hardware/led.o
LOAD ./addition_hardware/usart.o
LOAD d:/mounriver_studio/toolchain/risc-v embedded gcc12/bin/../lib/gcc/riscv-none-elf/12.2.0/rv32imac_xw/ilp32\libgcc.a
LOAD d:/mounriver_studio/toolchain/risc-v embedded gcc12/bin/../lib/gcc/riscv-none-elf/12.2.0/../../../../riscv-none-elf/lib/rv32imac_xw/ilp32\libg_nano.a
LOAD d:/mounriver_studio/toolchain/risc-v embedded gcc12/bin/../lib/gcc/riscv-none-elf/12.2.0/../../../../riscv-none-elf/lib/rv32imac_xw/ilp32\libc_nano.a
LOAD d:/mounriver_studio/toolchain/risc-v embedded gcc12/bin/../lib/gcc/riscv-none-elf/12.2.0/rv32imac_xw/ilp32\libgcc.a
START GROUP
LOAD d:/mounriver_studio/toolchain/risc-v embedded gcc12/bin/../lib/gcc/riscv-none-elf/12.2.0/rv32imac_xw/ilp32\libgcc.a
LOAD d:/mounriver_studio/toolchain/risc-v embedded gcc12/bin/../lib/gcc/riscv-none-elf/12.2.0/../../../../riscv-none-elf/lib/rv32imac_xw/ilp32\libc_nano.a
LOAD d:/mounriver_studio/toolchain/risc-v embedded gcc12/bin/../lib/gcc/riscv-none-elf/12.2.0/../../../../riscv-none-elf/lib/rv32imac_xw/ilp32\libnosys.a
END GROUP
START GROUP
LOAD d:/mounriver_studio/toolchain/risc-v embedded gcc12/bin/../lib/gcc/riscv-none-elf/12.2.0/rv32imac_xw/ilp32\libgcc.a
LOAD d:/mounriver_studio/toolchain/risc-v embedded gcc12/bin/../lib/gcc/riscv-none-elf/12.2.0/../../../../riscv-none-elf/lib/rv32imac_xw/ilp32\libc_nano.a
LOAD d:/mounriver_studio/toolchain/risc-v embedded gcc12/bin/../lib/gcc/riscv-none-elf/12.2.0/../../../../riscv-none-elf/lib/rv32imac_xw/ilp32\libnosys.a
END GROUP
                0x0000000000000800                __stack_size = 0x800
                [!provide]                        PROVIDE (_stack_size = __stack_size)

.init           0x0000000000000000       0x38
                0x0000000000000000                _sinit = .
                0x0000000000000000                . = ALIGN (0x4)
 *(SORT_NONE(.init))
 .init          0x0000000000000000       0x38 ./wch_sdk/Startup/startup_ch32v20x_D6.o
                0x0000000000000000                _start
                0x0000000000000038                . = ALIGN (0x4)
                0x0000000000000038                _einit = .

.vector         0x0000000000000038      0x108
 *(.vector)
 .vector        0x0000000000000038       0xfc ./wch_sdk/Startup/startup_ch32v20x_D6.o
                0x0000000000000140                . = ALIGN (0x40)
 *fill*         0x0000000000000134        0xc 

.text           0x0000000000000140     0x62fc
                0x0000000000000140                . = ALIGN (0x4)
 *(.text)
 .text          0x0000000000000140       0x60 d:/mounriver_studio/toolchain/risc-v embedded gcc12/bin/../lib/gcc/riscv-none-elf/12.2.0/rv32imac_xw/ilp32\libgcc.a(save-restore.o)
                0x0000000000000140                __riscv_save_12
                0x0000000000000148                __riscv_save_9
                0x0000000000000148                __riscv_save_11
                0x0000000000000148                __riscv_save_10
                0x0000000000000148                __riscv_save_8
                0x0000000000000156                __riscv_save_4
                0x0000000000000156                __riscv_save_6
                0x0000000000000156                __riscv_save_5
                0x0000000000000156                __riscv_save_7
                0x0000000000000170                __riscv_save_3
                0x0000000000000170                __riscv_save_2
                0x0000000000000170                __riscv_save_1
                0x0000000000000170                __riscv_save_0
                0x000000000000017c                __riscv_restore_12
                0x0000000000000180                __riscv_restore_11
                0x0000000000000180                __riscv_restore_9
                0x0000000000000180                __riscv_restore_10
                0x0000000000000180                __riscv_restore_8
                0x000000000000018a                __riscv_restore_5
                0x000000000000018a                __riscv_restore_7
                0x000000000000018a                __riscv_restore_6
                0x000000000000018a                __riscv_restore_4
                0x0000000000000194                __riscv_restore_3
                0x0000000000000194                __riscv_restore_0
                0x0000000000000194                __riscv_restore_2
                0x0000000000000194                __riscv_restore_1
 .text          0x00000000000001a0       0x10 d:/mounriver_studio/toolchain/risc-v embedded gcc12/bin/../lib/gcc/riscv-none-elf/12.2.0/../../../../riscv-none-elf/lib/rv32imac_xw/ilp32\libg_nano.a(lib_a-memset.o)
                0x00000000000001a0                memset
 *(.text.*)
 .text.vector_handler
                0x00000000000001b0       0x6c ./wch_sdk/Startup/startup_ch32v20x_D6.o
                0x00000000000001b4                Ecall_M_Mode_Handler
                0x00000000000001b6                Ecall_U_Mode_Handler
                0x00000000000001b8                Break_Point_Handler
                0x00000000000001bc                SW_Handler
                0x00000000000001be                WWDG_IRQHandler
                0x00000000000001c0                PVD_IRQHandler
                0x00000000000001c2                TAMPER_IRQHandler
                0x00000000000001c4                RTC_IRQHandler
                0x00000000000001c6                FLASH_IRQHandler
                0x00000000000001c8                RCC_IRQHandler
                0x00000000000001ca                EXTI0_IRQHandler
                0x00000000000001cc                EXTI1_IRQHandler
                0x00000000000001d0                EXTI3_IRQHandler
                0x00000000000001d2                EXTI4_IRQHandler
                0x00000000000001d4                DMA1_Channel1_IRQHandler
                0x00000000000001d6                DMA1_Channel2_IRQHandler
                0x00000000000001d8                DMA1_Channel3_IRQHandler
                0x00000000000001da                DMA1_Channel4_IRQHandler
                0x00000000000001dc                DMA1_Channel5_IRQHandler
                0x00000000000001de                DMA1_Channel6_IRQHandler
                0x00000000000001e0                DMA1_Channel7_IRQHandler
                0x00000000000001e2                ADC1_2_IRQHandler
                0x00000000000001e4                USB_HP_CAN1_TX_IRQHandler
                0x00000000000001e6                USB_LP_CAN1_RX0_IRQHandler
                0x00000000000001e8                CAN1_RX1_IRQHandler
                0x00000000000001ea                CAN1_SCE_IRQHandler
                0x00000000000001ec                EXTI9_5_IRQHandler
                0x00000000000001ee                TIM1_BRK_IRQHandler
                0x00000000000001f0                TIM1_UP_IRQHandler
                0x00000000000001f2                TIM1_TRG_COM_IRQHandler
                0x00000000000001f4                TIM1_CC_IRQHandler
                0x00000000000001fc                I2C1_EV_IRQHandler
                0x00000000000001fe                I2C1_ER_IRQHandler
                0x0000000000000200                I2C2_EV_IRQHandler
                0x0000000000000202                I2C2_ER_IRQHandler
                0x0000000000000204                SPI1_IRQHandler
                0x0000000000000206                SPI2_IRQHandler
                0x0000000000000208                USART1_IRQHandler
                0x000000000000020a                USART2_IRQHandler
                0x000000000000020c                USART3_IRQHandler
                0x000000000000020e                EXTI15_10_IRQHandler
                0x0000000000000210                RTCAlarm_IRQHandler
                0x0000000000000212                USBWakeUp_IRQHandler
                0x0000000000000214                USBHD_IRQHandler
                0x0000000000000216                USBHDWakeUp_IRQHandler
                0x0000000000000218                UART4_IRQHandler
                0x000000000000021a                DMA1_Channel8_IRQHandler
 .text.handle_reset
                0x000000000000021c       0x86 ./wch_sdk/Startup/startup_ch32v20x_D6.o
                0x000000000000021c                handle_reset
 .text.ADC_DeInit
                0x00000000000002a2       0x3e ./wch_sdk/Peripheral/src/ch32v20x_adc.o
                0x00000000000002a2                ADC_DeInit
 .text.ADC_Init
                0x00000000000002e0       0x56 ./wch_sdk/Peripheral/src/ch32v20x_adc.o
                0x00000000000002e0                ADC_Init
 .text.ADC_Cmd  0x0000000000000336       0x10 ./wch_sdk/Peripheral/src/ch32v20x_adc.o
                0x0000000000000336                ADC_Cmd
 .text.ADC_DMACmd
                0x0000000000000346       0x12 ./wch_sdk/Peripheral/src/ch32v20x_adc.o
                0x0000000000000346                ADC_DMACmd
 .text.ADC_ResetCalibration
                0x0000000000000358        0xa ./wch_sdk/Peripheral/src/ch32v20x_adc.o
                0x0000000000000358                ADC_ResetCalibration
 .text.ADC_GetResetCalibrationStatus
                0x0000000000000362        0x8 ./wch_sdk/Peripheral/src/ch32v20x_adc.o
                0x0000000000000362                ADC_GetResetCalibrationStatus
 .text.ADC_StartCalibration
                0x000000000000036a        0xa ./wch_sdk/Peripheral/src/ch32v20x_adc.o
                0x000000000000036a                ADC_StartCalibration
 .text.ADC_GetCalibrationStatus
                0x0000000000000374        0x8 ./wch_sdk/Peripheral/src/ch32v20x_adc.o
                0x0000000000000374                ADC_GetCalibrationStatus
 .text.ADC_SoftwareStartConvCmd
                0x000000000000037c       0x18 ./wch_sdk/Peripheral/src/ch32v20x_adc.o
                0x000000000000037c                ADC_SoftwareStartConvCmd
 .text.ADC_RegularChannelConfig
                0x0000000000000394       0xb8 ./wch_sdk/Peripheral/src/ch32v20x_adc.o
                0x0000000000000394                ADC_RegularChannelConfig
 .text.DMA_DeInit
                0x000000000000044c       0x9c ./wch_sdk/Peripheral/src/ch32v20x_dma.o
                0x000000000000044c                DMA_DeInit
 .text.DMA_Init
                0x00000000000004e8       0x38 ./wch_sdk/Peripheral/src/ch32v20x_dma.o
                0x00000000000004e8                DMA_Init
 .text.DMA_Cmd  0x0000000000000520       0x14 ./wch_sdk/Peripheral/src/ch32v20x_dma.o
                0x0000000000000520                DMA_Cmd
 .text.EXTI_Init
                0x0000000000000534       0x62 ./wch_sdk/Peripheral/src/ch32v20x_exti.o
                0x0000000000000534                EXTI_Init
 .text.EXTI_ClearITPendingBit
                0x0000000000000596        0xc ./wch_sdk/Peripheral/src/ch32v20x_exti.o
                0x0000000000000596                EXTI_ClearITPendingBit
 .text.GPIO_Init
                0x00000000000005a2       0xee ./wch_sdk/Peripheral/src/ch32v20x_gpio.o
                0x00000000000005a2                GPIO_Init
 .text.GPIO_PinRemapConfig
                0x0000000000000690      0x112 ./wch_sdk/Peripheral/src/ch32v20x_gpio.o
                0x0000000000000690                GPIO_PinRemapConfig
 .text.GPIO_EXTILineConfig
                0x00000000000007a2       0x2c ./wch_sdk/Peripheral/src/ch32v20x_gpio.o
                0x00000000000007a2                GPIO_EXTILineConfig
 .text.IWDG_WriteAccessCmd
                0x00000000000007ce        0x8 ./wch_sdk/Peripheral/src/ch32v20x_iwdg.o
                0x00000000000007ce                IWDG_WriteAccessCmd
 .text.IWDG_SetPrescaler
                0x00000000000007d6        0x8 ./wch_sdk/Peripheral/src/ch32v20x_iwdg.o
                0x00000000000007d6                IWDG_SetPrescaler
 .text.IWDG_SetReload
                0x00000000000007de        0x8 ./wch_sdk/Peripheral/src/ch32v20x_iwdg.o
                0x00000000000007de                IWDG_SetReload
 .text.IWDG_ReloadCounter
                0x00000000000007e6        0xe ./wch_sdk/Peripheral/src/ch32v20x_iwdg.o
                0x00000000000007e6                IWDG_ReloadCounter
 .text.IWDG_Enable
                0x00000000000007f4        0xe ./wch_sdk/Peripheral/src/ch32v20x_iwdg.o
                0x00000000000007f4                IWDG_Enable
 .text.RCC_ADCCLKConfig
                0x0000000000000802       0x12 ./wch_sdk/Peripheral/src/ch32v20x_rcc.o
                0x0000000000000802                RCC_ADCCLKConfig
 .text.RCC_GetClocksFreq
                0x0000000000000814       0xb8 ./wch_sdk/Peripheral/src/ch32v20x_rcc.o
                0x0000000000000814                RCC_GetClocksFreq
 .text.RCC_AHBPeriphClockCmd
                0x00000000000008cc       0x1e ./wch_sdk/Peripheral/src/ch32v20x_rcc.o
                0x00000000000008cc                RCC_AHBPeriphClockCmd
 .text.RCC_APB2PeriphClockCmd
                0x00000000000008ea       0x1e ./wch_sdk/Peripheral/src/ch32v20x_rcc.o
                0x00000000000008ea                RCC_APB2PeriphClockCmd
 .text.RCC_APB1PeriphClockCmd
                0x0000000000000908       0x1e ./wch_sdk/Peripheral/src/ch32v20x_rcc.o
                0x0000000000000908                RCC_APB1PeriphClockCmd
 .text.RCC_APB2PeriphResetCmd
                0x0000000000000926       0x1e ./wch_sdk/Peripheral/src/ch32v20x_rcc.o
                0x0000000000000926                RCC_APB2PeriphResetCmd
 .text.RCC_APB1PeriphResetCmd
                0x0000000000000944       0x1e ./wch_sdk/Peripheral/src/ch32v20x_rcc.o
                0x0000000000000944                RCC_APB1PeriphResetCmd
 .text.TI1_Config
                0x0000000000000962       0x6a ./wch_sdk/Peripheral/src/ch32v20x_tim.o
 .text.TI2_Config
                0x00000000000009cc       0x84 ./wch_sdk/Peripheral/src/ch32v20x_tim.o
 .text.TIM_DeInit
                0x0000000000000a50       0x7c ./wch_sdk/Peripheral/src/ch32v20x_tim.o
                0x0000000000000a50                TIM_DeInit
 .text.TIM_TimeBaseInit
                0x0000000000000acc       0x6a ./wch_sdk/Peripheral/src/ch32v20x_tim.o
                0x0000000000000acc                TIM_TimeBaseInit
 .text.TIM_OC1Init
                0x0000000000000b36       0x6a ./wch_sdk/Peripheral/src/ch32v20x_tim.o
                0x0000000000000b36                TIM_OC1Init
 .text.TIM_OC2Init
                0x0000000000000ba0       0x94 ./wch_sdk/Peripheral/src/ch32v20x_tim.o
                0x0000000000000ba0                TIM_OC2Init
 .text.TIM_OC3Init
                0x0000000000000c34       0x92 ./wch_sdk/Peripheral/src/ch32v20x_tim.o
                0x0000000000000c34                TIM_OC3Init
 .text.TIM_OC4Init
                0x0000000000000cc6       0x68 ./wch_sdk/Peripheral/src/ch32v20x_tim.o
                0x0000000000000cc6                TIM_OC4Init
 .text.TIM_BDTRConfig
                0x0000000000000d2e       0x20 ./wch_sdk/Peripheral/src/ch32v20x_tim.o
                0x0000000000000d2e                TIM_BDTRConfig
 .text.TIM_TimeBaseStructInit
                0x0000000000000d4e       0x16 ./wch_sdk/Peripheral/src/ch32v20x_tim.o
                0x0000000000000d4e                TIM_TimeBaseStructInit
 .text.TIM_OCStructInit
                0x0000000000000d64       0x22 ./wch_sdk/Peripheral/src/ch32v20x_tim.o
                0x0000000000000d64                TIM_OCStructInit
 .text.TIM_ICStructInit
                0x0000000000000d86       0x16 ./wch_sdk/Peripheral/src/ch32v20x_tim.o
                0x0000000000000d86                TIM_ICStructInit
 .text.TIM_BDTRStructInit
                0x0000000000000d9c       0x1e ./wch_sdk/Peripheral/src/ch32v20x_tim.o
                0x0000000000000d9c                TIM_BDTRStructInit
 .text.TIM_Cmd  0x0000000000000dba       0x18 ./wch_sdk/Peripheral/src/ch32v20x_tim.o
                0x0000000000000dba                TIM_Cmd
 .text.TIM_CtrlPWMOutputs
                0x0000000000000dd2       0x16 ./wch_sdk/Peripheral/src/ch32v20x_tim.o
                0x0000000000000dd2                TIM_CtrlPWMOutputs
 .text.TIM_ITConfig
                0x0000000000000de8       0x12 ./wch_sdk/Peripheral/src/ch32v20x_tim.o
                0x0000000000000de8                TIM_ITConfig
 .text.TIM_GenerateEvent
                0x0000000000000dfa        0x4 ./wch_sdk/Peripheral/src/ch32v20x_tim.o
                0x0000000000000dfa                TIM_GenerateEvent
 .text.TIM_SelectInputTrigger
                0x0000000000000dfe       0x10 ./wch_sdk/Peripheral/src/ch32v20x_tim.o
                0x0000000000000dfe                TIM_SelectInputTrigger
 .text.TIM_ARRPreloadConfig
                0x0000000000000e0e       0x1a ./wch_sdk/Peripheral/src/ch32v20x_tim.o
                0x0000000000000e0e                TIM_ARRPreloadConfig
 .text.TIM_OC1PreloadConfig
                0x0000000000000e28        0xe ./wch_sdk/Peripheral/src/ch32v20x_tim.o
                0x0000000000000e28                TIM_OC1PreloadConfig
 .text.TIM_OC2PreloadConfig
                0x0000000000000e36       0x16 ./wch_sdk/Peripheral/src/ch32v20x_tim.o
                0x0000000000000e36                TIM_OC2PreloadConfig
 .text.TIM_OC3PreloadConfig
                0x0000000000000e4c        0xe ./wch_sdk/Peripheral/src/ch32v20x_tim.o
                0x0000000000000e4c                TIM_OC3PreloadConfig
 .text.TIM_OC1FastConfig
                0x0000000000000e5a        0xe ./wch_sdk/Peripheral/src/ch32v20x_tim.o
                0x0000000000000e5a                TIM_OC1FastConfig
 .text.TIM_OC2FastConfig
                0x0000000000000e68       0x16 ./wch_sdk/Peripheral/src/ch32v20x_tim.o
                0x0000000000000e68                TIM_OC2FastConfig
 .text.TIM_OC3FastConfig
                0x0000000000000e7e        0xe ./wch_sdk/Peripheral/src/ch32v20x_tim.o
                0x0000000000000e7e                TIM_OC3FastConfig
 .text.TIM_CCxCmd
                0x0000000000000e8c       0x1c ./wch_sdk/Peripheral/src/ch32v20x_tim.o
                0x0000000000000e8c                TIM_CCxCmd
 .text.TIM_CCxNCmd
                0x0000000000000ea8       0x1c ./wch_sdk/Peripheral/src/ch32v20x_tim.o
                0x0000000000000ea8                TIM_CCxNCmd
 .text.TIM_SelectSlaveMode
                0x0000000000000ec4       0x16 ./wch_sdk/Peripheral/src/ch32v20x_tim.o
                0x0000000000000ec4                TIM_SelectSlaveMode
 .text.TIM_SelectMasterSlaveMode
                0x0000000000000eda       0x18 ./wch_sdk/Peripheral/src/ch32v20x_tim.o
                0x0000000000000eda                TIM_SelectMasterSlaveMode
 .text.TIM_SetIC1Prescaler
                0x0000000000000ef2       0x16 ./wch_sdk/Peripheral/src/ch32v20x_tim.o
                0x0000000000000ef2                TIM_SetIC1Prescaler
 .text.TIM_SetIC2Prescaler
                0x0000000000000f08       0x1a ./wch_sdk/Peripheral/src/ch32v20x_tim.o
                0x0000000000000f08                TIM_SetIC2Prescaler
 .text.TIM_SetIC3Prescaler
                0x0000000000000f22       0x16 ./wch_sdk/Peripheral/src/ch32v20x_tim.o
                0x0000000000000f22                TIM_SetIC3Prescaler
 .text.TIM_SetIC4Prescaler
                0x0000000000000f38       0x1a ./wch_sdk/Peripheral/src/ch32v20x_tim.o
                0x0000000000000f38                TIM_SetIC4Prescaler
 .text.TIM_ICInit
                0x0000000000000f52      0x150 ./wch_sdk/Peripheral/src/ch32v20x_tim.o
                0x0000000000000f52                TIM_ICInit
 .text.TIM_GetCapture1
                0x00000000000010a2        0x4 ./wch_sdk/Peripheral/src/ch32v20x_tim.o
                0x00000000000010a2                TIM_GetCapture1
 .text.TIM_GetCapture2
                0x00000000000010a6        0x4 ./wch_sdk/Peripheral/src/ch32v20x_tim.o
                0x00000000000010a6                TIM_GetCapture2
 .text.TIM_GetITStatus
                0x00000000000010aa       0x18 ./wch_sdk/Peripheral/src/ch32v20x_tim.o
                0x00000000000010aa                TIM_GetITStatus
 .text.TIM_ClearITPendingBit
                0x00000000000010c2        0xc ./wch_sdk/Peripheral/src/ch32v20x_tim.o
                0x00000000000010c2                TIM_ClearITPendingBit
 .text.USART_Init
                0x00000000000010ce       0xb4 ./wch_sdk/Peripheral/src/ch32v20x_usart.o
                0x00000000000010ce                USART_Init
 .text.USART_Cmd
                0x0000000000001182       0x14 ./wch_sdk/Peripheral/src/ch32v20x_usart.o
                0x0000000000001182                USART_Cmd
 .text.USART_SendData
                0x0000000000001196        0x8 ./wch_sdk/Peripheral/src/ch32v20x_usart.o
                0x0000000000001196                USART_SendData
 .text.USART_GetFlagStatus
                0x000000000000119e        0xa ./wch_sdk/Peripheral/src/ch32v20x_usart.o
                0x000000000000119e                USART_GetFlagStatus
 .text._write   0x00000000000011a8       0x3a ./wch_sdk/Debug/debug.o
                0x00000000000011a8                _write
 .text._sbrk    0x00000000000011e2       0x2a ./wch_sdk/Debug/debug.o
                0x00000000000011e2                _sbrk
 .text.__get_MEPC
                0x000000000000120c        0x6 ./wch_sdk/Core/core_riscv.o
                0x000000000000120c                __get_MEPC
 .text.__get_MCAUSE
                0x0000000000001212        0x6 ./wch_sdk/Core/core_riscv.o
                0x0000000000001212                __get_MCAUSE
 .text.__get_MTVAL
                0x0000000000001218        0x6 ./wch_sdk/Core/core_riscv.o
                0x0000000000001218                __get_MTVAL
 .text.SysTick_Handler
                0x000000000000121e       0xc8 ./user/ch32v20x_it.o
                0x000000000000121e                SysTick_Handler
 .text.TIM2_IRQHandler
                0x00000000000012e6       0x30 ./user/ch32v20x_it.o
                0x00000000000012e6                TIM2_IRQHandler
 .text.TIM3_IRQHandler
                0x0000000000001316       0x12 ./user/ch32v20x_it.o
                0x0000000000001316                TIM3_IRQHandler
 .text.TIM4_IRQHandler
                0x0000000000001328       0x12 ./user/ch32v20x_it.o
                0x0000000000001328                TIM4_IRQHandler
 .text.EXTI2_IRQHandler
                0x000000000000133a       0x12 ./user/ch32v20x_it.o
                0x000000000000133a                EXTI2_IRQHandler
 .text.NMI_Handler
                0x000000000000134c        0x4 ./user/ch32v20x_it.o
                0x000000000000134c                NMI_Handler
 .text.HardFault_Handler
                0x0000000000001350       0x4a ./user/ch32v20x_it.o
                0x0000000000001350                HardFault_Handler
 .text.startup.main
                0x000000000000139a       0xd6 ./user/main.o
                0x000000000000139a                main
 .text.SystemInit
                0x0000000000001470       0xac ./user/system_ch32v20x.o
                0x0000000000001470                SystemInit
 .text.commutation_and_degauss_callback
                0x000000000000151c       0xb4 ./bldc_software/control.o
                0x000000000000151c                commutation_and_degauss_callback
 .text.commutation_time_out_callback
                0x00000000000015d0       0x34 ./bldc_software/control.o
                0x00000000000015d0                commutation_time_out_callback
 .text.opama_callback
                0x0000000000001604       0x5a ./bldc_software/control.o
                0x0000000000001604                opama_callback
 .text.pit_callback
                0x000000000000165e      0x2dc ./bldc_software/control.o
                0x000000000000165e                pit_callback
 .text.PID_Init
                0x000000000000193a       0x5e ./bldc_software/control.o
                0x000000000000193a                PID_Init
 .text.PID_Calculate
                0x0000000000001998       0xce ./bldc_software/control.o
                0x0000000000001998                PID_Calculate
 .text.pit_init
                0x0000000000001a66       0x42 ./bldc_software/control.o
                0x0000000000001a66                pit_init
 .text.advance_commutation_count_init
                0x0000000000001aa8       0x78 ./bldc_software/control.o
                0x0000000000001aa8                advance_commutation_count_init
 .text.commutation_time_count_init
                0x0000000000001b20       0x7a ./bldc_software/control.o
                0x0000000000001b20                commutation_time_count_init
 .text.set_vector_table_free
                0x0000000000001b9a       0x50 ./bldc_software/control.o
                0x0000000000001b9a                set_vector_table_free
 .text.motor_commutation_execute
                0x0000000000001bea       0x42 ./bldc_software/motor.o
                0x0000000000001bea                motor_commutation_execute
 .text.motor_start
                0x0000000000001c2c       0x32 ./bldc_software/motor.o
                0x0000000000001c2c                motor_start
 .text.motor_next_step
                0x0000000000001c5e       0xa4 ./bldc_software/motor.o
                0x0000000000001c5e                motor_next_step
 .text.motor_brake
                0x0000000000001d02       0x90 ./bldc_software/motor.o
                0x0000000000001d02                motor_brake
 .text.motor_stop
                0x0000000000001d92        0x2 ./bldc_software/motor.o
                0x0000000000001d92                motor_stop
 .text.motor_power_on_beep
                0x0000000000001d94      0x1ea ./bldc_software/motor.o
                0x0000000000001d94                motor_power_on_beep
 .text.disable_opama_interrupts
                0x0000000000001f7e       0x14 ./bldc_hardware/operational_amplifier.o
                0x0000000000001f7e                disable_opama_interrupts
 .text.enable_opama_interrupts
                0x0000000000001f92       0x12 ./bldc_hardware/operational_amplifier.o
                0x0000000000001f92                enable_opama_interrupts
 .text.pa2_exit_init
                0x0000000000001fa4       0x46 ./bldc_hardware/operational_amplifier.o
                0x0000000000001fa4                pa2_exit_init
 .text.opama_init
                0x0000000000001fea       0x66 ./bldc_hardware/operational_amplifier.o
                0x0000000000001fea                opama_init
 .text.pwm_input_trigger_callback
                0x0000000000002050       0xd4 ./bldc_hardware/pwm_input.o
                0x0000000000002050                pwm_input_trigger_callback
 .text.pwm_input_timeout_callback
                0x0000000000002124       0x24 ./bldc_hardware/pwm_input.o
                0x0000000000002124                pwm_input_timeout_callback
 .text.pwm_input_init
                0x0000000000002148      0x14e ./bldc_hardware/pwm_input.o
                0x0000000000002148                pwm_input_init
 .text.pwm_duty_update
                0x0000000000002296       0x2a ./bldc_hardware/pwm_output.o
                0x0000000000002296                pwm_duty_update
 .text.pwm_a_bn_output
                0x00000000000022c0       0xa2 ./bldc_hardware/pwm_output.o
                0x00000000000022c0                pwm_a_bn_output
 .text.pwm_a_cn_output
                0x0000000000002362       0xa2 ./bldc_hardware/pwm_output.o
                0x0000000000002362                pwm_a_cn_output
 .text.pwm_b_cn_output
                0x0000000000002404       0xa0 ./bldc_hardware/pwm_output.o
                0x0000000000002404                pwm_b_cn_output
 .text.pwm_b_an_output
                0x00000000000024a4       0xa0 ./bldc_hardware/pwm_output.o
                0x00000000000024a4                pwm_b_an_output
 .text.pwm_c_an_output
                0x0000000000002544       0xa4 ./bldc_hardware/pwm_output.o
                0x0000000000002544                pwm_c_an_output
 .text.pwm_c_bn_output
                0x00000000000025e8       0xa4 ./bldc_hardware/pwm_output.o
                0x00000000000025e8                pwm_c_bn_output
 .text.pwm_an_bn_cn_off
                0x000000000000268c       0x90 ./bldc_hardware/pwm_output.o
                0x000000000000268c                pwm_an_bn_cn_off
 .text.pwm_complementary_init
                0x000000000000271c      0x236 ./bldc_hardware/pwm_output.o
                0x000000000000271c                pwm_complementary_init
 .text.seekfree_assistant_oscilloscope_send
                0x0000000000002952       0x3e ./addition_software/seekfree_assistant.o
                0x0000000000002952                seekfree_assistant_oscilloscope_send
 .text.seekfree_assistant_transfer
                0x0000000000002990        0xc ./addition_software/seekfree_assistant_interface.o
                0x0000000000002990                seekfree_assistant_transfer
 .text.battery_voltage_get
                0x000000000000299c       0x70 ./addition_hardware/battery.o
                0x000000000000299c                battery_voltage_get
 .text.battery_voltage_init
                0x0000000000002a0c      0x12e ./addition_hardware/battery.o
                0x0000000000002a0c                battery_voltage_init
 .text.system_delay
                0x0000000000002b3a       0x34 ./addition_hardware/delay.o
                0x0000000000002b3a                system_delay
 .text.iwdg_init
                0x0000000000002b6e       0x28 ./addition_hardware/iwdg.o
                0x0000000000002b6e                iwdg_init
 .text.led_run_toggle
                0x0000000000002b96       0x12 ./addition_hardware/led.o
                0x0000000000002b96                led_run_toggle
 .text.led_err_toggle
                0x0000000000002ba8       0x12 ./addition_hardware/led.o
                0x0000000000002ba8                led_err_toggle
 .text.led_control
                0x0000000000002bba       0x86 ./addition_hardware/led.o
                0x0000000000002bba                led_control
 .text.led_init
                0x0000000000002c40       0x4e ./addition_hardware/led.o
                0x0000000000002c40                led_init
 .text.usart_init
                0x0000000000002c8e       0x62 ./addition_hardware/usart.o
                0x0000000000002c8e                usart_init
 .text.uart_write_byte
                0x0000000000002cf0       0x14 ./addition_hardware/usart.o
                0x0000000000002cf0                uart_write_byte
 .text.uart_write_buffer
                0x0000000000002d04       0x1a ./addition_hardware/usart.o
                0x0000000000002d04                uart_write_buffer
 .text.__divdf3
                0x0000000000002d1e      0x5ae d:/mounriver_studio/toolchain/risc-v embedded gcc12/bin/../lib/gcc/riscv-none-elf/12.2.0/rv32imac_xw/ilp32\libgcc.a(divdf3.o)
                0x0000000000002d1e                __divdf3
 .text.__muldf3
                0x00000000000032cc      0x54a d:/mounriver_studio/toolchain/risc-v embedded gcc12/bin/../lib/gcc/riscv-none-elf/12.2.0/rv32imac_xw/ilp32\libgcc.a(muldf3.o)
                0x00000000000032cc                __muldf3
 .text.__fixunsdfsi
                0x0000000000003816       0x58 d:/mounriver_studio/toolchain/risc-v embedded gcc12/bin/../lib/gcc/riscv-none-elf/12.2.0/rv32imac_xw/ilp32\libgcc.a(fixunsdfsi.o)
                0x0000000000003816                __fixunsdfsi
 .text.__floatunsidf
                0x000000000000386e       0x70 d:/mounriver_studio/toolchain/risc-v embedded gcc12/bin/../lib/gcc/riscv-none-elf/12.2.0/rv32imac_xw/ilp32\libgcc.a(floatunsidf.o)
                0x000000000000386e                __floatunsidf
 .text.__addsf3
                0x00000000000038de      0x368 d:/mounriver_studio/toolchain/risc-v embedded gcc12/bin/../lib/gcc/riscv-none-elf/12.2.0/rv32imac_xw/ilp32\libgcc.a(addsf3.o)
                0x00000000000038de                __addsf3
 .text.__divsf3
                0x0000000000003c46      0x2ea d:/mounriver_studio/toolchain/risc-v embedded gcc12/bin/../lib/gcc/riscv-none-elf/12.2.0/rv32imac_xw/ilp32\libgcc.a(divsf3.o)
                0x0000000000003c46                __divsf3
 .text.__gesf2  0x0000000000003f30       0x96 d:/mounriver_studio/toolchain/risc-v embedded gcc12/bin/../lib/gcc/riscv-none-elf/12.2.0/rv32imac_xw/ilp32\libgcc.a(gesf2.o)
                0x0000000000003f30                __gesf2
                0x0000000000003f30                __gtsf2
 .text.__lesf2  0x0000000000003fc6       0x98 d:/mounriver_studio/toolchain/risc-v embedded gcc12/bin/../lib/gcc/riscv-none-elf/12.2.0/rv32imac_xw/ilp32\libgcc.a(lesf2.o)
                0x0000000000003fc6                __ltsf2
                0x0000000000003fc6                __lesf2
 .text.__mulsf3
                0x000000000000405e      0x2dc d:/mounriver_studio/toolchain/risc-v embedded gcc12/bin/../lib/gcc/riscv-none-elf/12.2.0/rv32imac_xw/ilp32\libgcc.a(mulsf3.o)
                0x000000000000405e                __mulsf3
 .text.__subsf3
                0x000000000000433a      0x38c d:/mounriver_studio/toolchain/risc-v embedded gcc12/bin/../lib/gcc/riscv-none-elf/12.2.0/rv32imac_xw/ilp32\libgcc.a(subsf3.o)
                0x000000000000433a                __subsf3
 .text.__fixsfsi
                0x00000000000046c6       0x60 d:/mounriver_studio/toolchain/risc-v embedded gcc12/bin/../lib/gcc/riscv-none-elf/12.2.0/rv32imac_xw/ilp32\libgcc.a(fixsfsi.o)
                0x00000000000046c6                __fixsfsi
 .text.__floatsisf
                0x0000000000004726       0xcc d:/mounriver_studio/toolchain/risc-v embedded gcc12/bin/../lib/gcc/riscv-none-elf/12.2.0/rv32imac_xw/ilp32\libgcc.a(floatsisf.o)
                0x0000000000004726                __floatsisf
 .text.__floatunsisf
                0x00000000000047f2       0xbc d:/mounriver_studio/toolchain/risc-v embedded gcc12/bin/../lib/gcc/riscv-none-elf/12.2.0/rv32imac_xw/ilp32\libgcc.a(floatunsisf.o)
                0x00000000000047f2                __floatunsisf
 .text.__extendsfdf2
                0x00000000000048ae       0xa6 d:/mounriver_studio/toolchain/risc-v embedded gcc12/bin/../lib/gcc/riscv-none-elf/12.2.0/rv32imac_xw/ilp32\libgcc.a(extendsfdf2.o)
                0x00000000000048ae                __extendsfdf2
 .text.__truncdfsf2
                0x0000000000004954      0x16c d:/mounriver_studio/toolchain/risc-v embedded gcc12/bin/../lib/gcc/riscv-none-elf/12.2.0/rv32imac_xw/ilp32\libgcc.a(truncdfsf2.o)
                0x0000000000004954                __truncdfsf2
 .text.__clzsi2
                0x0000000000004ac0       0x68 d:/mounriver_studio/toolchain/risc-v embedded gcc12/bin/../lib/gcc/riscv-none-elf/12.2.0/rv32imac_xw/ilp32\libgcc.a(_clzsi2.o)
                0x0000000000004ac0                __clzsi2
 .text.printf   0x0000000000004b28       0x3a d:/mounriver_studio/toolchain/risc-v embedded gcc12/bin/../lib/gcc/riscv-none-elf/12.2.0/../../../../riscv-none-elf/lib/rv32imac_xw/ilp32\libg_nano.a(lib_a-printf.o)
                0x0000000000004b28                iprintf
                0x0000000000004b28                printf
 .text._puts_r  0x0000000000004b62      0x108 d:/mounriver_studio/toolchain/risc-v embedded gcc12/bin/../lib/gcc/riscv-none-elf/12.2.0/../../../../riscv-none-elf/lib/rv32imac_xw/ilp32\libg_nano.a(lib_a-puts.o)
                0x0000000000004b62                _puts_r
 .text.puts     0x0000000000004c6a        0x8 d:/mounriver_studio/toolchain/risc-v embedded gcc12/bin/../lib/gcc/riscv-none-elf/12.2.0/../../../../riscv-none-elf/lib/rv32imac_xw/ilp32\libg_nano.a(lib_a-puts.o)
                0x0000000000004c6a                puts
 .text.srand    0x0000000000004c72       0x70 d:/mounriver_studio/toolchain/risc-v embedded gcc12/bin/../lib/gcc/riscv-none-elf/12.2.0/../../../../riscv-none-elf/lib/rv32imac_xw/ilp32\libg_nano.a(lib_a-rand.o)
                0x0000000000004c72                srand
 .text.rand     0x0000000000004ce2       0x9e d:/mounriver_studio/toolchain/risc-v embedded gcc12/bin/../lib/gcc/riscv-none-elf/12.2.0/../../../../riscv-none-elf/lib/rv32imac_xw/ilp32\libg_nano.a(lib_a-rand.o)
                0x0000000000004ce2                rand
 .text.__swbuf_r
                0x0000000000004d80       0xbc d:/mounriver_studio/toolchain/risc-v embedded gcc12/bin/../lib/gcc/riscv-none-elf/12.2.0/../../../../riscv-none-elf/lib/rv32imac_xw/ilp32\libg_nano.a(lib_a-wbuf.o)
                0x0000000000004d80                __swbuf_r
 .text.__swsetup_r
                0x0000000000004e3c       0xee d:/mounriver_studio/toolchain/risc-v embedded gcc12/bin/../lib/gcc/riscv-none-elf/12.2.0/../../../../riscv-none-elf/lib/rv32imac_xw/ilp32\libg_nano.a(lib_a-wsetup.o)
                0x0000000000004e3c                __swsetup_r
 .text.__assert_func
                0x0000000000004f2a       0x38 d:/mounriver_studio/toolchain/risc-v embedded gcc12/bin/../lib/gcc/riscv-none-elf/12.2.0/../../../../riscv-none-elf/lib/rv32imac_xw/ilp32\libg_nano.a(lib_a-assert.o)
                0x0000000000004f2a                __assert_func
 .text.__sflush_r
                0x0000000000004f62      0x132 d:/mounriver_studio/toolchain/risc-v embedded gcc12/bin/../lib/gcc/riscv-none-elf/12.2.0/../../../../riscv-none-elf/lib/rv32imac_xw/ilp32\libg_nano.a(lib_a-fflush.o)
                0x0000000000004f62                __sflush_r
 .text._fflush_r
                0x0000000000005094       0x88 d:/mounriver_studio/toolchain/risc-v embedded gcc12/bin/../lib/gcc/riscv-none-elf/12.2.0/../../../../riscv-none-elf/lib/rv32imac_xw/ilp32\libg_nano.a(lib_a-fflush.o)
                0x0000000000005094                _fflush_r
 .text.std      0x000000000000511c       0x66 d:/mounriver_studio/toolchain/risc-v embedded gcc12/bin/../lib/gcc/riscv-none-elf/12.2.0/../../../../riscv-none-elf/lib/rv32imac_xw/ilp32\libg_nano.a(lib_a-findfp.o)
 .text._cleanup_r
                0x0000000000005182        0xa d:/mounriver_studio/toolchain/risc-v embedded gcc12/bin/../lib/gcc/riscv-none-elf/12.2.0/../../../../riscv-none-elf/lib/rv32imac_xw/ilp32\libg_nano.a(lib_a-findfp.o)
                0x0000000000005182                _cleanup_r
 .text.__sfmoreglue
                0x000000000000518c       0x46 d:/mounriver_studio/toolchain/risc-v embedded gcc12/bin/../lib/gcc/riscv-none-elf/12.2.0/../../../../riscv-none-elf/lib/rv32imac_xw/ilp32\libg_nano.a(lib_a-findfp.o)
                0x000000000000518c                __sfmoreglue
 .text.__sfp_lock_acquire
                0x00000000000051d2        0x6 d:/mounriver_studio/toolchain/risc-v embedded gcc12/bin/../lib/gcc/riscv-none-elf/12.2.0/../../../../riscv-none-elf/lib/rv32imac_xw/ilp32\libg_nano.a(lib_a-findfp.o)
                0x00000000000051d2                __sfp_lock_acquire
 .text.__sfp_lock_release
                0x00000000000051d8        0x6 d:/mounriver_studio/toolchain/risc-v embedded gcc12/bin/../lib/gcc/riscv-none-elf/12.2.0/../../../../riscv-none-elf/lib/rv32imac_xw/ilp32\libg_nano.a(lib_a-findfp.o)
                0x00000000000051d8                __sfp_lock_release
 .text.__sinit_lock_acquire
                0x00000000000051de        0x6 d:/mounriver_studio/toolchain/risc-v embedded gcc12/bin/../lib/gcc/riscv-none-elf/12.2.0/../../../../riscv-none-elf/lib/rv32imac_xw/ilp32\libg_nano.a(lib_a-findfp.o)
                0x00000000000051de                __sinit_lock_acquire
 .text.__sinit_lock_release
                0x00000000000051e4        0x6 d:/mounriver_studio/toolchain/risc-v embedded gcc12/bin/../lib/gcc/riscv-none-elf/12.2.0/../../../../riscv-none-elf/lib/rv32imac_xw/ilp32\libg_nano.a(lib_a-findfp.o)
                0x00000000000051e4                __sinit_lock_release
 .text.__sinit  0x00000000000051ea       0x6e d:/mounriver_studio/toolchain/risc-v embedded gcc12/bin/../lib/gcc/riscv-none-elf/12.2.0/../../../../riscv-none-elf/lib/rv32imac_xw/ilp32\libg_nano.a(lib_a-findfp.o)
                0x00000000000051ea                __sinit
 .text.__sfp    0x0000000000005258       0xac d:/mounriver_studio/toolchain/risc-v embedded gcc12/bin/../lib/gcc/riscv-none-elf/12.2.0/../../../../riscv-none-elf/lib/rv32imac_xw/ilp32\libg_nano.a(lib_a-findfp.o)
                0x0000000000005258                __sfp
 .text.fprintf  0x0000000000005304       0x24 d:/mounriver_studio/toolchain/risc-v embedded gcc12/bin/../lib/gcc/riscv-none-elf/12.2.0/../../../../riscv-none-elf/lib/rv32imac_xw/ilp32\libg_nano.a(lib_a-fprintf.o)
                0x0000000000005304                fiprintf
                0x0000000000005304                fprintf
 .text._fwalk_reent
                0x0000000000005328       0x68 d:/mounriver_studio/toolchain/risc-v embedded gcc12/bin/../lib/gcc/riscv-none-elf/12.2.0/../../../../riscv-none-elf/lib/rv32imac_xw/ilp32\libg_nano.a(lib_a-fwalk.o)
                0x0000000000005328                _fwalk_reent
 .text.__retarget_lock_init_recursive
                0x0000000000005390        0x2 d:/mounriver_studio/toolchain/risc-v embedded gcc12/bin/../lib/gcc/riscv-none-elf/12.2.0/../../../../riscv-none-elf/lib/rv32imac_xw/ilp32\libg_nano.a(lib_a-lock.o)
                0x0000000000005390                __retarget_lock_init_recursive
 .text.__retarget_lock_acquire_recursive
                0x0000000000005392        0x2 d:/mounriver_studio/toolchain/risc-v embedded gcc12/bin/../lib/gcc/riscv-none-elf/12.2.0/../../../../riscv-none-elf/lib/rv32imac_xw/ilp32\libg_nano.a(lib_a-lock.o)
                0x0000000000005392                __retarget_lock_acquire_recursive
 .text.__retarget_lock_release_recursive
                0x0000000000005394        0x2 d:/mounriver_studio/toolchain/risc-v embedded gcc12/bin/../lib/gcc/riscv-none-elf/12.2.0/../../../../riscv-none-elf/lib/rv32imac_xw/ilp32\libg_nano.a(lib_a-lock.o)
                0x0000000000005394                __retarget_lock_release_recursive
 .text.__swhatbuf_r
                0x0000000000005396       0x5a d:/mounriver_studio/toolchain/risc-v embedded gcc12/bin/../lib/gcc/riscv-none-elf/12.2.0/../../../../riscv-none-elf/lib/rv32imac_xw/ilp32\libg_nano.a(lib_a-makebuf.o)
                0x0000000000005396                __swhatbuf_r
 .text.__smakebuf_r
                0x00000000000053f0       0x92 d:/mounriver_studio/toolchain/risc-v embedded gcc12/bin/../lib/gcc/riscv-none-elf/12.2.0/../../../../riscv-none-elf/lib/rv32imac_xw/ilp32\libg_nano.a(lib_a-makebuf.o)
                0x00000000000053f0                __smakebuf_r
 .text.malloc   0x0000000000005482        0x8 d:/mounriver_studio/toolchain/risc-v embedded gcc12/bin/../lib/gcc/riscv-none-elf/12.2.0/../../../../riscv-none-elf/lib/rv32imac_xw/ilp32\libg_nano.a(lib_a-malloc.o)
                0x0000000000005482                malloc
 .text._free_r  0x000000000000548a       0x9e d:/mounriver_studio/toolchain/risc-v embedded gcc12/bin/../lib/gcc/riscv-none-elf/12.2.0/../../../../riscv-none-elf/lib/rv32imac_xw/ilp32\libg_nano.a(lib_a-nano-freer.o)
                0x000000000000548a                _free_r
 .text.sbrk_aligned
                0x0000000000005528       0x54 d:/mounriver_studio/toolchain/risc-v embedded gcc12/bin/../lib/gcc/riscv-none-elf/12.2.0/../../../../riscv-none-elf/lib/rv32imac_xw/ilp32\libg_nano.a(lib_a-nano-mallocr.o)
 .text._malloc_r
                0x000000000000557c      0x10c d:/mounriver_studio/toolchain/risc-v embedded gcc12/bin/../lib/gcc/riscv-none-elf/12.2.0/../../../../riscv-none-elf/lib/rv32imac_xw/ilp32\libg_nano.a(lib_a-nano-mallocr.o)
                0x000000000000557c                _malloc_r
 .text.__sfputc_r
                0x0000000000005688       0x28 d:/mounriver_studio/toolchain/risc-v embedded gcc12/bin/../lib/gcc/riscv-none-elf/12.2.0/../../../../riscv-none-elf/lib/rv32imac_xw/ilp32\libg_nano.a(lib_a-nano-vfprintf.o)
 .text.__sfputs_r
                0x00000000000056b0       0x42 d:/mounriver_studio/toolchain/risc-v embedded gcc12/bin/../lib/gcc/riscv-none-elf/12.2.0/../../../../riscv-none-elf/lib/rv32imac_xw/ilp32\libg_nano.a(lib_a-nano-vfprintf.o)
                0x00000000000056b0                __sfputs_r
 .text._vfprintf_r
                0x00000000000056f2      0x2c0 d:/mounriver_studio/toolchain/risc-v embedded gcc12/bin/../lib/gcc/riscv-none-elf/12.2.0/../../../../riscv-none-elf/lib/rv32imac_xw/ilp32\libg_nano.a(lib_a-nano-vfprintf.o)
                0x00000000000056f2                _vfprintf_r
                0x00000000000056f2                _vfiprintf_r
 .text._sbrk_r  0x00000000000059b2       0x28 d:/mounriver_studio/toolchain/risc-v embedded gcc12/bin/../lib/gcc/riscv-none-elf/12.2.0/../../../../riscv-none-elf/lib/rv32imac_xw/ilp32\libg_nano.a(lib_a-sbrkr.o)
                0x00000000000059b2                _sbrk_r
 .text.__sread  0x00000000000059da       0x2c d:/mounriver_studio/toolchain/risc-v embedded gcc12/bin/../lib/gcc/riscv-none-elf/12.2.0/../../../../riscv-none-elf/lib/rv32imac_xw/ilp32\libg_nano.a(lib_a-stdio.o)
                0x00000000000059da                __sread
 .text.__swrite
                0x0000000000005a06       0x48 d:/mounriver_studio/toolchain/risc-v embedded gcc12/bin/../lib/gcc/riscv-none-elf/12.2.0/../../../../riscv-none-elf/lib/rv32imac_xw/ilp32\libg_nano.a(lib_a-stdio.o)
                0x0000000000005a06                __swrite
 .text.__sseek  0x0000000000005a4e       0x30 d:/mounriver_studio/toolchain/risc-v embedded gcc12/bin/../lib/gcc/riscv-none-elf/12.2.0/../../../../riscv-none-elf/lib/rv32imac_xw/ilp32\libg_nano.a(lib_a-stdio.o)
                0x0000000000005a4e                __sseek
 .text.__sclose
                0x0000000000005a7e        0x6 d:/mounriver_studio/toolchain/risc-v embedded gcc12/bin/../lib/gcc/riscv-none-elf/12.2.0/../../../../riscv-none-elf/lib/rv32imac_xw/ilp32\libg_nano.a(lib_a-stdio.o)
                0x0000000000005a7e                __sclose
 .text._write_r
                0x0000000000005a84       0x2c d:/mounriver_studio/toolchain/risc-v embedded gcc12/bin/../lib/gcc/riscv-none-elf/12.2.0/../../../../riscv-none-elf/lib/rv32imac_xw/ilp32\libg_nano.a(lib_a-writer.o)
                0x0000000000005a84                _write_r
 .text.abort    0x0000000000005ab0        0xc d:/mounriver_studio/toolchain/risc-v embedded gcc12/bin/../lib/gcc/riscv-none-elf/12.2.0/../../../../riscv-none-elf/lib/rv32imac_xw/ilp32\libg_nano.a(lib_a-abort.o)
                0x0000000000005ab0                abort
 .text._close_r
                0x0000000000005abc       0x26 d:/mounriver_studio/toolchain/risc-v embedded gcc12/bin/../lib/gcc/riscv-none-elf/12.2.0/../../../../riscv-none-elf/lib/rv32imac_xw/ilp32\libg_nano.a(lib_a-closer.o)
                0x0000000000005abc                _close_r
 .text._fstat_r
                0x0000000000005ae2       0x28 d:/mounriver_studio/toolchain/risc-v embedded gcc12/bin/../lib/gcc/riscv-none-elf/12.2.0/../../../../riscv-none-elf/lib/rv32imac_xw/ilp32\libg_nano.a(lib_a-fstatr.o)
                0x0000000000005ae2                _fstat_r
 .text._isatty_r
                0x0000000000005b0a       0x26 d:/mounriver_studio/toolchain/risc-v embedded gcc12/bin/../lib/gcc/riscv-none-elf/12.2.0/../../../../riscv-none-elf/lib/rv32imac_xw/ilp32\libg_nano.a(lib_a-isattyr.o)
                0x0000000000005b0a                _isatty_r
 .text._lseek_r
                0x0000000000005b30       0x2a d:/mounriver_studio/toolchain/risc-v embedded gcc12/bin/../lib/gcc/riscv-none-elf/12.2.0/../../../../riscv-none-elf/lib/rv32imac_xw/ilp32\libg_nano.a(lib_a-lseekr.o)
                0x0000000000005b30                _lseek_r
 .text.memchr   0x0000000000005b5a       0x18 d:/mounriver_studio/toolchain/risc-v embedded gcc12/bin/../lib/gcc/riscv-none-elf/12.2.0/../../../../riscv-none-elf/lib/rv32imac_xw/ilp32\libg_nano.a(lib_a-memchr.o)
                0x0000000000005b5a                memchr
 .text.__malloc_lock
                0x0000000000005b72        0x8 d:/mounriver_studio/toolchain/risc-v embedded gcc12/bin/../lib/gcc/riscv-none-elf/12.2.0/../../../../riscv-none-elf/lib/rv32imac_xw/ilp32\libg_nano.a(lib_a-mlock.o)
                0x0000000000005b72                __malloc_lock
 .text.__malloc_unlock
                0x0000000000005b7a        0x8 d:/mounriver_studio/toolchain/risc-v embedded gcc12/bin/../lib/gcc/riscv-none-elf/12.2.0/../../../../riscv-none-elf/lib/rv32imac_xw/ilp32\libg_nano.a(lib_a-mlock.o)
                0x0000000000005b7a                __malloc_unlock
 .text._printf_common
                0x0000000000005b82      0x110 d:/mounriver_studio/toolchain/risc-v embedded gcc12/bin/../lib/gcc/riscv-none-elf/12.2.0/../../../../riscv-none-elf/lib/rv32imac_xw/ilp32\libg_nano.a(lib_a-nano-vfprintf_i.o)
                0x0000000000005b82                _printf_common
 .text._printf_i
                0x0000000000005c92      0x27c d:/mounriver_studio/toolchain/risc-v embedded gcc12/bin/../lib/gcc/riscv-none-elf/12.2.0/../../../../riscv-none-elf/lib/rv32imac_xw/ilp32\libg_nano.a(lib_a-nano-vfprintf_i.o)
                0x0000000000005c92                _printf_i
 .text._read_r  0x0000000000005f0e       0x2a d:/mounriver_studio/toolchain/risc-v embedded gcc12/bin/../lib/gcc/riscv-none-elf/12.2.0/../../../../riscv-none-elf/lib/rv32imac_xw/ilp32\libg_nano.a(lib_a-readr.o)
                0x0000000000005f0e                _read_r
 .text._raise_r
                0x0000000000005f38       0x60 d:/mounriver_studio/toolchain/risc-v embedded gcc12/bin/../lib/gcc/riscv-none-elf/12.2.0/../../../../riscv-none-elf/lib/rv32imac_xw/ilp32\libg_nano.a(lib_a-signal.o)
                0x0000000000005f38                _raise_r
 .text.raise    0x0000000000005f98        0xa d:/mounriver_studio/toolchain/risc-v embedded gcc12/bin/../lib/gcc/riscv-none-elf/12.2.0/../../../../riscv-none-elf/lib/rv32imac_xw/ilp32\libg_nano.a(lib_a-signal.o)
                0x0000000000005f98                raise
 .text._kill_r  0x0000000000005fa2       0x28 d:/mounriver_studio/toolchain/risc-v embedded gcc12/bin/../lib/gcc/riscv-none-elf/12.2.0/../../../../riscv-none-elf/lib/rv32imac_xw/ilp32\libg_nano.a(lib_a-signalr.o)
                0x0000000000005fa2                _kill_r
 .text._getpid_r
                0x0000000000005fca        0x2 d:/mounriver_studio/toolchain/risc-v embedded gcc12/bin/../lib/gcc/riscv-none-elf/12.2.0/../../../../riscv-none-elf/lib/rv32imac_xw/ilp32\libg_nano.a(lib_a-signalr.o)
                0x0000000000005fca                _getpid_r
 .text._close   0x0000000000005fcc        0xc d:/mounriver_studio/toolchain/risc-v embedded gcc12/bin/../lib/gcc/riscv-none-elf/12.2.0/../../../../riscv-none-elf/lib/rv32imac_xw/ilp32\libnosys.a(close.o)
                0x0000000000005fcc                _close
 .text._fstat   0x0000000000005fd8        0xc d:/mounriver_studio/toolchain/risc-v embedded gcc12/bin/../lib/gcc/riscv-none-elf/12.2.0/../../../../riscv-none-elf/lib/rv32imac_xw/ilp32\libnosys.a(fstat.o)
                0x0000000000005fd8                _fstat
 .text._getpid  0x0000000000005fe4        0xc d:/mounriver_studio/toolchain/risc-v embedded gcc12/bin/../lib/gcc/riscv-none-elf/12.2.0/../../../../riscv-none-elf/lib/rv32imac_xw/ilp32\libnosys.a(getpid.o)
                0x0000000000005fe4                _getpid
 .text._isatty  0x0000000000005ff0        0xc d:/mounriver_studio/toolchain/risc-v embedded gcc12/bin/../lib/gcc/riscv-none-elf/12.2.0/../../../../riscv-none-elf/lib/rv32imac_xw/ilp32\libnosys.a(isatty.o)
                0x0000000000005ff0                _isatty
 .text._kill    0x0000000000005ffc        0xc d:/mounriver_studio/toolchain/risc-v embedded gcc12/bin/../lib/gcc/riscv-none-elf/12.2.0/../../../../riscv-none-elf/lib/rv32imac_xw/ilp32\libnosys.a(kill.o)
                0x0000000000005ffc                _kill
 .text._lseek   0x0000000000006008        0xc d:/mounriver_studio/toolchain/risc-v embedded gcc12/bin/../lib/gcc/riscv-none-elf/12.2.0/../../../../riscv-none-elf/lib/rv32imac_xw/ilp32\libnosys.a(lseek.o)
                0x0000000000006008                _lseek
 .text._read    0x0000000000006014        0xc d:/mounriver_studio/toolchain/risc-v embedded gcc12/bin/../lib/gcc/riscv-none-elf/12.2.0/../../../../riscv-none-elf/lib/rv32imac_xw/ilp32\libnosys.a(read.o)
                0x0000000000006014                _read
 .text._exit    0x0000000000006020        0x2 d:/mounriver_studio/toolchain/risc-v embedded gcc12/bin/../lib/gcc/riscv-none-elf/12.2.0/../../../../riscv-none-elf/lib/rv32imac_xw/ilp32\libnosys.a(_exit.o)
                0x0000000000006020                _exit
 *(.rodata)
 *(.rodata*)
 *fill*         0x0000000000006022        0x2 
 .rodata.HardFault_Handler.str1.4
                0x0000000000006024       0x3b ./user/ch32v20x_it.o
 *fill*         0x000000000000605f        0x1 
 .rodata.pit_callback
                0x0000000000006060       0x1c ./bldc_software/control.o
 .rodata.motor_commutation_execute
                0x000000000000607c       0x18 ./bldc_software/motor.o
 .rodata.__divdf3
                0x0000000000006094       0x40 d:/mounriver_studio/toolchain/risc-v embedded gcc12/bin/../lib/gcc/riscv-none-elf/12.2.0/rv32imac_xw/ilp32\libgcc.a(divdf3.o)
 .rodata.__divsf3
                0x00000000000060d4       0xa8 d:/mounriver_studio/toolchain/risc-v embedded gcc12/bin/../lib/gcc/riscv-none-elf/12.2.0/rv32imac_xw/ilp32\libgcc.a(divsf3.o)
 .rodata.__clz_tab
                0x000000000000617c      0x100 d:/mounriver_studio/toolchain/risc-v embedded gcc12/bin/../lib/gcc/riscv-none-elf/12.2.0/rv32imac_xw/ilp32\libgcc.a(_clz.o)
                0x000000000000617c                __clz_tab
 .rodata.srand.str1.4
                0x000000000000627c       0x8c d:/mounriver_studio/toolchain/risc-v embedded gcc12/bin/../lib/gcc/riscv-none-elf/12.2.0/../../../../riscv-none-elf/lib/rv32imac_xw/ilp32\libg_nano.a(lib_a-rand.o)
 .rodata.__assert_func.str1.4
                0x0000000000006308       0x3f d:/mounriver_studio/toolchain/risc-v embedded gcc12/bin/../lib/gcc/riscv-none-elf/12.2.0/../../../../riscv-none-elf/lib/rv32imac_xw/ilp32\libg_nano.a(lib_a-assert.o)
                                         0x43 (size before relaxing)
 *fill*         0x0000000000006347        0x1 
 .rodata.__sf_fake_stderr
                0x0000000000006348       0x20 d:/mounriver_studio/toolchain/risc-v embedded gcc12/bin/../lib/gcc/riscv-none-elf/12.2.0/../../../../riscv-none-elf/lib/rv32imac_xw/ilp32\libg_nano.a(lib_a-findfp.o)
                0x0000000000006348                __sf_fake_stderr
 .rodata.__sf_fake_stdout
                0x0000000000006368       0x20 d:/mounriver_studio/toolchain/risc-v embedded gcc12/bin/../lib/gcc/riscv-none-elf/12.2.0/../../../../riscv-none-elf/lib/rv32imac_xw/ilp32\libg_nano.a(lib_a-findfp.o)
                0x0000000000006368                __sf_fake_stdout
 .rodata.__sf_fake_stdin
                0x0000000000006388       0x20 d:/mounriver_studio/toolchain/risc-v embedded gcc12/bin/../lib/gcc/riscv-none-elf/12.2.0/../../../../riscv-none-elf/lib/rv32imac_xw/ilp32\libg_nano.a(lib_a-findfp.o)
                0x0000000000006388                __sf_fake_stdin
 .rodata._vfprintf_r.str1.4
                0x00000000000063a8       0x13 d:/mounriver_studio/toolchain/risc-v embedded gcc12/bin/../lib/gcc/riscv-none-elf/12.2.0/../../../../riscv-none-elf/lib/rv32imac_xw/ilp32\libg_nano.a(lib_a-nano-vfprintf.o)
 *fill*         0x00000000000063bb        0x1 
 .rodata._printf_i.str1.4
                0x00000000000063bc       0x25 d:/mounriver_studio/toolchain/risc-v embedded gcc12/bin/../lib/gcc/riscv-none-elf/12.2.0/../../../../riscv-none-elf/lib/rv32imac_xw/ilp32\libg_nano.a(lib_a-nano-vfprintf_i.o)
 *fill*         0x00000000000063e1        0x3 
 .rodata._printf_i
                0x00000000000063e4       0x58 d:/mounriver_studio/toolchain/risc-v embedded gcc12/bin/../lib/gcc/riscv-none-elf/12.2.0/../../../../riscv-none-elf/lib/rv32imac_xw/ilp32\libg_nano.a(lib_a-nano-vfprintf_i.o)
 *(.glue_7)
 *(.glue_7t)
 *(.gnu.linkonce.t.*)
                0x000000000000643c                . = ALIGN (0x4)

.rela.dyn       0x000000000000643c        0x0
 .rela.init     0x000000000000643c        0x0 ./wch_sdk/Startup/startup_ch32v20x_D6.o
 .rela.vector   0x000000000000643c        0x0 ./wch_sdk/Startup/startup_ch32v20x_D6.o
 .rela.text.handle_reset
                0x000000000000643c        0x0 ./wch_sdk/Startup/startup_ch32v20x_D6.o
 .rela.text._sbrk
                0x000000000000643c        0x0 ./wch_sdk/Startup/startup_ch32v20x_D6.o
 .rela.sdata.curbrk.0
                0x000000000000643c        0x0 ./wch_sdk/Startup/startup_ch32v20x_D6.o
 .rela.text.set_vector_table_free
                0x000000000000643c        0x0 ./wch_sdk/Startup/startup_ch32v20x_D6.o
 .rela.text._vfprintf_r
                0x000000000000643c        0x0 ./wch_sdk/Startup/startup_ch32v20x_D6.o

.fini           0x000000000000643c        0x0
 *(SORT_NONE(.fini))
                0x000000000000643c                . = ALIGN (0x4)
                [!provide]                        PROVIDE (_etext = .)
                [!provide]                        PROVIDE (_eitcm = .)

.preinit_array  0x000000000000643c        0x0
                [!provide]                        PROVIDE (__preinit_array_start = .)
 *(.preinit_array)
                [!provide]                        PROVIDE (__preinit_array_end = .)

.init_array     0x000000000000643c        0x0
                [!provide]                        PROVIDE (__init_array_start = .)
 *(SORT_BY_INIT_PRIORITY(.init_array.*) SORT_BY_INIT_PRIORITY(.ctors.*))
 *(.init_array EXCLUDE_FILE(*crtend?.o *crtend.o *crtbegin?.o *crtbegin.o) .ctors)
                [!provide]                        PROVIDE (__init_array_end = .)

.fini_array     0x000000000000643c        0x0
                [!provide]                        PROVIDE (__fini_array_start = .)
 *(SORT_BY_INIT_PRIORITY(.fini_array.*) SORT_BY_INIT_PRIORITY(.dtors.*))
 *(.fini_array EXCLUDE_FILE(*crtend?.o *crtend.o *crtbegin?.o *crtbegin.o) .dtors)
                [!provide]                        PROVIDE (__fini_array_end = .)

.ctors
 *crtbegin.o(.ctors)
 *crtbegin?.o(.ctors)
 *(EXCLUDE_FILE(*crtend?.o *crtend.o) .ctors)
 *(SORT_BY_NAME(.ctors.*))
 *(.ctors)

.dtors
 *crtbegin.o(.dtors)
 *crtbegin?.o(.dtors)
 *(EXCLUDE_FILE(*crtend?.o *crtend.o) .dtors)
 *(SORT_BY_NAME(.dtors.*))
 *(.dtors)

.dalign         0x0000000020000000        0x0 load address 0x000000000000643c
                0x0000000020000000                . = ALIGN (0x4)
                0x0000000020000000                PROVIDE (_data_vma = .)

.dlalign        0x000000000000643c        0x0
                0x000000000000643c                . = ALIGN (0x4)
                0x000000000000643c                PROVIDE (_data_lma = .)

.data           0x0000000020000000       0xe8 load address 0x000000000000643c
 *(.gnu.linkonce.r.*)
 *(.data .data.*)
 .data.APBAHBPrescTable
                0x0000000020000000       0x10 ./wch_sdk/Peripheral/src/ch32v20x_rcc.o
 .data.impure_data
                0x0000000020000010       0x60 d:/mounriver_studio/toolchain/risc-v embedded gcc12/bin/../lib/gcc/riscv-none-elf/12.2.0/../../../../riscv-none-elf/lib/rv32imac_xw/ilp32\libg_nano.a(lib_a-impure.o)
 *(.gnu.linkonce.d.*)
                0x0000000020000070                . = ALIGN (0x8)
                0x0000000020000870                PROVIDE (__global_pointer$ = (. + 0x800))
 *(.sdata .sdata.*)
 .sdata.ADCPrescTable
                0x0000000020000070        0x4 ./wch_sdk/Peripheral/src/ch32v20x_rcc.o
 .sdata.curbrk.0
                0x0000000020000074        0x4 ./wch_sdk/Debug/debug.o
 .sdata.SystemCoreClock
                0x0000000020000078        0x4 ./user/system_ch32v20x.o
                0x0000000020000078                SystemCoreClock
 .sdata.restart_delay.0
                0x000000002000007c        0x2 ./bldc_software/control.o
 *fill*         0x000000002000007e        0x2 
 .sdata._impure_ptr
                0x0000000020000080        0x4 d:/mounriver_studio/toolchain/risc-v embedded gcc12/bin/../lib/gcc/riscv-none-elf/12.2.0/../../../../riscv-none-elf/lib/rv32imac_xw/ilp32\libg_nano.a(lib_a-impure.o)
                0x0000000020000080                _impure_ptr
 *(.sdata2.*)
 *(.gnu.linkonce.s.*)
                0x0000000020000088                . = ALIGN (0x8)
 *fill*         0x0000000020000084        0x4 
 *(.srodata.cst16)
 *(.srodata.cst8)
 .srodata.cst8  0x0000000020000088       0x18 ./user/main.o
 .srodata.cst8  0x00000000200000a0       0x18 ./bldc_hardware/pwm_input.o
 .srodata.cst8  0x00000000200000b8       0x10 ./addition_hardware/battery.o
 *(.srodata.cst4)
 .srodata.cst4  0x00000000200000c8        0x8 ./user/ch32v20x_it.o
 .srodata.cst4  0x00000000200000d0       0x10 ./bldc_software/control.o
 .srodata.cst4  0x00000000200000e0        0x4 ./addition_hardware/battery.o
 *(.srodata.cst2)
 *(.srodata .srodata.*)
 .srodata._global_impure_ptr
                0x00000000200000e4        0x4 d:/mounriver_studio/toolchain/risc-v embedded gcc12/bin/../lib/gcc/riscv-none-elf/12.2.0/../../../../riscv-none-elf/lib/rv32imac_xw/ilp32\libg_nano.a(lib_a-impure.o)
                0x00000000200000e4                _global_impure_ptr
                0x00000000200000e8                . = ALIGN (0x4)
                0x00000000200000e8                PROVIDE (_edata = .)

.bss            0x00000000200000e8       0x88 load address 0x0000000000006524
                0x00000000200000e8                . = ALIGN (0x4)
                0x00000000200000e8                PROVIDE (_sbss = .)
 *(.sbss*)
 .sbss.MCU_Version
                0x00000000200000e8        0x1 ./wch_sdk/Peripheral/src/ch32v20x_gpio.o
                0x00000000200000e8                MCU_Version
 .sbss.clac_flag
                0x00000000200000e9        0x1 ./user/ch32v20x_it.o
                0x00000000200000e9                clac_flag
 .sbss.period_time
                0x00000000200000ea        0x2 ./user/ch32v20x_it.o
                0x00000000200000ea                period_time
 .sbss.restart_count.1
                0x00000000200000ec        0x1 ./bldc_software/control.o
 .sbss.oled_pin_state.2
                0x00000000200000ed        0x1 ./bldc_software/control.o
 .sbss.gpio_state.3
                0x00000000200000ee        0x1 ./bldc_software/control.o
 *fill*         0x00000000200000ef        0x1 
 .sbss.stall_time_out_check.4
                0x00000000200000f0        0x2 ./bldc_software/control.o
 .sbss.temp_commutation_time
                0x00000000200000f2        0x2 ./bldc_software/control.o
 .sbss.low_power_num.0
                0x00000000200000f4        0x2 ./addition_hardware/battery.o
 *fill*         0x00000000200000f6        0x2 
 .sbss.battery  0x00000000200000f8        0x4 ./addition_hardware/battery.o
                0x00000000200000f8                battery
 .sbss.time_count.0
                0x00000000200000fc        0x4 ./addition_hardware/led.o
 .sbss.__lock___malloc_recursive_mutex
                0x0000000020000100        0x1 d:/mounriver_studio/toolchain/risc-v embedded gcc12/bin/../lib/gcc/riscv-none-elf/12.2.0/../../../../riscv-none-elf/lib/rv32imac_xw/ilp32\libg_nano.a(lib_a-lock.o)
                0x0000000020000100                __lock___malloc_recursive_mutex
 *fill*         0x0000000020000101        0x3 
 .sbss.__lock___sfp_recursive_mutex
                0x0000000020000104        0x1 d:/mounriver_studio/toolchain/risc-v embedded gcc12/bin/../lib/gcc/riscv-none-elf/12.2.0/../../../../riscv-none-elf/lib/rv32imac_xw/ilp32\libg_nano.a(lib_a-lock.o)
                0x0000000020000104                __lock___sfp_recursive_mutex
 *fill*         0x0000000020000105        0x3 
 .sbss.__lock___sinit_recursive_mutex
                0x0000000020000108        0x1 d:/mounriver_studio/toolchain/risc-v embedded gcc12/bin/../lib/gcc/riscv-none-elf/12.2.0/../../../../riscv-none-elf/lib/rv32imac_xw/ilp32\libg_nano.a(lib_a-lock.o)
                0x0000000020000108                __lock___sinit_recursive_mutex
 *fill*         0x0000000020000109        0x3 
 .sbss.__malloc_sbrk_start
                0x000000002000010c        0x4 d:/mounriver_studio/toolchain/risc-v embedded gcc12/bin/../lib/gcc/riscv-none-elf/12.2.0/../../../../riscv-none-elf/lib/rv32imac_xw/ilp32\libg_nano.a(lib_a-nano-mallocr.o)
                0x000000002000010c                __malloc_sbrk_start
 .sbss.__malloc_free_list
                0x0000000020000110        0x4 d:/mounriver_studio/toolchain/risc-v embedded gcc12/bin/../lib/gcc/riscv-none-elf/12.2.0/../../../../riscv-none-elf/lib/rv32imac_xw/ilp32\libg_nano.a(lib_a-nano-mallocr.o)
                0x0000000020000110                __malloc_free_list
 .sbss.errno    0x0000000020000114        0x4 d:/mounriver_studio/toolchain/risc-v embedded gcc12/bin/../lib/gcc/riscv-none-elf/12.2.0/../../../../riscv-none-elf/lib/rv32imac_xw/ilp32\libg_nano.a(lib_a-reent.o)
                0x0000000020000114                errno
 *(.gnu.linkonce.sb.*)
 *(.bss*)
 .bss.motor     0x0000000020000118       0x28 ./bldc_software/motor.o
                0x0000000020000118                motor
 .bss.motor_pwm_input_value
                0x0000000020000140        0xa ./bldc_hardware/pwm_input.o
                0x0000000020000140                motor_pwm_input_value
 *fill*         0x000000002000014a        0x2 
 .bss.fan       0x000000002000014c       0x24 ./bldc_hardware/pwm_input.o
                0x000000002000014c                fan
 *(.gnu.linkonce.b.*)
 *(COMMON*)
                0x0000000020000170                . = ALIGN (0x4)
                0x0000000020000170                PROVIDE (_ebss = .)
                0x0000000020000170                PROVIDE (_end = _ebss)
                [!provide]                        PROVIDE (end = .)

.stack          0x0000000020004800      0x800
                0x0000000020004800                PROVIDE (_heap_end = .)
                0x0000000020004800                . = ALIGN (0x4)
                [!provide]                        PROVIDE (_susrstack = .)
                0x0000000020005000                . = (. + __stack_size)
 *fill*         0x0000000020004800      0x800 
                0x0000000020005000                PROVIDE (_eusrstack = .)
OUTPUT(CH32V203C8T6_ESC_1.elf elf32-littleriscv)

.riscv.attributes
                0x0000000000000000       0x35
 .riscv.attributes
                0x0000000000000000       0x33 ./wch_sdk/Startup/startup_ch32v20x_D6.o
 .riscv.attributes
                0x0000000000000033       0x31 ./wch_sdk/Peripheral/src/ch32v20x_adc.o
 .riscv.attributes
                0x0000000000000064       0x31 ./wch_sdk/Peripheral/src/ch32v20x_dma.o
 .riscv.attributes
                0x0000000000000095       0x31 ./wch_sdk/Peripheral/src/ch32v20x_exti.o
 .riscv.attributes
                0x00000000000000c6       0x31 ./wch_sdk/Peripheral/src/ch32v20x_gpio.o
 .riscv.attributes
                0x00000000000000f7       0x31 ./wch_sdk/Peripheral/src/ch32v20x_iwdg.o
 .riscv.attributes
                0x0000000000000128       0x31 ./wch_sdk/Peripheral/src/ch32v20x_rcc.o
 .riscv.attributes
                0x0000000000000159       0x31 ./wch_sdk/Peripheral/src/ch32v20x_tim.o
 .riscv.attributes
                0x000000000000018a       0x31 ./wch_sdk/Peripheral/src/ch32v20x_usart.o
 .riscv.attributes
                0x00000000000001bb       0x31 ./wch_sdk/Debug/debug.o
 .riscv.attributes
                0x00000000000001ec       0x35 ./wch_sdk/Core/core_riscv.o
 .riscv.attributes
                0x0000000000000221       0x35 ./user/ch32v20x_it.o
 .riscv.attributes
                0x0000000000000256       0x31 ./user/main.o
 .riscv.attributes
                0x0000000000000287       0x31 ./user/system_ch32v20x.o
 .riscv.attributes
                0x00000000000002b8       0x31 ./bldc_software/control.o
 .riscv.attributes
                0x00000000000002e9       0x31 ./bldc_software/motor.o
 .riscv.attributes
                0x000000000000031a       0x31 ./bldc_hardware/operational_amplifier.o
 .riscv.attributes
                0x000000000000034b       0x31 ./bldc_hardware/pwm_input.o
 .riscv.attributes
                0x000000000000037c       0x31 ./bldc_hardware/pwm_output.o
 .riscv.attributes
                0x00000000000003ad       0x31 ./addition_software/seekfree_assistant.o
 .riscv.attributes
                0x00000000000003de       0x31 ./addition_software/seekfree_assistant_interface.o
 .riscv.attributes
                0x000000000000040f       0x31 ./addition_hardware/battery.o
 .riscv.attributes
                0x0000000000000440       0x31 ./addition_hardware/delay.o
 .riscv.attributes
                0x0000000000000471       0x31 ./addition_hardware/iwdg.o
 .riscv.attributes
                0x00000000000004a2       0x31 ./addition_hardware/led.o
 .riscv.attributes
                0x00000000000004d3       0x31 ./addition_hardware/usart.o
 .riscv.attributes
                0x0000000000000504       0x31 d:/mounriver_studio/toolchain/risc-v embedded gcc12/bin/../lib/gcc/riscv-none-elf/12.2.0/rv32imac_xw/ilp32\libgcc.a(divdf3.o)
 .riscv.attributes
                0x0000000000000535       0x31 d:/mounriver_studio/toolchain/risc-v embedded gcc12/bin/../lib/gcc/riscv-none-elf/12.2.0/rv32imac_xw/ilp32\libgcc.a(muldf3.o)
 .riscv.attributes
                0x0000000000000566       0x31 d:/mounriver_studio/toolchain/risc-v embedded gcc12/bin/../lib/gcc/riscv-none-elf/12.2.0/rv32imac_xw/ilp32\libgcc.a(fixunsdfsi.o)
 .riscv.attributes
                0x0000000000000597       0x31 d:/mounriver_studio/toolchain/risc-v embedded gcc12/bin/../lib/gcc/riscv-none-elf/12.2.0/rv32imac_xw/ilp32\libgcc.a(floatunsidf.o)
 .riscv.attributes
                0x00000000000005c8       0x31 d:/mounriver_studio/toolchain/risc-v embedded gcc12/bin/../lib/gcc/riscv-none-elf/12.2.0/rv32imac_xw/ilp32\libgcc.a(addsf3.o)
 .riscv.attributes
                0x00000000000005f9       0x31 d:/mounriver_studio/toolchain/risc-v embedded gcc12/bin/../lib/gcc/riscv-none-elf/12.2.0/rv32imac_xw/ilp32\libgcc.a(divsf3.o)
 .riscv.attributes
                0x000000000000062a       0x31 d:/mounriver_studio/toolchain/risc-v embedded gcc12/bin/../lib/gcc/riscv-none-elf/12.2.0/rv32imac_xw/ilp32\libgcc.a(gesf2.o)
 .riscv.attributes
                0x000000000000065b       0x31 d:/mounriver_studio/toolchain/risc-v embedded gcc12/bin/../lib/gcc/riscv-none-elf/12.2.0/rv32imac_xw/ilp32\libgcc.a(lesf2.o)
 .riscv.attributes
                0x000000000000068c       0x31 d:/mounriver_studio/toolchain/risc-v embedded gcc12/bin/../lib/gcc/riscv-none-elf/12.2.0/rv32imac_xw/ilp32\libgcc.a(mulsf3.o)
 .riscv.attributes
                0x00000000000006bd       0x31 d:/mounriver_studio/toolchain/risc-v embedded gcc12/bin/../lib/gcc/riscv-none-elf/12.2.0/rv32imac_xw/ilp32\libgcc.a(subsf3.o)
 .riscv.attributes
                0x00000000000006ee       0x31 d:/mounriver_studio/toolchain/risc-v embedded gcc12/bin/../lib/gcc/riscv-none-elf/12.2.0/rv32imac_xw/ilp32\libgcc.a(fixsfsi.o)
 .riscv.attributes
                0x000000000000071f       0x31 d:/mounriver_studio/toolchain/risc-v embedded gcc12/bin/../lib/gcc/riscv-none-elf/12.2.0/rv32imac_xw/ilp32\libgcc.a(floatsisf.o)
 .riscv.attributes
                0x0000000000000750       0x31 d:/mounriver_studio/toolchain/risc-v embedded gcc12/bin/../lib/gcc/riscv-none-elf/12.2.0/rv32imac_xw/ilp32\libgcc.a(floatunsisf.o)
 .riscv.attributes
                0x0000000000000781       0x31 d:/mounriver_studio/toolchain/risc-v embedded gcc12/bin/../lib/gcc/riscv-none-elf/12.2.0/rv32imac_xw/ilp32\libgcc.a(extendsfdf2.o)
 .riscv.attributes
                0x00000000000007b2       0x31 d:/mounriver_studio/toolchain/risc-v embedded gcc12/bin/../lib/gcc/riscv-none-elf/12.2.0/rv32imac_xw/ilp32\libgcc.a(truncdfsf2.o)
 .riscv.attributes
                0x00000000000007e3       0x2f d:/mounriver_studio/toolchain/risc-v embedded gcc12/bin/../lib/gcc/riscv-none-elf/12.2.0/rv32imac_xw/ilp32\libgcc.a(save-restore.o)
 .riscv.attributes
                0x0000000000000812       0x31 d:/mounriver_studio/toolchain/risc-v embedded gcc12/bin/../lib/gcc/riscv-none-elf/12.2.0/rv32imac_xw/ilp32\libgcc.a(_clzsi2.o)
 .riscv.attributes
                0x0000000000000843       0x31 d:/mounriver_studio/toolchain/risc-v embedded gcc12/bin/../lib/gcc/riscv-none-elf/12.2.0/rv32imac_xw/ilp32\libgcc.a(_clz.o)
 .riscv.attributes
                0x0000000000000874       0x2f d:/mounriver_studio/toolchain/risc-v embedded gcc12/bin/../lib/gcc/riscv-none-elf/12.2.0/../../../../riscv-none-elf/lib/rv32imac_xw/ilp32\libg_nano.a(lib_a-memset.o)
 .riscv.attributes
                0x00000000000008a3       0x31 d:/mounriver_studio/toolchain/risc-v embedded gcc12/bin/../lib/gcc/riscv-none-elf/12.2.0/../../../../riscv-none-elf/lib/rv32imac_xw/ilp32\libg_nano.a(lib_a-printf.o)
 .riscv.attributes
                0x00000000000008d4       0x31 d:/mounriver_studio/toolchain/risc-v embedded gcc12/bin/../lib/gcc/riscv-none-elf/12.2.0/../../../../riscv-none-elf/lib/rv32imac_xw/ilp32\libg_nano.a(lib_a-puts.o)
 .riscv.attributes
                0x0000000000000905       0x31 d:/mounriver_studio/toolchain/risc-v embedded gcc12/bin/../lib/gcc/riscv-none-elf/12.2.0/../../../../riscv-none-elf/lib/rv32imac_xw/ilp32\libg_nano.a(lib_a-rand.o)
 .riscv.attributes
                0x0000000000000936       0x31 d:/mounriver_studio/toolchain/risc-v embedded gcc12/bin/../lib/gcc/riscv-none-elf/12.2.0/../../../../riscv-none-elf/lib/rv32imac_xw/ilp32\libg_nano.a(lib_a-wbuf.o)
 .riscv.attributes
                0x0000000000000967       0x31 d:/mounriver_studio/toolchain/risc-v embedded gcc12/bin/../lib/gcc/riscv-none-elf/12.2.0/../../../../riscv-none-elf/lib/rv32imac_xw/ilp32\libg_nano.a(lib_a-wsetup.o)
 .riscv.attributes
                0x0000000000000998       0x31 d:/mounriver_studio/toolchain/risc-v embedded gcc12/bin/../lib/gcc/riscv-none-elf/12.2.0/../../../../riscv-none-elf/lib/rv32imac_xw/ilp32\libg_nano.a(lib_a-assert.o)
 .riscv.attributes
                0x00000000000009c9       0x31 d:/mounriver_studio/toolchain/risc-v embedded gcc12/bin/../lib/gcc/riscv-none-elf/12.2.0/../../../../riscv-none-elf/lib/rv32imac_xw/ilp32\libg_nano.a(lib_a-fflush.o)
 .riscv.attributes
                0x00000000000009fa       0x31 d:/mounriver_studio/toolchain/risc-v embedded gcc12/bin/../lib/gcc/riscv-none-elf/12.2.0/../../../../riscv-none-elf/lib/rv32imac_xw/ilp32\libg_nano.a(lib_a-findfp.o)
 .riscv.attributes
                0x0000000000000a2b       0x31 d:/mounriver_studio/toolchain/risc-v embedded gcc12/bin/../lib/gcc/riscv-none-elf/12.2.0/../../../../riscv-none-elf/lib/rv32imac_xw/ilp32\libg_nano.a(lib_a-fprintf.o)
 .riscv.attributes
                0x0000000000000a5c       0x31 d:/mounriver_studio/toolchain/risc-v embedded gcc12/bin/../lib/gcc/riscv-none-elf/12.2.0/../../../../riscv-none-elf/lib/rv32imac_xw/ilp32\libg_nano.a(lib_a-fwalk.o)
 .riscv.attributes
                0x0000000000000a8d       0x31 d:/mounriver_studio/toolchain/risc-v embedded gcc12/bin/../lib/gcc/riscv-none-elf/12.2.0/../../../../riscv-none-elf/lib/rv32imac_xw/ilp32\libg_nano.a(lib_a-impure.o)
 .riscv.attributes
                0x0000000000000abe       0x31 d:/mounriver_studio/toolchain/risc-v embedded gcc12/bin/../lib/gcc/riscv-none-elf/12.2.0/../../../../riscv-none-elf/lib/rv32imac_xw/ilp32\libg_nano.a(lib_a-lock.o)
 .riscv.attributes
                0x0000000000000aef       0x31 d:/mounriver_studio/toolchain/risc-v embedded gcc12/bin/../lib/gcc/riscv-none-elf/12.2.0/../../../../riscv-none-elf/lib/rv32imac_xw/ilp32\libg_nano.a(lib_a-makebuf.o)
 .riscv.attributes
                0x0000000000000b20       0x31 d:/mounriver_studio/toolchain/risc-v embedded gcc12/bin/../lib/gcc/riscv-none-elf/12.2.0/../../../../riscv-none-elf/lib/rv32imac_xw/ilp32\libg_nano.a(lib_a-malloc.o)
 .riscv.attributes
                0x0000000000000b51       0x31 d:/mounriver_studio/toolchain/risc-v embedded gcc12/bin/../lib/gcc/riscv-none-elf/12.2.0/../../../../riscv-none-elf/lib/rv32imac_xw/ilp32\libg_nano.a(lib_a-nano-freer.o)
 .riscv.attributes
                0x0000000000000b82       0x31 d:/mounriver_studio/toolchain/risc-v embedded gcc12/bin/../lib/gcc/riscv-none-elf/12.2.0/../../../../riscv-none-elf/lib/rv32imac_xw/ilp32\libg_nano.a(lib_a-nano-mallocr.o)
 .riscv.attributes
                0x0000000000000bb3       0x31 d:/mounriver_studio/toolchain/risc-v embedded gcc12/bin/../lib/gcc/riscv-none-elf/12.2.0/../../../../riscv-none-elf/lib/rv32imac_xw/ilp32\libg_nano.a(lib_a-nano-vfprintf.o)
 .riscv.attributes
                0x0000000000000be4       0x31 d:/mounriver_studio/toolchain/risc-v embedded gcc12/bin/../lib/gcc/riscv-none-elf/12.2.0/../../../../riscv-none-elf/lib/rv32imac_xw/ilp32\libg_nano.a(lib_a-sbrkr.o)
 .riscv.attributes
                0x0000000000000c15       0x31 d:/mounriver_studio/toolchain/risc-v embedded gcc12/bin/../lib/gcc/riscv-none-elf/12.2.0/../../../../riscv-none-elf/lib/rv32imac_xw/ilp32\libg_nano.a(lib_a-stdio.o)
 .riscv.attributes
                0x0000000000000c46       0x31 d:/mounriver_studio/toolchain/risc-v embedded gcc12/bin/../lib/gcc/riscv-none-elf/12.2.0/../../../../riscv-none-elf/lib/rv32imac_xw/ilp32\libg_nano.a(lib_a-writer.o)
 .riscv.attributes
                0x0000000000000c77       0x31 d:/mounriver_studio/toolchain/risc-v embedded gcc12/bin/../lib/gcc/riscv-none-elf/12.2.0/../../../../riscv-none-elf/lib/rv32imac_xw/ilp32\libg_nano.a(lib_a-abort.o)
 .riscv.attributes
                0x0000000000000ca8       0x31 d:/mounriver_studio/toolchain/risc-v embedded gcc12/bin/../lib/gcc/riscv-none-elf/12.2.0/../../../../riscv-none-elf/lib/rv32imac_xw/ilp32\libg_nano.a(lib_a-closer.o)
 .riscv.attributes
                0x0000000000000cd9       0x31 d:/mounriver_studio/toolchain/risc-v embedded gcc12/bin/../lib/gcc/riscv-none-elf/12.2.0/../../../../riscv-none-elf/lib/rv32imac_xw/ilp32\libg_nano.a(lib_a-fstatr.o)
 .riscv.attributes
                0x0000000000000d0a       0x31 d:/mounriver_studio/toolchain/risc-v embedded gcc12/bin/../lib/gcc/riscv-none-elf/12.2.0/../../../../riscv-none-elf/lib/rv32imac_xw/ilp32\libg_nano.a(lib_a-isattyr.o)
 .riscv.attributes
                0x0000000000000d3b       0x31 d:/mounriver_studio/toolchain/risc-v embedded gcc12/bin/../lib/gcc/riscv-none-elf/12.2.0/../../../../riscv-none-elf/lib/rv32imac_xw/ilp32\libg_nano.a(lib_a-lseekr.o)
 .riscv.attributes
                0x0000000000000d6c       0x31 d:/mounriver_studio/toolchain/risc-v embedded gcc12/bin/../lib/gcc/riscv-none-elf/12.2.0/../../../../riscv-none-elf/lib/rv32imac_xw/ilp32\libg_nano.a(lib_a-memchr.o)
 .riscv.attributes
                0x0000000000000d9d       0x31 d:/mounriver_studio/toolchain/risc-v embedded gcc12/bin/../lib/gcc/riscv-none-elf/12.2.0/../../../../riscv-none-elf/lib/rv32imac_xw/ilp32\libg_nano.a(lib_a-mlock.o)
 .riscv.attributes
                0x0000000000000dce       0x31 d:/mounriver_studio/toolchain/risc-v embedded gcc12/bin/../lib/gcc/riscv-none-elf/12.2.0/../../../../riscv-none-elf/lib/rv32imac_xw/ilp32\libg_nano.a(lib_a-nano-vfprintf_i.o)
 .riscv.attributes
                0x0000000000000dff       0x31 d:/mounriver_studio/toolchain/risc-v embedded gcc12/bin/../lib/gcc/riscv-none-elf/12.2.0/../../../../riscv-none-elf/lib/rv32imac_xw/ilp32\libg_nano.a(lib_a-readr.o)
 .riscv.attributes
                0x0000000000000e30       0x31 d:/mounriver_studio/toolchain/risc-v embedded gcc12/bin/../lib/gcc/riscv-none-elf/12.2.0/../../../../riscv-none-elf/lib/rv32imac_xw/ilp32\libg_nano.a(lib_a-reent.o)
 .riscv.attributes
                0x0000000000000e61       0x31 d:/mounriver_studio/toolchain/risc-v embedded gcc12/bin/../lib/gcc/riscv-none-elf/12.2.0/../../../../riscv-none-elf/lib/rv32imac_xw/ilp32\libg_nano.a(lib_a-signal.o)
 .riscv.attributes
                0x0000000000000e92       0x31 d:/mounriver_studio/toolchain/risc-v embedded gcc12/bin/../lib/gcc/riscv-none-elf/12.2.0/../../../../riscv-none-elf/lib/rv32imac_xw/ilp32\libg_nano.a(lib_a-signalr.o)
 .riscv.attributes
                0x0000000000000ec3       0x31 d:/mounriver_studio/toolchain/risc-v embedded gcc12/bin/../lib/gcc/riscv-none-elf/12.2.0/../../../../riscv-none-elf/lib/rv32imac_xw/ilp32\libnosys.a(close.o)
 .riscv.attributes
                0x0000000000000ef4       0x31 d:/mounriver_studio/toolchain/risc-v embedded gcc12/bin/../lib/gcc/riscv-none-elf/12.2.0/../../../../riscv-none-elf/lib/rv32imac_xw/ilp32\libnosys.a(fstat.o)
 .riscv.attributes
                0x0000000000000f25       0x31 d:/mounriver_studio/toolchain/risc-v embedded gcc12/bin/../lib/gcc/riscv-none-elf/12.2.0/../../../../riscv-none-elf/lib/rv32imac_xw/ilp32\libnosys.a(getpid.o)
 .riscv.attributes
                0x0000000000000f56       0x31 d:/mounriver_studio/toolchain/risc-v embedded gcc12/bin/../lib/gcc/riscv-none-elf/12.2.0/../../../../riscv-none-elf/lib/rv32imac_xw/ilp32\libnosys.a(isatty.o)
 .riscv.attributes
                0x0000000000000f87       0x31 d:/mounriver_studio/toolchain/risc-v embedded gcc12/bin/../lib/gcc/riscv-none-elf/12.2.0/../../../../riscv-none-elf/lib/rv32imac_xw/ilp32\libnosys.a(kill.o)
 .riscv.attributes
                0x0000000000000fb8       0x31 d:/mounriver_studio/toolchain/risc-v embedded gcc12/bin/../lib/gcc/riscv-none-elf/12.2.0/../../../../riscv-none-elf/lib/rv32imac_xw/ilp32\libnosys.a(lseek.o)
 .riscv.attributes
                0x0000000000000fe9       0x31 d:/mounriver_studio/toolchain/risc-v embedded gcc12/bin/../lib/gcc/riscv-none-elf/12.2.0/../../../../riscv-none-elf/lib/rv32imac_xw/ilp32\libnosys.a(read.o)
 .riscv.attributes
                0x000000000000101a       0x31 d:/mounriver_studio/toolchain/risc-v embedded gcc12/bin/../lib/gcc/riscv-none-elf/12.2.0/../../../../riscv-none-elf/lib/rv32imac_xw/ilp32\libnosys.a(_exit.o)

.comment        0x0000000000000000       0x31
 .comment       0x0000000000000000       0x31 ./wch_sdk/Peripheral/src/ch32v20x_adc.o
                                         0x32 (size before relaxing)
 .comment       0x0000000000000031       0x32 ./wch_sdk/Peripheral/src/ch32v20x_dma.o
 .comment       0x0000000000000031       0x32 ./wch_sdk/Peripheral/src/ch32v20x_exti.o
 .comment       0x0000000000000031       0x32 ./wch_sdk/Peripheral/src/ch32v20x_gpio.o
 .comment       0x0000000000000031       0x32 ./wch_sdk/Peripheral/src/ch32v20x_iwdg.o
 .comment       0x0000000000000031       0x32 ./wch_sdk/Peripheral/src/ch32v20x_rcc.o
 .comment       0x0000000000000031       0x32 ./wch_sdk/Peripheral/src/ch32v20x_tim.o
 .comment       0x0000000000000031       0x32 ./wch_sdk/Peripheral/src/ch32v20x_usart.o
 .comment       0x0000000000000031       0x32 ./wch_sdk/Debug/debug.o
 .comment       0x0000000000000031       0x32 ./wch_sdk/Core/core_riscv.o
 .comment       0x0000000000000031       0x32 ./user/ch32v20x_it.o
 .comment       0x0000000000000031       0x32 ./user/main.o
 .comment       0x0000000000000031       0x32 ./user/system_ch32v20x.o
 .comment       0x0000000000000031       0x32 ./bldc_software/control.o
 .comment       0x0000000000000031       0x32 ./bldc_software/motor.o
 .comment       0x0000000000000031       0x32 ./bldc_hardware/operational_amplifier.o
 .comment       0x0000000000000031       0x32 ./bldc_hardware/pwm_input.o
 .comment       0x0000000000000031       0x32 ./bldc_hardware/pwm_output.o
 .comment       0x0000000000000031       0x32 ./addition_software/seekfree_assistant.o
 .comment       0x0000000000000031       0x32 ./addition_software/seekfree_assistant_interface.o
 .comment       0x0000000000000031       0x32 ./addition_hardware/battery.o
 .comment       0x0000000000000031       0x32 ./addition_hardware/delay.o
 .comment       0x0000000000000031       0x32 ./addition_hardware/iwdg.o
 .comment       0x0000000000000031       0x32 ./addition_hardware/led.o
 .comment       0x0000000000000031       0x32 ./addition_hardware/usart.o
 .comment       0x0000000000000031       0x32 d:/mounriver_studio/toolchain/risc-v embedded gcc12/bin/../lib/gcc/riscv-none-elf/12.2.0/rv32imac_xw/ilp32\libgcc.a(divdf3.o)
 .comment       0x0000000000000031       0x32 d:/mounriver_studio/toolchain/risc-v embedded gcc12/bin/../lib/gcc/riscv-none-elf/12.2.0/rv32imac_xw/ilp32\libgcc.a(muldf3.o)
 .comment       0x0000000000000031       0x32 d:/mounriver_studio/toolchain/risc-v embedded gcc12/bin/../lib/gcc/riscv-none-elf/12.2.0/rv32imac_xw/ilp32\libgcc.a(fixunsdfsi.o)
 .comment       0x0000000000000031       0x32 d:/mounriver_studio/toolchain/risc-v embedded gcc12/bin/../lib/gcc/riscv-none-elf/12.2.0/rv32imac_xw/ilp32\libgcc.a(floatunsidf.o)
 .comment       0x0000000000000031       0x32 d:/mounriver_studio/toolchain/risc-v embedded gcc12/bin/../lib/gcc/riscv-none-elf/12.2.0/rv32imac_xw/ilp32\libgcc.a(addsf3.o)
 .comment       0x0000000000000031       0x32 d:/mounriver_studio/toolchain/risc-v embedded gcc12/bin/../lib/gcc/riscv-none-elf/12.2.0/rv32imac_xw/ilp32\libgcc.a(divsf3.o)
 .comment       0x0000000000000031       0x32 d:/mounriver_studio/toolchain/risc-v embedded gcc12/bin/../lib/gcc/riscv-none-elf/12.2.0/rv32imac_xw/ilp32\libgcc.a(gesf2.o)
 .comment       0x0000000000000031       0x32 d:/mounriver_studio/toolchain/risc-v embedded gcc12/bin/../lib/gcc/riscv-none-elf/12.2.0/rv32imac_xw/ilp32\libgcc.a(lesf2.o)
 .comment       0x0000000000000031       0x32 d:/mounriver_studio/toolchain/risc-v embedded gcc12/bin/../lib/gcc/riscv-none-elf/12.2.0/rv32imac_xw/ilp32\libgcc.a(mulsf3.o)
 .comment       0x0000000000000031       0x32 d:/mounriver_studio/toolchain/risc-v embedded gcc12/bin/../lib/gcc/riscv-none-elf/12.2.0/rv32imac_xw/ilp32\libgcc.a(subsf3.o)
 .comment       0x0000000000000031       0x32 d:/mounriver_studio/toolchain/risc-v embedded gcc12/bin/../lib/gcc/riscv-none-elf/12.2.0/rv32imac_xw/ilp32\libgcc.a(fixsfsi.o)
 .comment       0x0000000000000031       0x32 d:/mounriver_studio/toolchain/risc-v embedded gcc12/bin/../lib/gcc/riscv-none-elf/12.2.0/rv32imac_xw/ilp32\libgcc.a(floatsisf.o)
 .comment       0x0000000000000031       0x32 d:/mounriver_studio/toolchain/risc-v embedded gcc12/bin/../lib/gcc/riscv-none-elf/12.2.0/rv32imac_xw/ilp32\libgcc.a(floatunsisf.o)
 .comment       0x0000000000000031       0x32 d:/mounriver_studio/toolchain/risc-v embedded gcc12/bin/../lib/gcc/riscv-none-elf/12.2.0/rv32imac_xw/ilp32\libgcc.a(extendsfdf2.o)
 .comment       0x0000000000000031       0x32 d:/mounriver_studio/toolchain/risc-v embedded gcc12/bin/../lib/gcc/riscv-none-elf/12.2.0/rv32imac_xw/ilp32\libgcc.a(truncdfsf2.o)
 .comment       0x0000000000000031       0x32 d:/mounriver_studio/toolchain/risc-v embedded gcc12/bin/../lib/gcc/riscv-none-elf/12.2.0/rv32imac_xw/ilp32\libgcc.a(_clzsi2.o)
 .comment       0x0000000000000031       0x32 d:/mounriver_studio/toolchain/risc-v embedded gcc12/bin/../lib/gcc/riscv-none-elf/12.2.0/rv32imac_xw/ilp32\libgcc.a(_clz.o)
 .comment       0x0000000000000031       0x32 d:/mounriver_studio/toolchain/risc-v embedded gcc12/bin/../lib/gcc/riscv-none-elf/12.2.0/../../../../riscv-none-elf/lib/rv32imac_xw/ilp32\libg_nano.a(lib_a-printf.o)
 .comment       0x0000000000000031       0x32 d:/mounriver_studio/toolchain/risc-v embedded gcc12/bin/../lib/gcc/riscv-none-elf/12.2.0/../../../../riscv-none-elf/lib/rv32imac_xw/ilp32\libg_nano.a(lib_a-puts.o)
 .comment       0x0000000000000031       0x32 d:/mounriver_studio/toolchain/risc-v embedded gcc12/bin/../lib/gcc/riscv-none-elf/12.2.0/../../../../riscv-none-elf/lib/rv32imac_xw/ilp32\libg_nano.a(lib_a-rand.o)
 .comment       0x0000000000000031       0x32 d:/mounriver_studio/toolchain/risc-v embedded gcc12/bin/../lib/gcc/riscv-none-elf/12.2.0/../../../../riscv-none-elf/lib/rv32imac_xw/ilp32\libg_nano.a(lib_a-wbuf.o)
 .comment       0x0000000000000031       0x32 d:/mounriver_studio/toolchain/risc-v embedded gcc12/bin/../lib/gcc/riscv-none-elf/12.2.0/../../../../riscv-none-elf/lib/rv32imac_xw/ilp32\libg_nano.a(lib_a-wsetup.o)
 .comment       0x0000000000000031       0x32 d:/mounriver_studio/toolchain/risc-v embedded gcc12/bin/../lib/gcc/riscv-none-elf/12.2.0/../../../../riscv-none-elf/lib/rv32imac_xw/ilp32\libg_nano.a(lib_a-assert.o)
 .comment       0x0000000000000031       0x32 d:/mounriver_studio/toolchain/risc-v embedded gcc12/bin/../lib/gcc/riscv-none-elf/12.2.0/../../../../riscv-none-elf/lib/rv32imac_xw/ilp32\libg_nano.a(lib_a-fflush.o)
 .comment       0x0000000000000031       0x32 d:/mounriver_studio/toolchain/risc-v embedded gcc12/bin/../lib/gcc/riscv-none-elf/12.2.0/../../../../riscv-none-elf/lib/rv32imac_xw/ilp32\libg_nano.a(lib_a-findfp.o)
 .comment       0x0000000000000031       0x32 d:/mounriver_studio/toolchain/risc-v embedded gcc12/bin/../lib/gcc/riscv-none-elf/12.2.0/../../../../riscv-none-elf/lib/rv32imac_xw/ilp32\libg_nano.a(lib_a-fprintf.o)
 .comment       0x0000000000000031       0x32 d:/mounriver_studio/toolchain/risc-v embedded gcc12/bin/../lib/gcc/riscv-none-elf/12.2.0/../../../../riscv-none-elf/lib/rv32imac_xw/ilp32\libg_nano.a(lib_a-fwalk.o)
 .comment       0x0000000000000031       0x32 d:/mounriver_studio/toolchain/risc-v embedded gcc12/bin/../lib/gcc/riscv-none-elf/12.2.0/../../../../riscv-none-elf/lib/rv32imac_xw/ilp32\libg_nano.a(lib_a-impure.o)
 .comment       0x0000000000000031       0x32 d:/mounriver_studio/toolchain/risc-v embedded gcc12/bin/../lib/gcc/riscv-none-elf/12.2.0/../../../../riscv-none-elf/lib/rv32imac_xw/ilp32\libg_nano.a(lib_a-lock.o)
 .comment       0x0000000000000031       0x32 d:/mounriver_studio/toolchain/risc-v embedded gcc12/bin/../lib/gcc/riscv-none-elf/12.2.0/../../../../riscv-none-elf/lib/rv32imac_xw/ilp32\libg_nano.a(lib_a-makebuf.o)
 .comment       0x0000000000000031       0x32 d:/mounriver_studio/toolchain/risc-v embedded gcc12/bin/../lib/gcc/riscv-none-elf/12.2.0/../../../../riscv-none-elf/lib/rv32imac_xw/ilp32\libg_nano.a(lib_a-malloc.o)
 .comment       0x0000000000000031       0x32 d:/mounriver_studio/toolchain/risc-v embedded gcc12/bin/../lib/gcc/riscv-none-elf/12.2.0/../../../../riscv-none-elf/lib/rv32imac_xw/ilp32\libg_nano.a(lib_a-nano-freer.o)
 .comment       0x0000000000000031       0x32 d:/mounriver_studio/toolchain/risc-v embedded gcc12/bin/../lib/gcc/riscv-none-elf/12.2.0/../../../../riscv-none-elf/lib/rv32imac_xw/ilp32\libg_nano.a(lib_a-nano-mallocr.o)
 .comment       0x0000000000000031       0x32 d:/mounriver_studio/toolchain/risc-v embedded gcc12/bin/../lib/gcc/riscv-none-elf/12.2.0/../../../../riscv-none-elf/lib/rv32imac_xw/ilp32\libg_nano.a(lib_a-nano-vfprintf.o)
 .comment       0x0000000000000031       0x32 d:/mounriver_studio/toolchain/risc-v embedded gcc12/bin/../lib/gcc/riscv-none-elf/12.2.0/../../../../riscv-none-elf/lib/rv32imac_xw/ilp32\libg_nano.a(lib_a-sbrkr.o)
 .comment       0x0000000000000031       0x32 d:/mounriver_studio/toolchain/risc-v embedded gcc12/bin/../lib/gcc/riscv-none-elf/12.2.0/../../../../riscv-none-elf/lib/rv32imac_xw/ilp32\libg_nano.a(lib_a-stdio.o)
 .comment       0x0000000000000031       0x32 d:/mounriver_studio/toolchain/risc-v embedded gcc12/bin/../lib/gcc/riscv-none-elf/12.2.0/../../../../riscv-none-elf/lib/rv32imac_xw/ilp32\libg_nano.a(lib_a-writer.o)
 .comment       0x0000000000000031       0x32 d:/mounriver_studio/toolchain/risc-v embedded gcc12/bin/../lib/gcc/riscv-none-elf/12.2.0/../../../../riscv-none-elf/lib/rv32imac_xw/ilp32\libg_nano.a(lib_a-abort.o)
 .comment       0x0000000000000031       0x32 d:/mounriver_studio/toolchain/risc-v embedded gcc12/bin/../lib/gcc/riscv-none-elf/12.2.0/../../../../riscv-none-elf/lib/rv32imac_xw/ilp32\libg_nano.a(lib_a-closer.o)
 .comment       0x0000000000000031       0x32 d:/mounriver_studio/toolchain/risc-v embedded gcc12/bin/../lib/gcc/riscv-none-elf/12.2.0/../../../../riscv-none-elf/lib/rv32imac_xw/ilp32\libg_nano.a(lib_a-fstatr.o)
 .comment       0x0000000000000031       0x32 d:/mounriver_studio/toolchain/risc-v embedded gcc12/bin/../lib/gcc/riscv-none-elf/12.2.0/../../../../riscv-none-elf/lib/rv32imac_xw/ilp32\libg_nano.a(lib_a-isattyr.o)
 .comment       0x0000000000000031       0x32 d:/mounriver_studio/toolchain/risc-v embedded gcc12/bin/../lib/gcc/riscv-none-elf/12.2.0/../../../../riscv-none-elf/lib/rv32imac_xw/ilp32\libg_nano.a(lib_a-lseekr.o)
 .comment       0x0000000000000031       0x32 d:/mounriver_studio/toolchain/risc-v embedded gcc12/bin/../lib/gcc/riscv-none-elf/12.2.0/../../../../riscv-none-elf/lib/rv32imac_xw/ilp32\libg_nano.a(lib_a-memchr.o)
 .comment       0x0000000000000031       0x32 d:/mounriver_studio/toolchain/risc-v embedded gcc12/bin/../lib/gcc/riscv-none-elf/12.2.0/../../../../riscv-none-elf/lib/rv32imac_xw/ilp32\libg_nano.a(lib_a-mlock.o)
 .comment       0x0000000000000031       0x32 d:/mounriver_studio/toolchain/risc-v embedded gcc12/bin/../lib/gcc/riscv-none-elf/12.2.0/../../../../riscv-none-elf/lib/rv32imac_xw/ilp32\libg_nano.a(lib_a-nano-vfprintf_i.o)
 .comment       0x0000000000000031       0x32 d:/mounriver_studio/toolchain/risc-v embedded gcc12/bin/../lib/gcc/riscv-none-elf/12.2.0/../../../../riscv-none-elf/lib/rv32imac_xw/ilp32\libg_nano.a(lib_a-readr.o)
 .comment       0x0000000000000031       0x32 d:/mounriver_studio/toolchain/risc-v embedded gcc12/bin/../lib/gcc/riscv-none-elf/12.2.0/../../../../riscv-none-elf/lib/rv32imac_xw/ilp32\libg_nano.a(lib_a-reent.o)
 .comment       0x0000000000000031       0x32 d:/mounriver_studio/toolchain/risc-v embedded gcc12/bin/../lib/gcc/riscv-none-elf/12.2.0/../../../../riscv-none-elf/lib/rv32imac_xw/ilp32\libg_nano.a(lib_a-signal.o)
 .comment       0x0000000000000031       0x32 d:/mounriver_studio/toolchain/risc-v embedded gcc12/bin/../lib/gcc/riscv-none-elf/12.2.0/../../../../riscv-none-elf/lib/rv32imac_xw/ilp32\libg_nano.a(lib_a-signalr.o)
 .comment       0x0000000000000031       0x32 d:/mounriver_studio/toolchain/risc-v embedded gcc12/bin/../lib/gcc/riscv-none-elf/12.2.0/../../../../riscv-none-elf/lib/rv32imac_xw/ilp32\libnosys.a(close.o)
 .comment       0x0000000000000031       0x32 d:/mounriver_studio/toolchain/risc-v embedded gcc12/bin/../lib/gcc/riscv-none-elf/12.2.0/../../../../riscv-none-elf/lib/rv32imac_xw/ilp32\libnosys.a(fstat.o)
 .comment       0x0000000000000031       0x32 d:/mounriver_studio/toolchain/risc-v embedded gcc12/bin/../lib/gcc/riscv-none-elf/12.2.0/../../../../riscv-none-elf/lib/rv32imac_xw/ilp32\libnosys.a(getpid.o)
 .comment       0x0000000000000031       0x32 d:/mounriver_studio/toolchain/risc-v embedded gcc12/bin/../lib/gcc/riscv-none-elf/12.2.0/../../../../riscv-none-elf/lib/rv32imac_xw/ilp32\libnosys.a(isatty.o)
 .comment       0x0000000000000031       0x32 d:/mounriver_studio/toolchain/risc-v embedded gcc12/bin/../lib/gcc/riscv-none-elf/12.2.0/../../../../riscv-none-elf/lib/rv32imac_xw/ilp32\libnosys.a(kill.o)
 .comment       0x0000000000000031       0x32 d:/mounriver_studio/toolchain/risc-v embedded gcc12/bin/../lib/gcc/riscv-none-elf/12.2.0/../../../../riscv-none-elf/lib/rv32imac_xw/ilp32\libnosys.a(lseek.o)
 .comment       0x0000000000000031       0x32 d:/mounriver_studio/toolchain/risc-v embedded gcc12/bin/../lib/gcc/riscv-none-elf/12.2.0/../../../../riscv-none-elf/lib/rv32imac_xw/ilp32\libnosys.a(read.o)
 .comment       0x0000000000000031       0x32 d:/mounriver_studio/toolchain/risc-v embedded gcc12/bin/../lib/gcc/riscv-none-elf/12.2.0/../../../../riscv-none-elf/lib/rv32imac_xw/ilp32\libnosys.a(_exit.o)

.debug_line     0x0000000000000000     0xe18f
 .debug_line    0x0000000000000000      0x258 ./wch_sdk/Startup/startup_ch32v20x_D6.o
 .debug_line    0x0000000000000258     0x1823 ./wch_sdk/Peripheral/src/ch32v20x_adc.o
 .debug_line    0x0000000000001a7b      0x5da ./wch_sdk/Peripheral/src/ch32v20x_dma.o
 .debug_line    0x0000000000002055      0x40a ./wch_sdk/Peripheral/src/ch32v20x_exti.o
 .debug_line    0x000000000000245f     0x13e3 ./wch_sdk/Peripheral/src/ch32v20x_gpio.o
 .debug_line    0x0000000000003842      0x181 ./wch_sdk/Peripheral/src/ch32v20x_iwdg.o
 .debug_line    0x00000000000039c3     0x100e ./wch_sdk/Peripheral/src/ch32v20x_rcc.o
 .debug_line    0x00000000000049d1     0x3020 ./wch_sdk/Peripheral/src/ch32v20x_tim.o
 .debug_line    0x00000000000079f1      0xdeb ./wch_sdk/Peripheral/src/ch32v20x_usart.o
 .debug_line    0x00000000000087dc      0x523 ./wch_sdk/Debug/debug.o
 .debug_line    0x0000000000008cff      0x386 ./wch_sdk/Core/core_riscv.o
 .debug_line    0x0000000000009085      0x45d ./user/ch32v20x_it.o
 .debug_line    0x00000000000094e2      0x2c1 ./user/main.o
 .debug_line    0x00000000000097a3      0x410 ./user/system_ch32v20x.o
 .debug_line    0x0000000000009bb3     0x11f0 ./bldc_software/control.o
 .debug_line    0x000000000000ada3      0xb2b ./bldc_software/motor.o
 .debug_line    0x000000000000b8ce      0x2a8 ./bldc_hardware/operational_amplifier.o
 .debug_line    0x000000000000bb76      0x5b9 ./bldc_hardware/pwm_input.o
 .debug_line    0x000000000000c12f     0x124d ./bldc_hardware/pwm_output.o
 .debug_line    0x000000000000d37c      0x15f ./addition_software/seekfree_assistant.o
 .debug_line    0x000000000000d4db       0x75 ./addition_software/seekfree_assistant_interface.o
 .debug_line    0x000000000000d550      0x3e4 ./addition_hardware/battery.o
 .debug_line    0x000000000000d934      0x13b ./addition_hardware/delay.o
 .debug_line    0x000000000000da6f       0xab ./addition_hardware/iwdg.o
 .debug_line    0x000000000000db1a      0x430 ./addition_hardware/led.o
 .debug_line    0x000000000000df4a      0x245 ./addition_hardware/usart.o

.debug_line_str
                0x0000000000000000      0xe74
 .debug_line_str
                0x0000000000000000       0x90 ./wch_sdk/Startup/startup_ch32v20x_D6.o
                                         0xa6 (size before relaxing)
 .debug_line_str
                0x0000000000000090      0x1fd ./wch_sdk/Peripheral/src/ch32v20x_adc.o
                                        0x2a0 (size before relaxing)
 .debug_line_str
                0x000000000000028d       0x62 ./wch_sdk/Peripheral/src/ch32v20x_dma.o
                                        0x291 (size before relaxing)
 .debug_line_str
                0x00000000000002ef       0x64 ./wch_sdk/Peripheral/src/ch32v20x_exti.o
                                        0x295 (size before relaxing)
 .debug_line_str
                0x0000000000000353       0x64 ./wch_sdk/Peripheral/src/ch32v20x_gpio.o
                                        0x2a4 (size before relaxing)
 .debug_line_str
                0x00000000000003b7       0x64 ./wch_sdk/Peripheral/src/ch32v20x_iwdg.o
                                        0x295 (size before relaxing)
 .debug_line_str
                0x000000000000041b       0x53 ./wch_sdk/Peripheral/src/ch32v20x_rcc.o
                                        0x291 (size before relaxing)
 .debug_line_str
                0x000000000000046e       0x62 ./wch_sdk/Peripheral/src/ch32v20x_tim.o
                                        0x2a0 (size before relaxing)
 .debug_line_str
                0x00000000000004d0       0x66 ./wch_sdk/Peripheral/src/ch32v20x_usart.o
                                        0x2a8 (size before relaxing)
 .debug_line_str
                0x0000000000000536      0x12d ./wch_sdk/Debug/debug.o
                                        0x33a (size before relaxing)
 .debug_line_str
                0x0000000000000663       0x81 ./wch_sdk/Core/core_riscv.o
                                        0x1d2 (size before relaxing)
 .debug_line_str
                0x00000000000006e4      0x207 ./user/ch32v20x_it.o
                                        0x3ff (size before relaxing)
 .debug_line_str
                0x00000000000008eb       0xba ./user/main.o
                                        0x3ce (size before relaxing)
 .debug_line_str
                0x00000000000009a5       0x4c ./user/system_ch32v20x.o
                                        0x289 (size before relaxing)
 .debug_line_str
                0x00000000000009f1       0x89 ./bldc_software/control.o
                                        0x41e (size before relaxing)
 .debug_line_str
                0x0000000000000a7a       0x4b ./bldc_software/motor.o
                                        0x33b (size before relaxing)
 .debug_line_str
                0x0000000000000ac5       0x8e ./bldc_hardware/operational_amplifier.o
                                        0x2ab (size before relaxing)
 .debug_line_str
                0x0000000000000b53       0x47 ./bldc_hardware/pwm_input.o
                                        0x37e (size before relaxing)
 .debug_line_str
                0x0000000000000b9a       0x48 ./bldc_hardware/pwm_output.o
                                        0x2dc (size before relaxing)
 .debug_line_str
                0x0000000000000be2       0x93 ./addition_software/seekfree_assistant.o
                                        0x190 (size before relaxing)
 .debug_line_str
                0x0000000000000c75       0x5e ./addition_software/seekfree_assistant_interface.o
                                        0x1e0 (size before relaxing)
 .debug_line_str
                0x0000000000000cd3       0x88 ./addition_hardware/battery.o
                                        0x2ff (size before relaxing)
 .debug_line_str
                0x0000000000000d5b       0x47 ./addition_hardware/delay.o
                                        0x258 (size before relaxing)
 .debug_line_str
                0x0000000000000da2       0x46 ./addition_hardware/iwdg.o
                                        0x262 (size before relaxing)
 .debug_line_str
                0x0000000000000de8       0x45 ./addition_hardware/led.o
                                        0x309 (size before relaxing)
 .debug_line_str
                0x0000000000000e2d       0x47 ./addition_hardware/usart.o
                                        0x2d7 (size before relaxing)

.debug_info     0x0000000000000000     0xca5a
 .debug_info    0x0000000000000000       0x23 ./wch_sdk/Startup/startup_ch32v20x_D6.o
 .debug_info    0x0000000000000023      0xd4f ./wch_sdk/Peripheral/src/ch32v20x_adc.o
 .debug_info    0x0000000000000d72      0x409 ./wch_sdk/Peripheral/src/ch32v20x_dma.o
 .debug_info    0x000000000000117b      0x329 ./wch_sdk/Peripheral/src/ch32v20x_exti.o
 .debug_info    0x00000000000014a4      0x990 ./wch_sdk/Peripheral/src/ch32v20x_gpio.o
 .debug_info    0x0000000000001e34      0x1e8 ./wch_sdk/Peripheral/src/ch32v20x_iwdg.o
 .debug_info    0x000000000000201c      0x8ce ./wch_sdk/Peripheral/src/ch32v20x_rcc.o
 .debug_info    0x00000000000028ea     0x1fee ./wch_sdk/Peripheral/src/ch32v20x_tim.o
 .debug_info    0x00000000000048d8      0xa3f ./wch_sdk/Peripheral/src/ch32v20x_usart.o
 .debug_info    0x0000000000005317      0x6a6 ./wch_sdk/Debug/debug.o
 .debug_info    0x00000000000059bd      0x334 ./wch_sdk/Core/core_riscv.o
 .debug_info    0x0000000000005cf1      0xa00 ./user/ch32v20x_it.o
 .debug_info    0x00000000000066f1      0x519 ./user/main.o
 .debug_info    0x0000000000006c0a      0x267 ./user/system_ch32v20x.o
 .debug_info    0x0000000000006e71     0x1320 ./bldc_software/control.o
 .debug_info    0x0000000000008191      0x82f ./bldc_software/motor.o
 .debug_info    0x00000000000089c0      0x85f ./bldc_hardware/operational_amplifier.o
 .debug_info    0x000000000000921f     0x10b3 ./bldc_hardware/pwm_input.o
 .debug_info    0x000000000000a2d2      0xe4a ./bldc_hardware/pwm_output.o
 .debug_info    0x000000000000b11c      0x1d6 ./addition_software/seekfree_assistant.o
 .debug_info    0x000000000000b2f2      0x103 ./addition_software/seekfree_assistant_interface.o
 .debug_info    0x000000000000b3f5      0x978 ./addition_hardware/battery.o
 .debug_info    0x000000000000bd6d      0x13f ./addition_hardware/delay.o
 .debug_info    0x000000000000beac      0x164 ./addition_hardware/iwdg.o
 .debug_info    0x000000000000c010      0x576 ./addition_hardware/led.o
 .debug_info    0x000000000000c586      0x4d4 ./addition_hardware/usart.o

.debug_abbrev   0x0000000000000000     0x2edc
 .debug_abbrev  0x0000000000000000       0x12 ./wch_sdk/Startup/startup_ch32v20x_D6.o
 .debug_abbrev  0x0000000000000012      0x24e ./wch_sdk/Peripheral/src/ch32v20x_adc.o
 .debug_abbrev  0x0000000000000260      0x1d5 ./wch_sdk/Peripheral/src/ch32v20x_dma.o
 .debug_abbrev  0x0000000000000435      0x1ae ./wch_sdk/Peripheral/src/ch32v20x_exti.o
 .debug_abbrev  0x00000000000005e3      0x231 ./wch_sdk/Peripheral/src/ch32v20x_gpio.o
 .debug_abbrev  0x0000000000000814      0x138 ./wch_sdk/Peripheral/src/ch32v20x_iwdg.o
 .debug_abbrev  0x000000000000094c      0x21c ./wch_sdk/Peripheral/src/ch32v20x_rcc.o
 .debug_abbrev  0x0000000000000b68      0x338 ./wch_sdk/Peripheral/src/ch32v20x_tim.o
 .debug_abbrev  0x0000000000000ea0      0x1ef ./wch_sdk/Peripheral/src/ch32v20x_usart.o
 .debug_abbrev  0x000000000000108f      0x216 ./wch_sdk/Debug/debug.o
 .debug_abbrev  0x00000000000012a5       0xe7 ./wch_sdk/Core/core_riscv.o
 .debug_abbrev  0x000000000000138c      0x2a9 ./user/ch32v20x_it.o
 .debug_abbrev  0x0000000000001635      0x16c ./user/main.o
 .debug_abbrev  0x00000000000017a1      0x18e ./user/system_ch32v20x.o
 .debug_abbrev  0x000000000000192f      0x3cc ./bldc_software/control.o
 .debug_abbrev  0x0000000000001cfb      0x200 ./bldc_software/motor.o
 .debug_abbrev  0x0000000000001efb      0x23a ./bldc_hardware/operational_amplifier.o
 .debug_abbrev  0x0000000000002135      0x2e5 ./bldc_hardware/pwm_input.o
 .debug_abbrev  0x000000000000241a      0x219 ./bldc_hardware/pwm_output.o
 .debug_abbrev  0x0000000000002633      0x14f ./addition_software/seekfree_assistant.o
 .debug_abbrev  0x0000000000002782       0xa7 ./addition_software/seekfree_assistant_interface.o
 .debug_abbrev  0x0000000000002829      0x1bb ./addition_hardware/battery.o
 .debug_abbrev  0x00000000000029e4       0xae ./addition_hardware/delay.o
 .debug_abbrev  0x0000000000002a92       0xb3 ./addition_hardware/iwdg.o
 .debug_abbrev  0x0000000000002b45      0x1ff ./addition_hardware/led.o
 .debug_abbrev  0x0000000000002d44      0x198 ./addition_hardware/usart.o

.debug_aranges  0x0000000000000000      0xc78
 .debug_aranges
                0x0000000000000000       0x30 ./wch_sdk/Startup/startup_ch32v20x_D6.o
 .debug_aranges
                0x0000000000000030      0x150 ./wch_sdk/Peripheral/src/ch32v20x_adc.o
 .debug_aranges
                0x0000000000000180       0x70 ./wch_sdk/Peripheral/src/ch32v20x_dma.o
 .debug_aranges
                0x00000000000001f0       0x58 ./wch_sdk/Peripheral/src/ch32v20x_exti.o
 .debug_aranges
                0x0000000000000248       0xb0 ./wch_sdk/Peripheral/src/ch32v20x_gpio.o
 .debug_aranges
                0x00000000000002f8       0x48 ./wch_sdk/Peripheral/src/ch32v20x_iwdg.o
 .debug_aranges
                0x0000000000000340      0x128 ./wch_sdk/Peripheral/src/ch32v20x_rcc.o
 .debug_aranges
                0x0000000000000468      0x2e0 ./wch_sdk/Peripheral/src/ch32v20x_tim.o
 .debug_aranges
                0x0000000000000748      0x100 ./wch_sdk/Peripheral/src/ch32v20x_usart.o
 .debug_aranges
                0x0000000000000848       0x48 ./wch_sdk/Debug/debug.o
 .debug_aranges
                0x0000000000000890       0xb0 ./wch_sdk/Core/core_riscv.o
 .debug_aranges
                0x0000000000000940       0x58 ./user/ch32v20x_it.o
 .debug_aranges
                0x0000000000000998       0x20 ./user/main.o
 .debug_aranges
                0x00000000000009b8       0x28 ./user/system_ch32v20x.o
 .debug_aranges
                0x00000000000009e0       0x68 ./bldc_software/control.o
 .debug_aranges
                0x0000000000000a48       0x48 ./bldc_software/motor.o
 .debug_aranges
                0x0000000000000a90       0x38 ./bldc_hardware/operational_amplifier.o
 .debug_aranges
                0x0000000000000ac8       0x30 ./bldc_hardware/pwm_input.o
 .debug_aranges
                0x0000000000000af8       0x60 ./bldc_hardware/pwm_output.o
 .debug_aranges
                0x0000000000000b58       0x20 ./addition_software/seekfree_assistant.o
 .debug_aranges
                0x0000000000000b78       0x20 ./addition_software/seekfree_assistant_interface.o
 .debug_aranges
                0x0000000000000b98       0x28 ./addition_hardware/battery.o
 .debug_aranges
                0x0000000000000bc0       0x20 ./addition_hardware/delay.o
 .debug_aranges
                0x0000000000000be0       0x20 ./addition_hardware/iwdg.o
 .debug_aranges
                0x0000000000000c00       0x48 ./addition_hardware/led.o
 .debug_aranges
                0x0000000000000c48       0x30 ./addition_hardware/usart.o

.debug_str      0x0000000000000000     0x3249
 .debug_str     0x0000000000000000       0x9c ./wch_sdk/Startup/startup_ch32v20x_D6.o
 .debug_str     0x000000000000009c      0x720 ./wch_sdk/Peripheral/src/ch32v20x_adc.o
                                        0x7c6 (size before relaxing)
 .debug_str     0x00000000000007bc      0x1e4 ./wch_sdk/Peripheral/src/ch32v20x_dma.o
                                        0x3a2 (size before relaxing)
 .debug_str     0x00000000000009a0      0x18c ./wch_sdk/Peripheral/src/ch32v20x_exti.o
                                        0x33b (size before relaxing)
 .debug_str     0x0000000000000b2c      0x3a2 ./wch_sdk/Peripheral/src/ch32v20x_gpio.o
                                        0x56a (size before relaxing)
 .debug_str     0x0000000000000ece       0xa8 ./wch_sdk/Peripheral/src/ch32v20x_iwdg.o
                                        0x24d (size before relaxing)
 .debug_str     0x0000000000000f76      0x44c ./wch_sdk/Peripheral/src/ch32v20x_rcc.o
                                        0x66b (size before relaxing)
 .debug_str     0x00000000000013c2      0xc02 ./wch_sdk/Peripheral/src/ch32v20x_tim.o
                                        0xe68 (size before relaxing)
 .debug_str     0x0000000000001fc4      0x3e6 ./wch_sdk/Peripheral/src/ch32v20x_usart.o
                                        0x6c4 (size before relaxing)
 .debug_str     0x00000000000023aa       0xb7 ./wch_sdk/Debug/debug.o
                                        0x515 (size before relaxing)
 .debug_str     0x0000000000002461       0xf9 ./wch_sdk/Core/core_riscv.o
                                        0x251 (size before relaxing)
 .debug_str     0x000000000000255a      0x2ff ./user/ch32v20x_it.o
                                        0x6fb (size before relaxing)
 .debug_str     0x0000000000002859      0x1b8 ./user/main.o
                                        0x46a (size before relaxing)
 .debug_str     0x0000000000002a11       0x4a ./user/system_ch32v20x.o
                                        0x266 (size before relaxing)
 .debug_str     0x0000000000002a5b      0x4da ./bldc_software/control.o
                                        0xc5f (size before relaxing)
 .debug_str     0x0000000000002f35       0xfd ./bldc_software/motor.o
                                        0x5e8 (size before relaxing)
 .debug_str     0x0000000000003032       0x13 ./bldc_hardware/operational_amplifier.o
                                        0x868 (size before relaxing)
 .debug_str     0x0000000000003045       0xa3 ./bldc_hardware/pwm_input.o
                                        0xca2 (size before relaxing)
 .debug_str     0x00000000000030e8       0x16 ./bldc_hardware/pwm_output.o
                                        0x88c (size before relaxing)
 .debug_str     0x00000000000030fe       0x68 ./addition_software/seekfree_assistant.o
                                        0x244 (size before relaxing)
 .debug_str     0x0000000000003166       0x17 ./addition_software/seekfree_assistant_interface.o
                                        0x19c (size before relaxing)
 .debug_str     0x000000000000317d       0x4d ./addition_hardware/battery.o
                                        0x70e (size before relaxing)
 .debug_str     0x00000000000031ca        0x7 ./addition_hardware/delay.o
                                        0x1a9 (size before relaxing)
 .debug_str     0x00000000000031d1      0x1da ./addition_hardware/iwdg.o
 .debug_str     0x00000000000031d1       0x68 ./addition_hardware/led.o
                                        0x4a5 (size before relaxing)
 .debug_str     0x0000000000003239       0x10 ./addition_hardware/usart.o
                                        0x468 (size before relaxing)

.debug_rnglists
                0x0000000000000000      0xd18
 .debug_rnglists
                0x0000000000000000       0x20 ./wch_sdk/Startup/startup_ch32v20x_D6.o
 .debug_rnglists
                0x0000000000000020      0x16c ./wch_sdk/Peripheral/src/ch32v20x_adc.o
 .debug_rnglists
                0x000000000000018c       0x70 ./wch_sdk/Peripheral/src/ch32v20x_dma.o
 .debug_rnglists
                0x00000000000001fc       0x55 ./wch_sdk/Peripheral/src/ch32v20x_exti.o
 .debug_rnglists
                0x0000000000000251       0xb8 ./wch_sdk/Peripheral/src/ch32v20x_gpio.o
 .debug_rnglists
                0x0000000000000309       0x43 ./wch_sdk/Peripheral/src/ch32v20x_iwdg.o
 .debug_rnglists
                0x000000000000034c      0x13f ./wch_sdk/Peripheral/src/ch32v20x_rcc.o
 .debug_rnglists
                0x000000000000048b      0x354 ./wch_sdk/Peripheral/src/ch32v20x_tim.o
 .debug_rnglists
                0x00000000000007df      0x112 ./wch_sdk/Peripheral/src/ch32v20x_usart.o
 .debug_rnglists
                0x00000000000008f1       0x43 ./wch_sdk/Debug/debug.o
 .debug_rnglists
                0x0000000000000934       0xb8 ./wch_sdk/Core/core_riscv.o
 .debug_rnglists
                0x00000000000009ec       0x55 ./user/ch32v20x_it.o
 .debug_rnglists
                0x0000000000000a41       0x16 ./user/main.o
 .debug_rnglists
                0x0000000000000a57       0x1f ./user/system_ch32v20x.o
 .debug_rnglists
                0x0000000000000a76       0x7a ./bldc_software/control.o
 .debug_rnglists
                0x0000000000000af0       0x43 ./bldc_software/motor.o
 .debug_rnglists
                0x0000000000000b33       0x31 ./bldc_hardware/operational_amplifier.o
 .debug_rnglists
                0x0000000000000b64       0x28 ./bldc_hardware/pwm_input.o
 .debug_rnglists
                0x0000000000000b8c       0x5e ./bldc_hardware/pwm_output.o
 .debug_rnglists
                0x0000000000000bea       0x29 ./addition_software/seekfree_assistant.o
 .debug_rnglists
                0x0000000000000c13       0x16 ./addition_software/seekfree_assistant_interface.o
 .debug_rnglists
                0x0000000000000c29       0x1f ./addition_hardware/battery.o
 .debug_rnglists
                0x0000000000000c48       0x16 ./addition_hardware/delay.o
 .debug_rnglists
                0x0000000000000c5e       0x16 ./addition_hardware/iwdg.o
 .debug_rnglists
                0x0000000000000c74       0x7c ./addition_hardware/led.o
 .debug_rnglists
                0x0000000000000cf0       0x28 ./addition_hardware/usart.o

.debug_loclists
                0x0000000000000000     0x3d9c
 .debug_loclists
                0x0000000000000000      0x90c ./wch_sdk/Peripheral/src/ch32v20x_adc.o
 .debug_loclists
                0x000000000000090c      0x113 ./wch_sdk/Peripheral/src/ch32v20x_dma.o
 .debug_loclists
                0x0000000000000a1f      0x118 ./wch_sdk/Peripheral/src/ch32v20x_exti.o
 .debug_loclists
                0x0000000000000b37      0x967 ./wch_sdk/Peripheral/src/ch32v20x_gpio.o
 .debug_loclists
                0x000000000000149e       0x66 ./wch_sdk/Peripheral/src/ch32v20x_iwdg.o
 .debug_loclists
                0x0000000000001504      0x591 ./wch_sdk/Peripheral/src/ch32v20x_rcc.o
 .debug_loclists
                0x0000000000001a95     0x1213 ./wch_sdk/Peripheral/src/ch32v20x_tim.o
 .debug_loclists
                0x0000000000002ca8      0x635 ./wch_sdk/Peripheral/src/ch32v20x_usart.o
 .debug_loclists
                0x00000000000032dd      0x156 ./wch_sdk/Debug/debug.o
 .debug_loclists
                0x0000000000003433       0x53 ./user/ch32v20x_it.o
 .debug_loclists
                0x0000000000003486       0xad ./user/system_ch32v20x.o
 .debug_loclists
                0x0000000000003533      0x230 ./bldc_software/control.o
 .debug_loclists
                0x0000000000003763      0x39a ./bldc_software/motor.o
 .debug_loclists
                0x0000000000003afd       0x33 ./bldc_hardware/operational_amplifier.o
 .debug_loclists
                0x0000000000003b30       0x35 ./bldc_hardware/pwm_input.o
 .debug_loclists
                0x0000000000003b65       0x23 ./bldc_hardware/pwm_output.o
 .debug_loclists
                0x0000000000003b88       0xbe ./addition_software/seekfree_assistant.o
 .debug_loclists
                0x0000000000003c46       0x40 ./addition_software/seekfree_assistant_interface.o
 .debug_loclists
                0x0000000000003c86       0x26 ./addition_hardware/iwdg.o
 .debug_loclists
                0x0000000000003cac       0x74 ./addition_hardware/led.o
 .debug_loclists
                0x0000000000003d20       0x7c ./addition_hardware/usart.o

.debug_frame    0x0000000000000000     0x18bc
 .debug_frame   0x0000000000000000      0x2b4 ./wch_sdk/Peripheral/src/ch32v20x_adc.o
 .debug_frame   0x00000000000002b4       0xc0 ./wch_sdk/Peripheral/src/ch32v20x_dma.o
 .debug_frame   0x0000000000000374       0x90 ./wch_sdk/Peripheral/src/ch32v20x_exti.o
 .debug_frame   0x0000000000000404      0x170 ./wch_sdk/Peripheral/src/ch32v20x_gpio.o
 .debug_frame   0x0000000000000574       0x70 ./wch_sdk/Peripheral/src/ch32v20x_iwdg.o
 .debug_frame   0x00000000000005e4      0x244 ./wch_sdk/Peripheral/src/ch32v20x_rcc.o
 .debug_frame   0x0000000000000828      0x610 ./wch_sdk/Peripheral/src/ch32v20x_tim.o
 .debug_frame   0x0000000000000e38      0x204 ./wch_sdk/Peripheral/src/ch32v20x_usart.o
 .debug_frame   0x000000000000103c       0x9c ./wch_sdk/Debug/debug.o
 .debug_frame   0x00000000000010d8      0x140 ./wch_sdk/Core/core_riscv.o
 .debug_frame   0x0000000000001218       0xb0 ./user/ch32v20x_it.o
 .debug_frame   0x00000000000012c8       0x34 ./user/main.o
 .debug_frame   0x00000000000012fc       0x30 ./user/system_ch32v20x.o
 .debug_frame   0x000000000000132c      0x148 ./bldc_software/control.o
 .debug_frame   0x0000000000001474       0xb4 ./bldc_software/motor.o
 .debug_frame   0x0000000000001528       0x74 ./bldc_hardware/operational_amplifier.o
 .debug_frame   0x000000000000159c       0x6c ./bldc_hardware/pwm_input.o
 .debug_frame   0x0000000000001608       0xc0 ./bldc_hardware/pwm_output.o
 .debug_frame   0x00000000000016c8       0x20 ./addition_software/seekfree_assistant.o
 .debug_frame   0x00000000000016e8       0x2c ./addition_software/seekfree_assistant_interface.o
 .debug_frame   0x0000000000001714       0x58 ./addition_hardware/battery.o
 .debug_frame   0x000000000000176c       0x20 ./addition_hardware/delay.o
 .debug_frame   0x000000000000178c       0x2c ./addition_hardware/iwdg.o
 .debug_frame   0x00000000000017b8       0x9c ./addition_hardware/led.o
 .debug_frame   0x0000000000001854       0x68 ./addition_hardware/usart.o
