
CH32V203C8T6_ESC_1.elf:     file format elf32-littleriscv
CH32V203C8T6_ESC_1.elf
architecture: riscv:rv32, flags 0x00000112:
EXEC_P, HAS_SYMS, D_PAGED
start address 0x00000000

Program Header:
0x70000003 off    0x000080e8 vaddr 0x00000000 paddr 0x00000000 align 2**0
         filesz 0x00000035 memsz 0x00000000 flags r--
    LOAD off    0x00001000 vaddr 0x00000000 paddr 0x00000000 align 2**12
         filesz 0x00006438 memsz 0x00006438 flags r-x
    LOAD off    0x00008000 vaddr 0x20000000 paddr 0x00006438 align 2**12
         filesz 0x000000e8 memsz 0x00000170 flags rw-
    LOAD off    0x00000800 vaddr 0x20004800 paddr 0x20004800 align 2**12
         filesz 0x00000000 memsz 0x00000800 flags rw-

Sections:
Idx Name          Size      VMA       LMA       File off  Algn
  0 .init         00000038  00000000  00000000  00001000  2**1
                  CONTENTS, ALLOC, LOAD, READONLY, CODE
  1 .vector       00000108  00000038  00000038  00001038  2**1
                  CONTENTS, ALLOC, LOAD, READONLY, CODE
  2 .text         000062f8  00000140  00000140  00001140  2**2
                  CONTENTS, ALLOC, LOAD, READONLY, CODE
  3 .fini         00000000  00006438  00006438  000080e8  2**0
                  CONTENTS, ALLOC, LOAD, CODE
  4 .dalign       00000000  20000000  20000000  000080e8  2**0
                  CONTENTS
  5 .dlalign      00000000  00006438  00006438  000080e8  2**0
                  CONTENTS
  6 .data         000000e8  20000000  00006438  00008000  2**3
                  CONTENTS, ALLOC, LOAD, DATA
  7 .bss          00000088  200000e8  00006520  000080e8  2**2
                  ALLOC
  8 .stack        00000800  20004800  20004800  00008800  2**0
                  ALLOC
  9 .riscv.attributes 00000035  00000000  00000000  000080e8  2**0
                  CONTENTS, READONLY
 10 .comment      00000031  00000000  00000000  0000811d  2**0
                  CONTENTS, READONLY
 11 .debug_line   0000e191  00000000  00000000  0000814e  2**0
                  CONTENTS, READONLY, DEBUGGING, OCTETS
 12 .debug_line_str 00000e74  00000000  00000000  000162df  2**0
                  CONTENTS, READONLY, DEBUGGING, OCTETS
 13 .debug_info   0000ca5a  00000000  00000000  00017153  2**0
                  CONTENTS, READONLY, DEBUGGING, OCTETS
 14 .debug_abbrev 00002edc  00000000  00000000  00023bad  2**0
                  CONTENTS, READONLY, DEBUGGING, OCTETS
 15 .debug_aranges 00000c78  00000000  00000000  00026a90  2**3
                  CONTENTS, READONLY, DEBUGGING, OCTETS
 16 .debug_str    00003249  00000000  00000000  00027708  2**0
                  CONTENTS, READONLY, DEBUGGING, OCTETS
 17 .debug_rnglists 00000d18  00000000  00000000  0002a951  2**0
                  CONTENTS, READONLY, DEBUGGING, OCTETS
 18 .debug_loclists 00003d9c  00000000  00000000  0002b669  2**0
                  CONTENTS, READONLY, DEBUGGING, OCTETS
 19 .debug_frame  000018bc  00000000  00000000  0002f408  2**2
                  CONTENTS, READONLY, DEBUGGING, OCTETS
SYMBOL TABLE:
00000000 l    d  .init	00000000 .init
00000038 l    d  .vector	00000000 .vector
00000140 l    d  .text	00000000 .text
00006438 l    d  .fini	00000000 .fini
20000000 l    d  .dalign	00000000 .dalign
00006438 l    d  .dlalign	00000000 .dlalign
20000000 l    d  .data	00000000 .data
200000e8 l    d  .bss	00000000 .bss
20004800 l    d  .stack	00000000 .stack
00000000 l    d  .riscv.attributes	00000000 .riscv.attributes
00000000 l    d  .comment	00000000 .comment
00000000 l    d  .debug_line	00000000 .debug_line
00000000 l    d  .debug_line_str	00000000 .debug_line_str
00000000 l    d  .debug_info	00000000 .debug_info
00000000 l    d  .debug_abbrev	00000000 .debug_abbrev
00000000 l    d  .debug_aranges	00000000 .debug_aranges
00000000 l    d  .debug_str	00000000 .debug_str
00000000 l    d  .debug_rnglists	00000000 .debug_rnglists
00000000 l    d  .debug_loclists	00000000 .debug_loclists
00000000 l    d  .debug_frame	00000000 .debug_frame
00000000 l    df *ABS*	00000000 startup_ch32v20x_D6.o
00000038 l       .vector	00000000 _vector_base
00000000 l    df *ABS*	00000000 save-restore.o
00000000 l    df *ABS*	00000000 lib_a-memset.o
00000000 l    df *ABS*	00000000 ch32v20x_adc.c
00000000 l    df *ABS*	00000000 ch32v20x_dma.c
00000000 l    df *ABS*	00000000 ch32v20x_exti.c
00000000 l    df *ABS*	00000000 ch32v20x_gpio.c
00000000 l    df *ABS*	00000000 ch32v20x_iwdg.c
00000000 l    df *ABS*	00000000 ch32v20x_rcc.c
20000000 l     O .data	00000010 APBAHBPrescTable
20000070 l     O .data	00000004 ADCPrescTable
00000000 l    df *ABS*	00000000 ch32v20x_tim.c
00000962 l     F .text	0000006a TI1_Config
000009cc l     F .text	00000084 TI2_Config
00000000 l    df *ABS*	00000000 ch32v20x_usart.c
00000000 l    df *ABS*	00000000 debug.c
20000074 l     O .data	00000004 curbrk.0
00000000 l    df *ABS*	00000000 core_riscv.c
00000000 l    df *ABS*	00000000 ch32v20x_it.c
00000000 l    df *ABS*	00000000 main.c
00000000 l    df *ABS*	00000000 system_ch32v20x.c
00000000 l    df *ABS*	00000000 control.c
200000f2 l     O .bss	00000002 temp_commutation_time
200000f0 l     O .bss	00000002 stall_time_out_check.4
200000ee l     O .bss	00000001 gpio_state.3
200000ed l     O .bss	00000001 oled_pin_state.2
200000ec l     O .bss	00000001 restart_count.1
2000007c l     O .data	00000002 restart_delay.0
00000000 l    df *ABS*	00000000 motor.c
00000000 l    df *ABS*	00000000 operational_amplifier.c
00000000 l    df *ABS*	00000000 pwm_input.c
00000000 l    df *ABS*	00000000 pwm_output.c
00000000 l    df *ABS*	00000000 seekfree_assistant.c
00000000 l    df *ABS*	00000000 seekfree_assistant_interface.c
00000000 l    df *ABS*	00000000 battery.c
200000f4 l     O .bss	00000002 low_power_num.0
00000000 l    df *ABS*	00000000 delay.c
00000000 l    df *ABS*	00000000 iwdg.c
00000000 l    df *ABS*	00000000 led.c
200000fc l     O .bss	00000004 time_count.0
00000000 l    df *ABS*	00000000 usart.c
00000000 l    df *ABS*	00000000 divdf3.o
00000000 l    df *ABS*	00000000 muldf3.o
00000000 l    df *ABS*	00000000 fixunsdfsi.o
00000000 l    df *ABS*	00000000 floatunsidf.o
00000000 l    df *ABS*	00000000 addsf3.o
00000000 l    df *ABS*	00000000 divsf3.o
00000000 l    df *ABS*	00000000 gesf2.o
00000000 l    df *ABS*	00000000 lesf2.o
00000000 l    df *ABS*	00000000 mulsf3.o
00000000 l    df *ABS*	00000000 subsf3.o
00000000 l    df *ABS*	00000000 fixsfsi.o
00000000 l    df *ABS*	00000000 floatsisf.o
00000000 l    df *ABS*	00000000 floatunsisf.o
00000000 l    df *ABS*	00000000 extendsfdf2.o
00000000 l    df *ABS*	00000000 truncdfsf2.o
00000000 l    df *ABS*	00000000 _clzsi2.o
00000000 l    df *ABS*	00000000 lib_a-printf.o
00000000 l    df *ABS*	00000000 lib_a-puts.o
00000000 l    df *ABS*	00000000 lib_a-rand.o
00000000 l    df *ABS*	00000000 lib_a-wbuf.o
00000000 l    df *ABS*	00000000 lib_a-wsetup.o
00000000 l    df *ABS*	00000000 lib_a-assert.o
00000000 l    df *ABS*	00000000 lib_a-fflush.o
00000000 l    df *ABS*	00000000 lib_a-findfp.o
0000511a l     F .text	00000066 std
00000000 l    df *ABS*	00000000 lib_a-fprintf.o
00000000 l    df *ABS*	00000000 lib_a-fwalk.o
00000000 l    df *ABS*	00000000 lib_a-lock.o
00000000 l    df *ABS*	00000000 lib_a-makebuf.o
00000000 l    df *ABS*	00000000 lib_a-malloc.o
00000000 l    df *ABS*	00000000 lib_a-nano-freer.o
00000000 l    df *ABS*	00000000 lib_a-nano-mallocr.o
00005526 l     F .text	00000054 sbrk_aligned
00000000 l    df *ABS*	00000000 lib_a-nano-vfprintf.o
00005686 l     F .text	00000028 __sfputc_r
00000000 l    df *ABS*	00000000 lib_a-sbrkr.o
00000000 l    df *ABS*	00000000 lib_a-stdio.o
00000000 l    df *ABS*	00000000 lib_a-writer.o
00000000 l    df *ABS*	00000000 lib_a-abort.o
00000000 l    df *ABS*	00000000 lib_a-closer.o
00000000 l    df *ABS*	00000000 lib_a-fstatr.o
00000000 l    df *ABS*	00000000 lib_a-isattyr.o
00000000 l    df *ABS*	00000000 lib_a-lseekr.o
00000000 l    df *ABS*	00000000 lib_a-memchr.o
00000000 l    df *ABS*	00000000 lib_a-mlock.o
00000000 l    df *ABS*	00000000 lib_a-nano-vfprintf_i.o
00000000 l    df *ABS*	00000000 lib_a-readr.o
00000000 l    df *ABS*	00000000 lib_a-signal.o
00000000 l    df *ABS*	00000000 lib_a-signalr.o
00000000 l    df *ABS*	00000000 close.o
00000000 l    df *ABS*	00000000 fstat.o
00000000 l    df *ABS*	00000000 getpid.o
00000000 l    df *ABS*	00000000 isatty.o
00000000 l    df *ABS*	00000000 kill.o
00000000 l    df *ABS*	00000000 lseek.o
00000000 l    df *ABS*	00000000 read.o
00000000 l    df *ABS*	00000000 _exit.o
00000000 l    df *ABS*	00000000 lib_a-impure.o
20000010 l     O .data	00000060 impure_data
00000d4e g     F .text	00000016 TIM_TimeBaseStructInit
00001c5e g     F .text	000000a4 motor_next_step
0000133a g     F .text	00000012 EXTI2_IRQHandler
00005b08 g     F .text	00000026 _isatty_r
00005fe2 g     F .text	0000000c _getpid
00004b60 g     F .text	00000108 _puts_r
00005b2e g     F .text	0000002a _lseek_r
00000520 g     F .text	00000014 DMA_Cmd
00005fa0 g     F .text	00000028 _kill_r
00000e8c g     F .text	0000001c TIM_CCxCmd
00004b26 g     F .text	0000003a printf
20000870 g       .data	00000000 __global_pointer$
00000f38 g     F .text	0000001a TIM_SetIC4Prescaler
00000148 g     F .text	00000028 .hidden __riscv_save_8
000001f4  w      .text	00000000 TIM1_CC_IRQHandler
00005a4c g     F .text	00000030 __sseek
000051e8 g     F .text	0000006e __sinit
00004d7e g     F .text	000000bc __swbuf_r
00001350 g     F .text	0000004a HardFault_Handler
00001d02 g     F .text	00000090 motor_brake
0000518a g     F .text	00000046 __sfmoreglue
00005b78 g     F .text	00000008 __malloc_unlock
00002296 g     F .text	0000002a pwm_duty_update
00000346 g     F .text	00000012 ADC_DMACmd
00000194 g     F .text	0000000c .hidden __riscv_restore_3
00003c44 g     F .text	000002ea .hidden __divsf3
00000e28 g     F .text	0000000e TIM_OC1PreloadConfig
0000121e g     F .text	000000c8 SysTick_Handler
0000036a g     F .text	0000000a ADC_StartCalibration
000001c0  w      .text	00000000 PVD_IRQHandler
00000180 g     F .text	00000020 .hidden __riscv_restore_10
0000134c g     F .text	00000004 NMI_Handler
000046c4 g     F .text	00000060 .hidden __fixsfsi
000001d0  w      .text	00000000 EXTI3_IRQHandler
00000148 g     F .text	00000028 .hidden __riscv_save_11
00000f22 g     F .text	00000016 TIM_SetIC3Prescaler
0000119e g     F .text	0000000a USART_GetFlagStatus
00005ae0 g     F .text	00000028 _fstat_r
00001d92 g     F .text	00000002 motor_stop
20000114 g     O .bss	00000004 errno
200000e8 g       .bss	00000000 _sbss
00000800 g       *ABS*	00000000 __stack_size
00001fa4 g     F .text	00000046 pa2_exit_init
000004e8 g     F .text	00000038 DMA_Init
00004338 g     F .text	0000038c .hidden __subsf3
00001b20 g     F .text	0000007a commutation_time_count_init
00001f92 g     F .text	00000012 enable_opama_interrupts
00000194 g     F .text	0000000c .hidden __riscv_restore_2
000007de g     F .text	00000008 IWDG_SetReload
00000dd2 g     F .text	00000016 TIM_CtrlPWMOutputs
00000336 g     F .text	00000010 ADC_Cmd
00001998 g     F .text	000000ce PID_Calculate
00001f7e g     F .text	00000014 disable_opama_interrupts
00005180 g     F .text	0000000a _cleanup_r
00000690 g     F .text	00000112 GPIO_PinRemapConfig
000001ca  w      .text	00000000 EXTI0_IRQHandler
00000200  w      .text	00000000 I2C2_EV_IRQHandler
00000dba g     F .text	00000018 TIM_Cmd
00004c68 g     F .text	00000008 puts
20000078 g     O .data	00000004 SystemCoreClock
00005480 g     F .text	00000008 malloc
2000014c g     O .bss	00000024 fan
00005f36 g     F .text	00000060 _raise_r
00005fd6 g     F .text	0000000c _fstat
00004f28 g     F .text	00000038 __assert_func
00002148 g     F .text	0000014e pwm_input_init
00000038 g       .init	00000000 _einit
0000151c g     F .text	000000b4 commutation_and_degauss_callback
000010c2 g     F .text	0000000c TIM_ClearITPendingBit
00003fc4 g     F .text	00000098 .hidden __lesf2
0000271c g     F .text	00000236 pwm_complementary_init
000008ea g     F .text	0000001e RCC_APB2PeriphClockCmd
00000140 g     F .text	00000030 .hidden __riscv_save_12
00003814 g     F .text	00000058 .hidden __fixunsdfsi
000001e2  w      .text	00000000 ADC1_2_IRQHandler
00005fc8 g     F .text	00000002 _getpid_r
000005a2 g     F .text	000000ee GPIO_Init
00000802 g     F .text	00000012 RCC_ADCCLKConfig
000001b8  w      .text	00000000 Break_Point_Handler
00000180 g     F .text	00000020 .hidden __riscv_restore_11
00000204  w      .text	00000000 SPI1_IRQHandler
00000358 g     F .text	0000000a ADC_ResetCalibration
00001182 g     F .text	00000014 USART_Cmd
000059b0 g     F .text	00000028 _sbrk_r
000010a2 g     F .text	00000004 TIM_GetCapture1
00000170 g     F .text	0000000c .hidden __riscv_save_1
000001c2  w      .text	00000000 TAMPER_IRQHandler
00000194 g     F .text	0000000c .hidden __riscv_restore_0
00000c34 g     F .text	00000092 TIM_OC3Init
00005f0c g     F .text	0000002a _read_r
00000156 g     F .text	0000001a .hidden __riscv_save_7
0000165e g     F .text	000002dc pit_callback
000048ac g     F .text	000000a6 .hidden __extendsfdf2
00000a50 g     F .text	0000007c TIM_DeInit
00000908 g     F .text	0000001e RCC_APB1PeriphClockCmd
000001b4  w      .text	00000000 Ecall_M_Mode_Handler
20004800 g       .stack	00000000 _heap_end
00005fee g     F .text	0000000c _isatty
20000108 g     O .bss	00000001 __lock___sinit_recursive_mutex
200000e4 g     O .data	00000004 _global_impure_ptr
0000018a g     F .text	00000016 .hidden __riscv_restore_5
000008cc g     F .text	0000001e RCC_AHBPeriphClockCmd
000001da  w      .text	00000000 DMA1_Channel4_IRQHandler
00000394 g     F .text	000000b8 ADC_RegularChannelConfig
00000e7e g     F .text	0000000e TIM_OC3FastConfig
00005aae g     F .text	0000000c abort
0000386c g     F .text	00000070 .hidden __floatunsidf
000011e2 g     F .text	0000002a _sbrk
0000268c g     F .text	00000090 pwm_an_bn_cn_off
000007e6 g     F .text	0000000e IWDG_ReloadCounter
00001a66 g     F .text	00000042 pit_init
0000018a g     F .text	00000016 .hidden __riscv_restore_6
0000020c  w      .text	00000000 USART3_IRQHandler
00000596 g     F .text	0000000c EXTI_ClearITPendingBit
000001c4  w      .text	00000000 RTC_IRQHandler
00000374 g     F .text	00000008 ADC_GetCalibrationStatus
200000e9 g     O .bss	00000001 clac_flag
20000170 g       .bss	00000000 _ebss
000001e0  w      .text	00000000 DMA1_Channel7_IRQHandler
00001d94 g     F .text	000001ea motor_power_on_beep
00000b36 g     F .text	0000006a TIM_OC1Init
0000037c g     F .text	00000018 ADC_SoftwareStartConvCmd
00000e4c g     F .text	0000000e TIM_OC3PreloadConfig
0000193a g     F .text	0000005e PID_Init
00000362 g     F .text	00000008 ADC_GetResetCalibrationStatus
000001e8  w      .text	00000000 CAN1_RX1_IRQHandler
00002990  w    F .text	0000000c seekfree_assistant_transfer
20000100 g     O .bss	00000001 __lock___malloc_recursive_mutex
00003f2e g     F .text	00000096 .hidden __gtsf2
00005302 g     F .text	00000024 fprintf
00001328 g     F .text	00000012 TIM4_IRQHandler
00000e0e g     F .text	0000001a TIM_ARRPreloadConfig
00000148 g     F .text	00000028 .hidden __riscv_save_9
00006344 g     O .text	00000020 __sf_fake_stderr
00000156 g     F .text	0000001a .hidden __riscv_save_4
000001fc  w      .text	00000000 I2C1_EV_IRQHandler
00005392 g     F .text	00000002 __retarget_lock_release_recursive
000025e8 g     F .text	000000a4 pwm_c_bn_output
000010aa g     F .text	00000018 TIM_GetITStatus
00000214  w      .text	00000000 USBHD_IRQHandler
00000814 g     F .text	000000b8 RCC_GetClocksFreq
20000140 g     O .bss	0000000a motor_pwm_input_value
000001de  w      .text	00000000 DMA1_Channel6_IRQHandler
00004abe g     F .text	00000068 .hidden __clzsi2
000056ae g     F .text	00000042 __sfputs_r
00000218  w      .text	00000000 UART4_IRQHandler
000051d0 g     F .text	00000006 __sfp_lock_acquire
00005b58 g     F .text	00000018 memchr
000010ce g     F .text	000000b4 USART_Init
00005488 g     F .text	0000009e _free_r
00001316 g     F .text	00000012 TIM3_IRQHandler
000001c8  w      .text	00000000 RCC_IRQHandler
00000170 g     F .text	0000000c .hidden __riscv_save_3
000001f2  w      .text	00000000 TIM1_TRG_COM_IRQHandler
000001d4  w      .text	00000000 DMA1_Channel1_IRQHandler
00000e5a g     F .text	0000000e TIM_OC1FastConfig
000007ce g     F .text	00000008 IWDG_WriteAccessCmd
00000000 g       .init	00000000 _start
00004ce0 g     F .text	0000009e rand
00006006 g     F .text	0000000c _lseek
00001c2c g     F .text	00000032 motor_start
00000e36 g     F .text	00000016 TIM_OC2PreloadConfig
00000dfe g     F .text	00000010 TIM_SelectInputTrigger
00004724 g     F .text	000000cc .hidden __floatsisf
0000020e  w      .text	00000000 EXTI15_10_IRQHandler
00002b94 g     F .text	00000012 led_run_toggle
00000de8 g     F .text	00000012 TIM_ITConfig
00000ba0 g     F .text	00000094 TIM_OC2Init
00002124 g     F .text	00000024 pwm_input_timeout_callback
000007f4 g     F .text	0000000e IWDG_Enable
00000534 g     F .text	00000062 EXTI_Init
0000021a  w      .text	00000000 DMA1_Channel8_IRQHandler
00001212 g     F .text	00000006 __get_MCAUSE
00002b38 g     F .text	00000034 system_delay
00005aba g     F .text	00000026 _close_r
20000000 g       .dalign	00000000 _data_vma
000022c0 g     F .text	000000a2 pwm_a_bn_output
00000cc6 g     F .text	00000068 TIM_OC4Init
00002a0a g     F .text	0000012e battery_voltage_init
200000e8 g     O .bss	00000001 MCU_Version
00004e3a g     F .text	000000ee __swsetup_r
000001ec  w      .text	00000000 EXTI9_5_IRQHandler
00002d1c g     F .text	000005ae .hidden __divdf3
00005256 g     F .text	000000ac __sfp
000007a2 g     F .text	0000002c GPIO_EXTILineConfig
000051e2 g     F .text	00000006 __sinit_lock_release
000032ca g     F .text	0000054a .hidden __muldf3
00000148 g     F .text	00000028 .hidden __riscv_save_10
000059d8 g     F .text	0000002c __sread
00000ef2 g     F .text	00000016 TIM_SetIC1Prescaler
00005b70 g     F .text	00000008 __malloc_lock
0000018a g     F .text	00000016 .hidden __riscv_restore_4
00001218 g     F .text	00000006 __get_MTVAL
00000180 g     F .text	00000020 .hidden __riscv_restore_8
0000120c g     F .text	00000006 __get_MEPC
00005092 g     F .text	00000088 _fflush_r
00000156 g     F .text	0000001a .hidden __riscv_save_6
00000206  w      .text	00000000 SPI2_IRQHandler
00002c8c g     F .text	00000062 usart_init
00006384 g     O .text	00000020 __sf_fake_stdin
00005390 g     F .text	00000002 __retarget_lock_acquire_recursive
00002b6c g     F .text	00000028 iwdg_init
000001a0 g     F .text	00000010 memset
00000180 g     F .text	00000020 .hidden __riscv_restore_9
0000018a g     F .text	00000016 .hidden __riscv_restore_7
0000139a g     F .text	000000d6 main
0000538e g     F .text	00000002 __retarget_lock_init_recursive
00004c70 g     F .text	00000070 srand
00003fc4 g     F .text	00000098 .hidden __ltsf2
00005a7c g     F .text	00000006 __sclose
00004952 g     F .text	0000016c .hidden __truncdfsf2
0000557a g     F .text	0000010c _malloc_r
00000e68 g     F .text	00000016 TIM_OC2FastConfig
000001dc  w      .text	00000000 DMA1_Channel5_IRQHandler
000001d2  w      .text	00000000 EXTI4_IRQHandler
000001e6  w      .text	00000000 USB_LP_CAN1_RX0_IRQHandler
0000405c g     F .text	000002dc .hidden __mulsf3
000010a6 g     F .text	00000004 TIM_GetCapture2
00001470 g     F .text	000000ac SystemInit
00001bea g     F .text	00000042 motor_commutation_execute
00000f52 g     F .text	00000150 TIM_ICInit
00004b26 g     F .text	0000003a iprintf
000001e4  w      .text	00000000 USB_HP_CAN1_TX_IRQHandler
00006178 g     O .text	00000100 .hidden __clz_tab
00000000 g       .init	00000000 _sinit
000024a4 g     F .text	000000a0 pwm_b_an_output
00000d86 g     F .text	00000016 TIM_ICStructInit
00001aa8 g     F .text	00000078 advance_commutation_count_init
00000216  w      .text	00000000 USBHDWakeUp_IRQHandler
00003f2e g     F .text	00000096 .hidden __gesf2
00005a82 g     F .text	0000002c _write_r
000001d8  w      .text	00000000 DMA1_Channel3_IRQHandler
00005b80 g     F .text	00000110 _printf_common
20000080 g     O .data	00000004 _impure_ptr
000001f0  w      .text	00000000 TIM1_UP_IRQHandler
00004f60 g     F .text	00000132 __sflush_r
00002ba6 g     F .text	00000012 led_err_toggle
000001be  w      .text	00000000 WWDG_IRQHandler
00000944 g     F .text	0000001e RCC_APB1PeriphResetCmd
000001b6  w      .text	00000000 Ecall_U_Mode_Handler
000012e6 g     F .text	00000030 TIM2_IRQHandler
00002c3e g     F .text	0000004e led_init
20005000 g       .stack	00000000 _eusrstack
00000170 g     F .text	0000000c .hidden __riscv_save_2
000001bc  w      .text	00000000 SW_Handler
000002a2 g     F .text	0000003e ADC_DeInit
00000d9c g     F .text	0000001e TIM_BDTRStructInit
00000d64 g     F .text	00000022 TIM_OCStructInit
20000118 g     O .bss	00000028 motor
000001ee  w      .text	00000000 TIM1_BRK_IRQHandler
00005394 g     F .text	0000005a __swhatbuf_r
000002e0 g     F .text	00000056 ADC_Init
00001196 g     F .text	00000008 USART_SendData
00000ea8 g     F .text	0000001c TIM_CCxNCmd
000001cc  w      .text	00000000 EXTI1_IRQHandler
00002404 g     F .text	000000a0 pwm_b_cn_output
00000eda g     F .text	00000018 TIM_SelectMasterSlaveMode
00000156 g     F .text	0000001a .hidden __riscv_save_5
000011a8 g     F .text	0000003a _write
200000e8 g       .data	00000000 _edata
0000299c g     F .text	0000006e battery_voltage_get
20000170 g       .bss	00000000 _end
00000acc g     F .text	0000006a TIM_TimeBaseInit
00001b9a g     F .text	00000050 set_vector_table_free
00000210  w      .text	00000000 RTCAlarm_IRQHandler
00006438 g       .dlalign	00000000 _data_lma
00002544 g     F .text	000000a4 pwm_c_an_output
200000f8 g     O .bss	00000004 battery
0000020a  w      .text	00000000 USART2_IRQHandler
00002952 g     F .text	0000003e seekfree_assistant_oscilloscope_send
00005a04 g     F .text	00000048 __swrite
00005302 g     F .text	00000024 fiprintf
000056f0 g     F .text	000002c0 _vfiprintf_r
00005326 g     F .text	00000068 _fwalk_reent
000047f0 g     F .text	000000bc .hidden __floatunsisf
00001604 g     F .text	0000005a opama_callback
00005ffa g     F .text	0000000c _kill
00000202  w      .text	00000000 I2C2_ER_IRQHandler
000001d6  w      .text	00000000 DMA1_Channel2_IRQHandler
000051d6 g     F .text	00000006 __sfp_lock_release
00006364 g     O .text	00000020 __sf_fake_stdout
00000dfa g     F .text	00000004 TIM_GenerateEvent
0000017c g     F .text	00000024 .hidden __riscv_restore_12
00006012 g     F .text	0000000c _read
00000d2e g     F .text	00000020 TIM_BDTRConfig
0000021c  w      .text	00000000 handle_reset
000007d6 g     F .text	00000008 IWDG_SetPrescaler
000001ea  w      .text	00000000 CAN1_SCE_IRQHandler
00002bb8 g     F .text	00000086 led_control
00000170 g     F .text	0000000c .hidden __riscv_save_0
000001c6  w      .text	00000000 FLASH_IRQHandler
0000601e g     F .text	00000002 _exit
00000208  w      .text	00000000 USART1_IRQHandler
000053ee g     F .text	00000092 __smakebuf_r
00002d02 g     F .text	0000001a uart_write_buffer
00005c90 g     F .text	0000027c _printf_i
00000f08 g     F .text	0000001a TIM_SetIC2Prescaler
2000010c g     O .bss	00000004 __malloc_sbrk_start
00002362 g     F .text	000000a2 pwm_a_cn_output
00000926 g     F .text	0000001e RCC_APB2PeriphResetCmd
00000ec4 g     F .text	00000016 TIM_SelectSlaveMode
000001fe  w      .text	00000000 I2C1_ER_IRQHandler
0000044c g     F .text	0000009c DMA_DeInit
20000110 g     O .bss	00000004 __malloc_free_list
00000194 g     F .text	0000000c .hidden __riscv_restore_1
000056f0 g     F .text	000002c0 _vfprintf_r
200000ea g     O .bss	00000002 period_time
00001fea g     F .text	00000066 opama_init
00002050 g     F .text	000000d4 pwm_input_trigger_callback
000038dc g     F .text	00000368 .hidden __addsf3
000015d0 g     F .text	00000034 commutation_time_out_callback
00000212  w      .text	00000000 USBWakeUp_IRQHandler
20000104 g     O .bss	00000001 __lock___sfp_recursive_mutex
00005fca g     F .text	0000000c _close
00005f96 g     F .text	0000000a raise
000051dc g     F .text	00000006 __sinit_lock_acquire
00002cee g     F .text	00000014 uart_write_byte



Disassembly of section .init:

00000000 <_sinit>:
   0:	21c0006f          	j	21c <handle_reset>
   4:	00000013          	.word	0x00000013
   8:	00000013          	.word	0x00000013
   c:	00000013          	.word	0x00000013
  10:	00000013          	.word	0x00000013
  14:	00000013          	.word	0x00000013
  18:	00000013          	.word	0x00000013
  1c:	00000013          	.word	0x00000013
  20:	00000013          	.word	0x00000013
  24:	00000013          	.word	0x00000013
  28:	00000013          	.word	0x00000013
  2c:	00000013          	.word	0x00000013
  30:	00000013          	.word	0x00000013
  34:	00100073          	.word	0x00100073

Disassembly of section .vector:

00000038 <_vector_base>:
	...
  40:	0000134c          	.word	0x0000134c
  44:	00001350          	.word	0x00001350
  48:	00000000          	.word	0x00000000
  4c:	000001b4          	.word	0x000001b4
	...
  58:	000001b6          	.word	0x000001b6
  5c:	000001b8          	.word	0x000001b8
	...
  68:	0000121e          	.word	0x0000121e
  6c:	00000000          	.word	0x00000000
  70:	000001bc          	.word	0x000001bc
  74:	00000000          	.word	0x00000000
  78:	000001be          	.word	0x000001be
  7c:	000001c0          	.word	0x000001c0
  80:	000001c2          	.word	0x000001c2
  84:	000001c4          	.word	0x000001c4
  88:	000001c6          	.word	0x000001c6
  8c:	000001c8          	.word	0x000001c8
  90:	000001ca          	.word	0x000001ca
  94:	000001cc          	.word	0x000001cc
  98:	0000133a          	.word	0x0000133a
  9c:	000001d0          	.word	0x000001d0
  a0:	000001d2          	.word	0x000001d2
  a4:	000001d4          	.word	0x000001d4
  a8:	000001d6          	.word	0x000001d6
  ac:	000001d8          	.word	0x000001d8
  b0:	000001da          	.word	0x000001da
  b4:	000001dc          	.word	0x000001dc
  b8:	000001de          	.word	0x000001de
  bc:	000001e0          	.word	0x000001e0
  c0:	000001e2          	.word	0x000001e2
  c4:	000001e4          	.word	0x000001e4
  c8:	000001e6          	.word	0x000001e6
  cc:	000001e8          	.word	0x000001e8
  d0:	000001ea          	.word	0x000001ea
  d4:	000001ec          	.word	0x000001ec
  d8:	000001ee          	.word	0x000001ee
  dc:	000001f0          	.word	0x000001f0
  e0:	000001f2          	.word	0x000001f2
  e4:	000001f4          	.word	0x000001f4
  e8:	000012e6          	.word	0x000012e6
  ec:	00001316          	.word	0x00001316
  f0:	00001328          	.word	0x00001328
  f4:	000001fc          	.word	0x000001fc
  f8:	000001fe          	.word	0x000001fe
  fc:	00000200          	.word	0x00000200
 100:	00000202          	.word	0x00000202
 104:	00000204          	.word	0x00000204
 108:	00000206          	.word	0x00000206
 10c:	00000208          	.word	0x00000208
 110:	0000020a          	.word	0x0000020a
 114:	0000020c          	.word	0x0000020c
 118:	0000020e          	.word	0x0000020e
 11c:	00000210          	.word	0x00000210
 120:	00000212          	.word	0x00000212
 124:	00000214          	.word	0x00000214
 128:	00000216          	.word	0x00000216
 12c:	00000218          	.word	0x00000218
 130:	0000021a          	.word	0x0000021a
	...

Disassembly of section .text:

00000140 <__riscv_save_12>:
     140:	7139                	addi	sp,sp,-64
     142:	4301                	li	t1,0
     144:	c66e                	sw	s11,12(sp)
     146:	a019                	j	14c <__riscv_save_10+0x4>

00000148 <__riscv_save_10>:
     148:	7139                	addi	sp,sp,-64
     14a:	5341                	li	t1,-16
     14c:	c86a                	sw	s10,16(sp)
     14e:	ca66                	sw	s9,20(sp)
     150:	cc62                	sw	s8,24(sp)
     152:	ce5e                	sw	s7,28(sp)
     154:	a019                	j	15a <__riscv_save_4+0x4>

00000156 <__riscv_save_4>:
     156:	7139                	addi	sp,sp,-64
     158:	5301                	li	t1,-32
     15a:	d05a                	sw	s6,32(sp)
     15c:	d256                	sw	s5,36(sp)
     15e:	d452                	sw	s4,40(sp)
     160:	d64e                	sw	s3,44(sp)
     162:	d84a                	sw	s2,48(sp)
     164:	da26                	sw	s1,52(sp)
     166:	dc22                	sw	s0,56(sp)
     168:	de06                	sw	ra,60(sp)
     16a:	40610133          	sub	sp,sp,t1
     16e:	8282                	jr	t0

00000170 <__riscv_save_0>:
     170:	1141                	addi	sp,sp,-16
     172:	c04a                	sw	s2,0(sp)
     174:	c226                	sw	s1,4(sp)
     176:	c422                	sw	s0,8(sp)
     178:	c606                	sw	ra,12(sp)
     17a:	8282                	jr	t0

0000017c <__riscv_restore_12>:
     17c:	4db2                	lw	s11,12(sp)
     17e:	0141                	addi	sp,sp,16

00000180 <__riscv_restore_10>:
     180:	4d02                	lw	s10,0(sp)
     182:	4c92                	lw	s9,4(sp)
     184:	4c22                	lw	s8,8(sp)
     186:	4bb2                	lw	s7,12(sp)
     188:	0141                	addi	sp,sp,16

0000018a <__riscv_restore_4>:
     18a:	4b02                	lw	s6,0(sp)
     18c:	4a92                	lw	s5,4(sp)
     18e:	4a22                	lw	s4,8(sp)
     190:	49b2                	lw	s3,12(sp)
     192:	0141                	addi	sp,sp,16

00000194 <__riscv_restore_0>:
     194:	4902                	lw	s2,0(sp)
     196:	4492                	lw	s1,4(sp)
     198:	4422                	lw	s0,8(sp)
     19a:	40b2                	lw	ra,12(sp)
     19c:	0141                	addi	sp,sp,16
     19e:	8082                	ret

000001a0 <memset>:
     1a0:	832a                	mv	t1,a0
     1a2:	c611                	beqz	a2,1ae <memset+0xe>
     1a4:	00b30023          	sb	a1,0(t1)
     1a8:	167d                	addi	a2,a2,-1
     1aa:	0305                	addi	t1,t1,1
     1ac:	fe65                	bnez	a2,1a4 <memset+0x4>
     1ae:	8082                	ret
     1b0:	a001                	j	1b0 <memset+0x10>
     1b2:	a001                	j	1b2 <memset+0x12>

000001b4 <Ecall_M_Mode_Handler>:
     1b4:	a001                	j	1b4 <Ecall_M_Mode_Handler>

000001b6 <Ecall_U_Mode_Handler>:
     1b6:	a001                	j	1b6 <Ecall_U_Mode_Handler>

000001b8 <Break_Point_Handler>:
     1b8:	a001                	j	1b8 <Break_Point_Handler>
     1ba:	a001                	j	1ba <Break_Point_Handler+0x2>

000001bc <SW_Handler>:
     1bc:	a001                	j	1bc <SW_Handler>

000001be <WWDG_IRQHandler>:
     1be:	a001                	j	1be <WWDG_IRQHandler>

000001c0 <PVD_IRQHandler>:
     1c0:	a001                	j	1c0 <PVD_IRQHandler>

000001c2 <TAMPER_IRQHandler>:
     1c2:	a001                	j	1c2 <TAMPER_IRQHandler>

000001c4 <RTC_IRQHandler>:
     1c4:	a001                	j	1c4 <RTC_IRQHandler>

000001c6 <FLASH_IRQHandler>:
     1c6:	a001                	j	1c6 <FLASH_IRQHandler>

000001c8 <RCC_IRQHandler>:
     1c8:	a001                	j	1c8 <RCC_IRQHandler>

000001ca <EXTI0_IRQHandler>:
     1ca:	a001                	j	1ca <EXTI0_IRQHandler>

000001cc <EXTI1_IRQHandler>:
     1cc:	a001                	j	1cc <EXTI1_IRQHandler>
     1ce:	a001                	j	1ce <EXTI1_IRQHandler+0x2>

000001d0 <EXTI3_IRQHandler>:
     1d0:	a001                	j	1d0 <EXTI3_IRQHandler>

000001d2 <EXTI4_IRQHandler>:
     1d2:	a001                	j	1d2 <EXTI4_IRQHandler>

000001d4 <DMA1_Channel1_IRQHandler>:
     1d4:	a001                	j	1d4 <DMA1_Channel1_IRQHandler>

000001d6 <DMA1_Channel2_IRQHandler>:
     1d6:	a001                	j	1d6 <DMA1_Channel2_IRQHandler>

000001d8 <DMA1_Channel3_IRQHandler>:
     1d8:	a001                	j	1d8 <DMA1_Channel3_IRQHandler>

000001da <DMA1_Channel4_IRQHandler>:
     1da:	a001                	j	1da <DMA1_Channel4_IRQHandler>

000001dc <DMA1_Channel5_IRQHandler>:
     1dc:	a001                	j	1dc <DMA1_Channel5_IRQHandler>

000001de <DMA1_Channel6_IRQHandler>:
     1de:	a001                	j	1de <DMA1_Channel6_IRQHandler>

000001e0 <DMA1_Channel7_IRQHandler>:
     1e0:	a001                	j	1e0 <DMA1_Channel7_IRQHandler>

000001e2 <ADC1_2_IRQHandler>:
     1e2:	a001                	j	1e2 <ADC1_2_IRQHandler>

000001e4 <USB_HP_CAN1_TX_IRQHandler>:
     1e4:	a001                	j	1e4 <USB_HP_CAN1_TX_IRQHandler>

000001e6 <USB_LP_CAN1_RX0_IRQHandler>:
     1e6:	a001                	j	1e6 <USB_LP_CAN1_RX0_IRQHandler>

000001e8 <CAN1_RX1_IRQHandler>:
     1e8:	a001                	j	1e8 <CAN1_RX1_IRQHandler>

000001ea <CAN1_SCE_IRQHandler>:
     1ea:	a001                	j	1ea <CAN1_SCE_IRQHandler>

000001ec <EXTI9_5_IRQHandler>:
     1ec:	a001                	j	1ec <EXTI9_5_IRQHandler>

000001ee <TIM1_BRK_IRQHandler>:
     1ee:	a001                	j	1ee <TIM1_BRK_IRQHandler>

000001f0 <TIM1_UP_IRQHandler>:
     1f0:	a001                	j	1f0 <TIM1_UP_IRQHandler>

000001f2 <TIM1_TRG_COM_IRQHandler>:
     1f2:	a001                	j	1f2 <TIM1_TRG_COM_IRQHandler>

000001f4 <TIM1_CC_IRQHandler>:
     1f4:	a001                	j	1f4 <TIM1_CC_IRQHandler>
     1f6:	a001                	j	1f6 <TIM1_CC_IRQHandler+0x2>
     1f8:	a001                	j	1f8 <TIM1_CC_IRQHandler+0x4>
     1fa:	a001                	j	1fa <TIM1_CC_IRQHandler+0x6>

000001fc <I2C1_EV_IRQHandler>:
     1fc:	a001                	j	1fc <I2C1_EV_IRQHandler>

000001fe <I2C1_ER_IRQHandler>:
     1fe:	a001                	j	1fe <I2C1_ER_IRQHandler>

00000200 <I2C2_EV_IRQHandler>:
     200:	a001                	j	200 <I2C2_EV_IRQHandler>

00000202 <I2C2_ER_IRQHandler>:
     202:	a001                	j	202 <I2C2_ER_IRQHandler>

00000204 <SPI1_IRQHandler>:
     204:	a001                	j	204 <SPI1_IRQHandler>

00000206 <SPI2_IRQHandler>:
     206:	a001                	j	206 <SPI2_IRQHandler>

00000208 <USART1_IRQHandler>:
     208:	a001                	j	208 <USART1_IRQHandler>

0000020a <USART2_IRQHandler>:
     20a:	a001                	j	20a <USART2_IRQHandler>

0000020c <USART3_IRQHandler>:
     20c:	a001                	j	20c <USART3_IRQHandler>

0000020e <EXTI15_10_IRQHandler>:
     20e:	a001                	j	20e <EXTI15_10_IRQHandler>

00000210 <RTCAlarm_IRQHandler>:
     210:	a001                	j	210 <RTCAlarm_IRQHandler>

00000212 <USBWakeUp_IRQHandler>:
     212:	a001                	j	212 <USBWakeUp_IRQHandler>

00000214 <USBHD_IRQHandler>:
     214:	a001                	j	214 <USBHD_IRQHandler>

00000216 <USBHDWakeUp_IRQHandler>:
     216:	a001                	j	216 <USBHDWakeUp_IRQHandler>

00000218 <UART4_IRQHandler>:
     218:	a001                	j	218 <UART4_IRQHandler>

0000021a <DMA1_Channel8_IRQHandler>:
     21a:	a001                	j	21a <DMA1_Channel8_IRQHandler>

0000021c <handle_reset>:
     21c:	20000197          	auipc	gp,0x20000
     220:	65418193          	addi	gp,gp,1620 # 20000870 <__global_pointer$>
     224:	20005117          	auipc	sp,0x20005
     228:	ddc10113          	addi	sp,sp,-548 # 20005000 <_eusrstack>
     22c:	00006517          	auipc	a0,0x6
     230:	20c50513          	addi	a0,a0,524 # 6438 <_data_lma>
     234:	20000597          	auipc	a1,0x20000
     238:	dcc58593          	addi	a1,a1,-564 # 20000000 <APBAHBPrescTable>
     23c:	87818613          	addi	a2,gp,-1928 # 200000e8 <MCU_Version>
     240:	00c5fa63          	bgeu	a1,a2,254 <handle_reset+0x38>
     244:	00052283          	lw	t0,0(a0)
     248:	0055a023          	sw	t0,0(a1)
     24c:	0511                	addi	a0,a0,4
     24e:	0591                	addi	a1,a1,4
     250:	fec5eae3          	bltu	a1,a2,244 <handle_reset+0x28>
     254:	87818513          	addi	a0,gp,-1928 # 200000e8 <MCU_Version>
     258:	90018593          	addi	a1,gp,-1792 # 20000170 <_ebss>
     25c:	00b57763          	bgeu	a0,a1,26a <handle_reset+0x4e>
     260:	00052023          	sw	zero,0(a0)
     264:	0511                	addi	a0,a0,4
     266:	feb56de3          	bltu	a0,a1,260 <handle_reset+0x44>
     26a:	42fd                	li	t0,31
     26c:	bc029073          	csrw	0xbc0,t0
     270:	429d                	li	t0,7
     272:	80429073          	csrw	0x804,t0
     276:	08800293          	li	t0,136
     27a:	3002a073          	csrs	mstatus,t0
     27e:	00000297          	auipc	t0,0x0
     282:	dba28293          	addi	t0,t0,-582 # 38 <_einit>
     286:	0032e293          	ori	t0,t0,3
     28a:	30529073          	csrw	mtvec,t0
     28e:	1e2010ef          	jal	ra,1470 <SystemInit>
     292:	00001297          	auipc	t0,0x1
     296:	10828293          	addi	t0,t0,264 # 139a <main>
     29a:	34129073          	csrw	mepc,t0
     29e:	30200073          	mret

000002a2 <ADC_DeInit>:
     2a2:	ecfff2ef          	jal	t0,170 <__riscv_save_0>
     2a6:	400127b7          	lui	a5,0x40012
     2aa:	40078793          	addi	a5,a5,1024 # 40012400 <_eusrstack+0x2000d400>
     2ae:	00f51b63          	bne	a0,a5,2c4 <ADC_DeInit+0x22>
     2b2:	4585                	li	a1,1
     2b4:	20000513          	li	a0,512
     2b8:	25bd                	jal	926 <RCC_APB2PeriphResetCmd>
     2ba:	4581                	li	a1,0
     2bc:	20000513          	li	a0,512
     2c0:	259d                	jal	926 <RCC_APB2PeriphResetCmd>
     2c2:	bdc9                	j	194 <__riscv_restore_0>
     2c4:	400137b7          	lui	a5,0x40013
     2c8:	80078793          	addi	a5,a5,-2048 # 40012800 <_eusrstack+0x2000d800>
     2cc:	fef51be3          	bne	a0,a5,2c2 <ADC_DeInit+0x20>
     2d0:	4585                	li	a1,1
     2d2:	40000513          	li	a0,1024
     2d6:	2d81                	jal	926 <RCC_APB2PeriphResetCmd>
     2d8:	4581                	li	a1,0
     2da:	40000513          	li	a0,1024
     2de:	b7cd                	j	2c0 <ADC_DeInit+0x1e>

000002e0 <ADC_Init>:
     2e0:	4158                	lw	a4,4(a0)
     2e2:	e0f107b7          	lui	a5,0xe0f10
     2e6:	eff78793          	addi	a5,a5,-257 # e0f0feff <_eusrstack+0xc0f0aeff>
     2ea:	4d94                	lw	a3,24(a1)
     2ec:	8f7d                	and	a4,a4,a5
     2ee:	419c                	lw	a5,0(a1)
     2f0:	8fd5                	or	a5,a5,a3
     2f2:	4dd4                	lw	a3,28(a1)
     2f4:	8fd5                	or	a5,a5,a3
     2f6:	41d4                	lw	a3,4(a1)
     2f8:	06a2                	slli	a3,a3,0x8
     2fa:	8fd5                	or	a5,a5,a3
     2fc:	8fd9                	or	a5,a5,a4
     2fe:	c15c                	sw	a5,4(a0)
     300:	4518                	lw	a4,8(a0)
     302:	fff1f7b7          	lui	a5,0xfff1f
     306:	7fd78793          	addi	a5,a5,2045 # fff1f7fd <_eusrstack+0xdff1a7fd>
     30a:	45d4                	lw	a3,12(a1)
     30c:	8f7d                	and	a4,a4,a5
     30e:	499c                	lw	a5,16(a1)
     310:	8fd5                	or	a5,a5,a3
     312:	4594                	lw	a3,8(a1)
     314:	0686                	slli	a3,a3,0x1
     316:	8fd5                	or	a5,a5,a3
     318:	8fd9                	or	a5,a5,a4
     31a:	c51c                	sw	a5,8(a0)
     31c:	5558                	lw	a4,44(a0)
     31e:	ff1007b7          	lui	a5,0xff100
     322:	17fd                	addi	a5,a5,-1 # ff0fffff <_eusrstack+0xdf0fafff>
     324:	8f7d                	and	a4,a4,a5
     326:	29dc                	lbu	a5,20(a1)
     328:	17fd                	addi	a5,a5,-1
     32a:	0ff7f793          	zext.b	a5,a5
     32e:	07d2                	slli	a5,a5,0x14
     330:	8fd9                	or	a5,a5,a4
     332:	d55c                	sw	a5,44(a0)
     334:	8082                	ret

00000336 <ADC_Cmd>:
     336:	451c                	lw	a5,8(a0)
     338:	c589                	beqz	a1,342 <ADC_Cmd+0xc>
     33a:	0017e793          	ori	a5,a5,1
     33e:	c51c                	sw	a5,8(a0)
     340:	8082                	ret
     342:	9bf9                	andi	a5,a5,-2
     344:	bfed                	j	33e <ADC_Cmd+0x8>

00000346 <ADC_DMACmd>:
     346:	451c                	lw	a5,8(a0)
     348:	c589                	beqz	a1,352 <ADC_DMACmd+0xc>
     34a:	1007e793          	ori	a5,a5,256
     34e:	c51c                	sw	a5,8(a0)
     350:	8082                	ret
     352:	eff7f793          	andi	a5,a5,-257
     356:	bfe5                	j	34e <ADC_DMACmd+0x8>

00000358 <ADC_ResetCalibration>:
     358:	451c                	lw	a5,8(a0)
     35a:	0087e793          	ori	a5,a5,8
     35e:	c51c                	sw	a5,8(a0)
     360:	8082                	ret

00000362 <ADC_GetResetCalibrationStatus>:
     362:	4508                	lw	a0,8(a0)
     364:	810d                	srli	a0,a0,0x3
     366:	8905                	andi	a0,a0,1
     368:	8082                	ret

0000036a <ADC_StartCalibration>:
     36a:	451c                	lw	a5,8(a0)
     36c:	0047e793          	ori	a5,a5,4
     370:	c51c                	sw	a5,8(a0)
     372:	8082                	ret

00000374 <ADC_GetCalibrationStatus>:
     374:	4508                	lw	a0,8(a0)
     376:	8109                	srli	a0,a0,0x2
     378:	8905                	andi	a0,a0,1
     37a:	8082                	ret

0000037c <ADC_SoftwareStartConvCmd>:
     37c:	451c                	lw	a5,8(a0)
     37e:	c591                	beqz	a1,38a <ADC_SoftwareStartConvCmd+0xe>
     380:	00500737          	lui	a4,0x500
     384:	8fd9                	or	a5,a5,a4
     386:	c51c                	sw	a5,8(a0)
     388:	8082                	ret
     38a:	ffb00737          	lui	a4,0xffb00
     38e:	177d                	addi	a4,a4,-1 # ffafffff <_eusrstack+0xdfafafff>
     390:	8ff9                	and	a5,a5,a4
     392:	bfd5                	j	386 <ADC_SoftwareStartConvCmd+0xa>

00000394 <ADC_RegularChannelConfig>:
     394:	47a5                	li	a5,9
     396:	04b7f763          	bgeu	a5,a1,3e4 <ADC_RegularChannelConfig+0x50>
     39a:	478d                	li	a5,3
     39c:	ff658713          	addi	a4,a1,-10
     3a0:	02f70733          	mul	a4,a4,a5
     3a4:	00c52803          	lw	a6,12(a0)
     3a8:	479d                	li	a5,7
     3aa:	00e797b3          	sll	a5,a5,a4
     3ae:	fff7c793          	not	a5,a5
     3b2:	0107f7b3          	and	a5,a5,a6
     3b6:	00e696b3          	sll	a3,a3,a4
     3ba:	8edd                	or	a3,a3,a5
     3bc:	c554                	sw	a3,12(a0)
     3be:	4799                	li	a5,6
     3c0:	04c7e363          	bltu	a5,a2,406 <ADC_RegularChannelConfig+0x72>
     3c4:	4795                	li	a5,5
     3c6:	167d                	addi	a2,a2,-1
     3c8:	02f60633          	mul	a2,a2,a5
     3cc:	5958                	lw	a4,52(a0)
     3ce:	47fd                	li	a5,31
     3d0:	00c797b3          	sll	a5,a5,a2
     3d4:	fff7c793          	not	a5,a5
     3d8:	8ff9                	and	a5,a5,a4
     3da:	00c59633          	sll	a2,a1,a2
     3de:	8e5d                	or	a2,a2,a5
     3e0:	d950                	sw	a2,52(a0)
     3e2:	8082                	ret
     3e4:	470d                	li	a4,3
     3e6:	02e58733          	mul	a4,a1,a4
     3ea:	01052803          	lw	a6,16(a0)
     3ee:	479d                	li	a5,7
     3f0:	00e797b3          	sll	a5,a5,a4
     3f4:	fff7c793          	not	a5,a5
     3f8:	0107f7b3          	and	a5,a5,a6
     3fc:	00e696b3          	sll	a3,a3,a4
     400:	8edd                	or	a3,a3,a5
     402:	c914                	sw	a3,16(a0)
     404:	bf6d                	j	3be <ADC_RegularChannelConfig+0x2a>
     406:	47b1                	li	a5,12
     408:	02c7e263          	bltu	a5,a2,42c <ADC_RegularChannelConfig+0x98>
     40c:	4795                	li	a5,5
     40e:	1665                	addi	a2,a2,-7
     410:	02f60633          	mul	a2,a2,a5
     414:	5918                	lw	a4,48(a0)
     416:	47fd                	li	a5,31
     418:	00c797b3          	sll	a5,a5,a2
     41c:	fff7c793          	not	a5,a5
     420:	8ff9                	and	a5,a5,a4
     422:	00c59633          	sll	a2,a1,a2
     426:	8e5d                	or	a2,a2,a5
     428:	d910                	sw	a2,48(a0)
     42a:	8082                	ret
     42c:	4795                	li	a5,5
     42e:	164d                	addi	a2,a2,-13
     430:	02f60633          	mul	a2,a2,a5
     434:	5558                	lw	a4,44(a0)
     436:	47fd                	li	a5,31
     438:	00c797b3          	sll	a5,a5,a2
     43c:	fff7c793          	not	a5,a5
     440:	8ff9                	and	a5,a5,a4
     442:	00c595b3          	sll	a1,a1,a2
     446:	8ddd                	or	a1,a1,a5
     448:	d54c                	sw	a1,44(a0)
     44a:	8082                	ret

0000044c <DMA_DeInit>:
     44c:	411c                	lw	a5,0(a0)
     44e:	6741                	lui	a4,0x10
     450:	1779                	addi	a4,a4,-2 # fffe <_data_lma+0x9bc6>
     452:	8ff9                	and	a5,a5,a4
     454:	c11c                	sw	a5,0(a0)
     456:	00052023          	sw	zero,0(a0)
     45a:	00052223          	sw	zero,4(a0)
     45e:	00052423          	sw	zero,8(a0)
     462:	400207b7          	lui	a5,0x40020
     466:	00052623          	sw	zero,12(a0)
     46a:	00878713          	addi	a4,a5,8 # 40020008 <_eusrstack+0x2001b008>
     46e:	00e51663          	bne	a0,a4,47a <DMA_DeInit+0x2e>
     472:	43d8                	lw	a4,4(a5)
     474:	00f76713          	ori	a4,a4,15
     478:	a801                	j	488 <DMA_DeInit+0x3c>
     47a:	01c78713          	addi	a4,a5,28
     47e:	00e51763          	bne	a0,a4,48c <DMA_DeInit+0x40>
     482:	43d8                	lw	a4,4(a5)
     484:	0f076713          	ori	a4,a4,240
     488:	c3d8                	sw	a4,4(a5)
     48a:	a8b1                	j	4e6 <DMA_DeInit+0x9a>
     48c:	03078713          	addi	a4,a5,48
     490:	00e51863          	bne	a0,a4,4a0 <DMA_DeInit+0x54>
     494:	43d8                	lw	a4,4(a5)
     496:	6685                	lui	a3,0x1
     498:	f0068693          	addi	a3,a3,-256 # f00 <TIM_SetIC1Prescaler+0xe>
     49c:	8f55                	or	a4,a4,a3
     49e:	b7ed                	j	488 <DMA_DeInit+0x3c>
     4a0:	04478713          	addi	a4,a5,68
     4a4:	00e51563          	bne	a0,a4,4ae <DMA_DeInit+0x62>
     4a8:	43d8                	lw	a4,4(a5)
     4aa:	66bd                	lui	a3,0xf
     4ac:	bfc5                	j	49c <DMA_DeInit+0x50>
     4ae:	05878713          	addi	a4,a5,88
     4b2:	00e51663          	bne	a0,a4,4be <DMA_DeInit+0x72>
     4b6:	43d8                	lw	a4,4(a5)
     4b8:	000f06b7          	lui	a3,0xf0
     4bc:	b7c5                	j	49c <DMA_DeInit+0x50>
     4be:	06c78713          	addi	a4,a5,108
     4c2:	00e51663          	bne	a0,a4,4ce <DMA_DeInit+0x82>
     4c6:	43d8                	lw	a4,4(a5)
     4c8:	00f006b7          	lui	a3,0xf00
     4cc:	bfc1                	j	49c <DMA_DeInit+0x50>
     4ce:	08078713          	addi	a4,a5,128
     4d2:	00e51663          	bne	a0,a4,4de <DMA_DeInit+0x92>
     4d6:	43d8                	lw	a4,4(a5)
     4d8:	0f0006b7          	lui	a3,0xf000
     4dc:	b7c1                	j	49c <DMA_DeInit+0x50>
     4de:	09478713          	addi	a4,a5,148
     4e2:	f8e508e3          	beq	a0,a4,472 <DMA_DeInit+0x26>
     4e6:	8082                	ret

000004e8 <DMA_Init>:
     4e8:	4118                	lw	a4,0(a0)
     4ea:	77e1                	lui	a5,0xffff8
     4ec:	07bd                	addi	a5,a5,15 # ffff800f <_eusrstack+0xdfff300f>
     4ee:	5194                	lw	a3,32(a1)
     4f0:	8f7d                	and	a4,a4,a5
     4f2:	459c                	lw	a5,8(a1)
     4f4:	8fd5                	or	a5,a5,a3
     4f6:	4994                	lw	a3,16(a1)
     4f8:	8fd5                	or	a5,a5,a3
     4fa:	49d4                	lw	a3,20(a1)
     4fc:	8fd5                	or	a5,a5,a3
     4fe:	4d94                	lw	a3,24(a1)
     500:	8fd5                	or	a5,a5,a3
     502:	4dd4                	lw	a3,28(a1)
     504:	8fd5                	or	a5,a5,a3
     506:	51d4                	lw	a3,36(a1)
     508:	8fd5                	or	a5,a5,a3
     50a:	5594                	lw	a3,40(a1)
     50c:	8fd5                	or	a5,a5,a3
     50e:	8fd9                	or	a5,a5,a4
     510:	c11c                	sw	a5,0(a0)
     512:	45dc                	lw	a5,12(a1)
     514:	c15c                	sw	a5,4(a0)
     516:	419c                	lw	a5,0(a1)
     518:	c51c                	sw	a5,8(a0)
     51a:	41dc                	lw	a5,4(a1)
     51c:	c55c                	sw	a5,12(a0)
     51e:	8082                	ret

00000520 <DMA_Cmd>:
     520:	411c                	lw	a5,0(a0)
     522:	c589                	beqz	a1,52c <DMA_Cmd+0xc>
     524:	0017e793          	ori	a5,a5,1
     528:	c11c                	sw	a5,0(a0)
     52a:	8082                	ret
     52c:	6741                	lui	a4,0x10
     52e:	1779                	addi	a4,a4,-2 # fffe <_data_lma+0x9bc6>
     530:	8ff9                	and	a5,a5,a4
     532:	bfdd                	j	528 <DMA_Cmd+0x8>

00000534 <EXTI_Init>:
     534:	4158                	lw	a4,4(a0)
     536:	410c                	lw	a1,0(a0)
     538:	4550                	lw	a2,12(a0)
     53a:	400107b7          	lui	a5,0x40010
     53e:	40078793          	addi	a5,a5,1024 # 40010400 <_eusrstack+0x2000b400>
     542:	973e                	add	a4,a4,a5
     544:	fff5c693          	not	a3,a1
     548:	c239                	beqz	a2,58e <EXTI_Init+0x5a>
     54a:	4390                	lw	a2,0(a5)
     54c:	8e75                	and	a2,a2,a3
     54e:	c390                	sw	a2,0(a5)
     550:	43d0                	lw	a2,4(a5)
     552:	8ef1                	and	a3,a3,a2
     554:	c3d4                	sw	a3,4(a5)
     556:	4314                	lw	a3,0(a4)
     558:	8ecd                	or	a3,a3,a1
     55a:	c314                	sw	a3,0(a4)
     55c:	4118                	lw	a4,0(a0)
     55e:	4790                	lw	a2,8(a5)
     560:	fff74693          	not	a3,a4
     564:	8e75                	and	a2,a2,a3
     566:	c790                	sw	a2,8(a5)
     568:	47d0                	lw	a2,12(a5)
     56a:	8ef1                	and	a3,a3,a2
     56c:	c7d4                	sw	a3,12(a5)
     56e:	4514                	lw	a3,8(a0)
     570:	4641                	li	a2,16
     572:	00c69963          	bne	a3,a2,584 <EXTI_Init+0x50>
     576:	4794                	lw	a3,8(a5)
     578:	8ed9                	or	a3,a3,a4
     57a:	c794                	sw	a3,8(a5)
     57c:	47d4                	lw	a3,12(a5)
     57e:	8f55                	or	a4,a4,a3
     580:	c7d8                	sw	a4,12(a5)
     582:	8082                	ret
     584:	97b6                	add	a5,a5,a3
     586:	4394                	lw	a3,0(a5)
     588:	8f55                	or	a4,a4,a3
     58a:	c398                	sw	a4,0(a5)
     58c:	8082                	ret
     58e:	431c                	lw	a5,0(a4)
     590:	8ff5                	and	a5,a5,a3
     592:	c31c                	sw	a5,0(a4)
     594:	8082                	ret

00000596 <EXTI_ClearITPendingBit>:
     596:	400107b7          	lui	a5,0x40010
     59a:	40078793          	addi	a5,a5,1024 # 40010400 <_eusrstack+0x2000b400>
     59e:	cbc8                	sw	a0,20(a5)
     5a0:	8082                	ret

000005a2 <GPIO_Init>:
     5a2:	459c                	lw	a5,8(a1)
     5a4:	0107f713          	andi	a4,a5,16
     5a8:	00f7f813          	andi	a6,a5,15
     5ac:	c701                	beqz	a4,5b4 <GPIO_Init+0x12>
     5ae:	41d8                	lw	a4,4(a1)
     5b0:	00e86833          	or	a6,a6,a4
     5b4:	40022737          	lui	a4,0x40022
     5b8:	5b14                	lw	a3,48(a4)
     5ba:	0f000737          	lui	a4,0xf000
     5be:	8f75                	and	a4,a4,a3
     5c0:	eb45                	bnez	a4,670 <GPIO_Init+0xce>
     5c2:	4685                	li	a3,1
     5c4:	86d18c23          	sb	a3,-1928(gp) # 200000e8 <MCU_Version>
     5c8:	40011737          	lui	a4,0x40011
     5cc:	00e51563          	bne	a0,a4,5d6 <GPIO_Init+0x34>
     5d0:	219a                	lhu	a4,0(a1)
     5d2:	8335                	srli	a4,a4,0xd
     5d4:	a19a                	sh	a4,0(a1)
     5d6:	218e                	lhu	a1,0(a1)
     5d8:	0ff5f713          	zext.b	a4,a1
     5dc:	c331                	beqz	a4,620 <GPIO_Init+0x7e>
     5de:	4118                	lw	a4,0(a0)
     5e0:	4681                	li	a3,0
     5e2:	4e05                	li	t3,1
     5e4:	02800e93          	li	t4,40
     5e8:	4f3d                	li	t5,15
     5ea:	04800f93          	li	t6,72
     5ee:	4321                	li	t1,8
     5f0:	00de1633          	sll	a2,t3,a3
     5f4:	00c5f8b3          	and	a7,a1,a2
     5f8:	03161063          	bne	a2,a7,618 <GPIO_Init+0x76>
     5fc:	09d79263          	bne	a5,t4,680 <GPIO_Init+0xde>
     600:	c950                	sw	a2,20(a0)
     602:	00269613          	slli	a2,a3,0x2
     606:	00cf18b3          	sll	a7,t5,a2
     60a:	fff8c893          	not	a7,a7
     60e:	00e8f733          	and	a4,a7,a4
     612:	00c81633          	sll	a2,a6,a2
     616:	8f51                	or	a4,a4,a2
     618:	0685                	addi	a3,a3,1 # f000001 <_data_lma+0xeff9bc9>
     61a:	fc669be3          	bne	a3,t1,5f0 <GPIO_Init+0x4e>
     61e:	c118                	sw	a4,0(a0)
     620:	0ff00713          	li	a4,255
     624:	04b77563          	bgeu	a4,a1,66e <GPIO_Init+0xcc>
     628:	4154                	lw	a3,4(a0)
     62a:	4601                	li	a2,0
     62c:	4e05                	li	t3,1
     62e:	02800e93          	li	t4,40
     632:	04800f13          	li	t5,72
     636:	4321                	li	t1,8
     638:	00860713          	addi	a4,a2,8
     63c:	00ee1733          	sll	a4,t3,a4
     640:	00e5f8b3          	and	a7,a1,a4
     644:	03171163          	bne	a4,a7,666 <GPIO_Init+0xc4>
     648:	05d79063          	bne	a5,t4,688 <GPIO_Init+0xe6>
     64c:	c958                	sw	a4,20(a0)
     64e:	00261893          	slli	a7,a2,0x2
     652:	473d                	li	a4,15
     654:	01171733          	sll	a4,a4,a7
     658:	fff74713          	not	a4,a4
     65c:	8ef9                	and	a3,a3,a4
     65e:	011818b3          	sll	a7,a6,a7
     662:	00d8e6b3          	or	a3,a7,a3
     666:	0605                	addi	a2,a2,1
     668:	fc6618e3          	bne	a2,t1,638 <GPIO_Init+0x96>
     66c:	c154                	sw	a3,4(a0)
     66e:	8082                	ret
     670:	40011737          	lui	a4,0x40011
     674:	f6e511e3          	bne	a0,a4,5d6 <GPIO_Init+0x34>
     678:	8781c703          	lbu	a4,-1928(gp) # 200000e8 <MCU_Version>
     67c:	df29                	beqz	a4,5d6 <GPIO_Init+0x34>
     67e:	bf89                	j	5d0 <GPIO_Init+0x2e>
     680:	f9f791e3          	bne	a5,t6,602 <GPIO_Init+0x60>
     684:	c910                	sw	a2,16(a0)
     686:	bfb5                	j	602 <GPIO_Init+0x60>
     688:	fde793e3          	bne	a5,t5,64e <GPIO_Init+0xac>
     68c:	c918                	sw	a4,16(a0)
     68e:	b7c1                	j	64e <GPIO_Init+0xac>

00000690 <GPIO_PinRemapConfig>:
     690:	003006b7          	lui	a3,0x300
     694:	01055613          	srli	a2,a0,0x10
     698:	01051713          	slli	a4,a0,0x10
     69c:	00d57833          	and	a6,a0,a3
     6a0:	8a3d                	andi	a2,a2,15
     6a2:	8341                	srli	a4,a4,0x10
     6a4:	400107b7          	lui	a5,0x40010
     6a8:	02055163          	bgez	a0,6ca <GPIO_PinRemapConfig+0x3a>
     6ac:	4fdc                	lw	a5,28(a5)
     6ae:	06d81763          	bne	a6,a3,71c <GPIO_PinRemapConfig+0x8c>
     6b2:	0641                	addi	a2,a2,16
     6b4:	468d                	li	a3,3
     6b6:	00c696b3          	sll	a3,a3,a2
     6ba:	fff6c693          	not	a3,a3
     6be:	8ff5                	and	a5,a5,a3
     6c0:	e9f1                	bnez	a1,794 <GPIO_PinRemapConfig+0x104>
     6c2:	40010737          	lui	a4,0x40010
     6c6:	cf5c                	sw	a5,28(a4)
     6c8:	8082                	ret
     6ca:	43d4                	lw	a3,4(a5)
     6cc:	400227b7          	lui	a5,0x40022
     6d0:	0307a883          	lw	a7,48(a5) # 40022030 <_eusrstack+0x2001d030>
     6d4:	0f0007b7          	lui	a5,0xf000
     6d8:	0117f7b3          	and	a5,a5,a7
     6dc:	eb89                	bnez	a5,6ee <GPIO_PinRemapConfig+0x5e>
     6de:	0016d793          	srli	a5,a3,0x1
     6e2:	78f9                	lui	a7,0xffffe
     6e4:	06ce                	slli	a3,a3,0x13
     6e6:	0117f7b3          	and	a5,a5,a7
     6ea:	82cd                	srli	a3,a3,0x13
     6ec:	8edd                	or	a3,a3,a5
     6ee:	003007b7          	lui	a5,0x300
     6f2:	06f81463          	bne	a6,a5,75a <GPIO_PinRemapConfig+0xca>
     6f6:	f1000637          	lui	a2,0xf1000
     6fa:	167d                	addi	a2,a2,-1 # f0ffffff <_eusrstack+0xd0ffafff>
     6fc:	40010837          	lui	a6,0x40010
     700:	00c6f7b3          	and	a5,a3,a2
     704:	00482683          	lw	a3,4(a6) # 40010004 <_eusrstack+0x2000b004>
     708:	8ef1                	and	a3,a3,a2
     70a:	00d82223          	sw	a3,4(a6)
     70e:	cdbd                	beqz	a1,78c <GPIO_PinRemapConfig+0xfc>
     710:	8155                	srli	a0,a0,0x15
     712:	0512                	slli	a0,a0,0x4
     714:	00a71533          	sll	a0,a4,a0
     718:	8fc9                	or	a5,a5,a0
     71a:	a88d                	j	78c <GPIO_PinRemapConfig+0xfc>
     71c:	001006b7          	lui	a3,0x100
     720:	8ee9                	and	a3,a3,a0
     722:	c285                	beqz	a3,742 <GPIO_PinRemapConfig+0xb2>
     724:	468d                	li	a3,3
     726:	00c696b3          	sll	a3,a3,a2
     72a:	fff6c693          	not	a3,a3
     72e:	8ff5                	and	a5,a5,a3
     730:	d9c9                	beqz	a1,6c2 <GPIO_PinRemapConfig+0x32>
     732:	8155                	srli	a0,a0,0x15
     734:	3ff57513          	andi	a0,a0,1023
     738:	0512                	slli	a0,a0,0x4
     73a:	00a71533          	sll	a0,a4,a0
     73e:	8fc9                	or	a5,a5,a0
     740:	b749                	j	6c2 <GPIO_PinRemapConfig+0x32>
     742:	8155                	srli	a0,a0,0x15
     744:	3ff57513          	andi	a0,a0,1023
     748:	0512                	slli	a0,a0,0x4
     74a:	00a71733          	sll	a4,a4,a0
     74e:	fff74693          	not	a3,a4
     752:	8ff5                	and	a5,a5,a3
     754:	d5bd                	beqz	a1,6c2 <GPIO_PinRemapConfig+0x32>
     756:	8fd9                	or	a5,a5,a4
     758:	b7ad                	j	6c2 <GPIO_PinRemapConfig+0x32>
     75a:	001007b7          	lui	a5,0x100
     75e:	8fe9                	and	a5,a5,a0
     760:	cb99                	beqz	a5,776 <GPIO_PinRemapConfig+0xe6>
     762:	478d                	li	a5,3
     764:	00c797b3          	sll	a5,a5,a2
     768:	fff7c793          	not	a5,a5
     76c:	8ff5                	and	a5,a5,a3
     76e:	0f0006b7          	lui	a3,0xf000
     772:	8fd5                	or	a5,a5,a3
     774:	bf69                	j	70e <GPIO_PinRemapConfig+0x7e>
     776:	8155                	srli	a0,a0,0x15
     778:	0512                	slli	a0,a0,0x4
     77a:	00a71533          	sll	a0,a4,a0
     77e:	fff54793          	not	a5,a0
     782:	8ff5                	and	a5,a5,a3
     784:	0f000737          	lui	a4,0xf000
     788:	8fd9                	or	a5,a5,a4
     78a:	f5d9                	bnez	a1,718 <GPIO_PinRemapConfig+0x88>
     78c:	40010737          	lui	a4,0x40010
     790:	c35c                	sw	a5,4(a4)
     792:	8082                	ret
     794:	8155                	srli	a0,a0,0x15
     796:	3ff57513          	andi	a0,a0,1023
     79a:	0512                	slli	a0,a0,0x4
     79c:	00a71733          	sll	a4,a4,a0
     7a0:	bf5d                	j	756 <GPIO_PinRemapConfig+0xc6>

000007a2 <GPIO_EXTILineConfig>:
     7a2:	0035f693          	andi	a3,a1,3
     7a6:	40010737          	lui	a4,0x40010
     7aa:	0fc5f593          	andi	a1,a1,252
     7ae:	972e                	add	a4,a4,a1
     7b0:	4710                	lw	a2,8(a4)
     7b2:	068a                	slli	a3,a3,0x2
     7b4:	47bd                	li	a5,15
     7b6:	00d797b3          	sll	a5,a5,a3
     7ba:	fff7c793          	not	a5,a5
     7be:	8ff1                	and	a5,a5,a2
     7c0:	c71c                	sw	a5,8(a4)
     7c2:	471c                	lw	a5,8(a4)
     7c4:	00d51533          	sll	a0,a0,a3
     7c8:	8d5d                	or	a0,a0,a5
     7ca:	c708                	sw	a0,8(a4)
     7cc:	8082                	ret

000007ce <IWDG_WriteAccessCmd>:
     7ce:	400037b7          	lui	a5,0x40003
     7d2:	c388                	sw	a0,0(a5)
     7d4:	8082                	ret

000007d6 <IWDG_SetPrescaler>:
     7d6:	400037b7          	lui	a5,0x40003
     7da:	c3c8                	sw	a0,4(a5)
     7dc:	8082                	ret

000007de <IWDG_SetReload>:
     7de:	400037b7          	lui	a5,0x40003
     7e2:	c788                	sw	a0,8(a5)
     7e4:	8082                	ret

000007e6 <IWDG_ReloadCounter>:
     7e6:	67ad                	lui	a5,0xb
     7e8:	40003737          	lui	a4,0x40003
     7ec:	aaa78793          	addi	a5,a5,-1366 # aaaa <_data_lma+0x4672>
     7f0:	c31c                	sw	a5,0(a4)
     7f2:	8082                	ret

000007f4 <IWDG_Enable>:
     7f4:	67b5                	lui	a5,0xd
     7f6:	40003737          	lui	a4,0x40003
     7fa:	ccc78793          	addi	a5,a5,-820 # cccc <_data_lma+0x6894>
     7fe:	c31c                	sw	a5,0(a4)
     800:	8082                	ret

00000802 <RCC_ADCCLKConfig>:
     802:	400216b7          	lui	a3,0x40021
     806:	42dc                	lw	a5,4(a3)
     808:	7751                	lui	a4,0xffff4
     80a:	177d                	addi	a4,a4,-1 # ffff3fff <_eusrstack+0xdffeefff>
     80c:	8ff9                	and	a5,a5,a4
     80e:	8fc9                	or	a5,a5,a0
     810:	c2dc                	sw	a5,4(a3)
     812:	8082                	ret

00000814 <RCC_GetClocksFreq>:
     814:	40021737          	lui	a4,0x40021
     818:	435c                	lw	a5,4(a4)
     81a:	46a1                	li	a3,8
     81c:	8bb1                	andi	a5,a5,12
     81e:	0ad79263          	bne	a5,a3,8c2 <RCC_GetClocksFreq+0xae>
     822:	435c                	lw	a5,4(a4)
     824:	4358                	lw	a4,4(a4)
     826:	66c1                	lui	a3,0x10
     828:	83c9                	srli	a5,a5,0x12
     82a:	8bbd                	andi	a5,a5,15
     82c:	8f75                	and	a4,a4,a3
     82e:	0789                	addi	a5,a5,2
     830:	46c5                	li	a3,17
     832:	00d79363          	bne	a5,a3,838 <RCC_GetClocksFreq+0x24>
     836:	47c9                	li	a5,18
     838:	ef01                	bnez	a4,850 <RCC_GetClocksFreq+0x3c>
     83a:	40024737          	lui	a4,0x40024
     83e:	80072703          	lw	a4,-2048(a4) # 40023800 <_eusrstack+0x2001e800>
     842:	8b41                	andi	a4,a4,16
     844:	cf09                	beqz	a4,85e <RCC_GetClocksFreq+0x4a>
     846:	007a1737          	lui	a4,0x7a1
     84a:	20070713          	addi	a4,a4,512 # 7a1200 <_data_lma+0x79adc8>
     84e:	a821                	j	866 <RCC_GetClocksFreq+0x52>
     850:	40021737          	lui	a4,0x40021
     854:	4358                	lw	a4,4(a4)
     856:	000206b7          	lui	a3,0x20
     85a:	8f75                	and	a4,a4,a3
     85c:	d76d                	beqz	a4,846 <RCC_GetClocksFreq+0x32>
     85e:	003d1737          	lui	a4,0x3d1
     862:	90070713          	addi	a4,a4,-1792 # 3d0900 <_data_lma+0x3ca4c8>
     866:	02e787b3          	mul	a5,a5,a4
     86a:	c11c                	sw	a5,0(a0)
     86c:	40021637          	lui	a2,0x40021
     870:	4254                	lw	a3,4(a2)
     872:	20000737          	lui	a4,0x20000
     876:	00070713          	mv	a4,a4
     87a:	8291                	srli	a3,a3,0x4
     87c:	8abd                	andi	a3,a3,15
     87e:	96ba                	add	a3,a3,a4
     880:	2294                	lbu	a3,0(a3)
     882:	00d7d7b3          	srl	a5,a5,a3
     886:	c15c                	sw	a5,4(a0)
     888:	4254                	lw	a3,4(a2)
     88a:	82a1                	srli	a3,a3,0x8
     88c:	8a9d                	andi	a3,a3,7
     88e:	96ba                	add	a3,a3,a4
     890:	2294                	lbu	a3,0(a3)
     892:	00d7d6b3          	srl	a3,a5,a3
     896:	c514                	sw	a3,8(a0)
     898:	4254                	lw	a3,4(a2)
     89a:	82ad                	srli	a3,a3,0xb
     89c:	8a9d                	andi	a3,a3,7
     89e:	9736                	add	a4,a4,a3
     8a0:	2318                	lbu	a4,0(a4)
     8a2:	200006b7          	lui	a3,0x20000
     8a6:	07068693          	addi	a3,a3,112 # 20000070 <ADCPrescTable>
     8aa:	00e7d7b3          	srl	a5,a5,a4
     8ae:	c55c                	sw	a5,12(a0)
     8b0:	4258                	lw	a4,4(a2)
     8b2:	8339                	srli	a4,a4,0xe
     8b4:	8b0d                	andi	a4,a4,3
     8b6:	9736                	add	a4,a4,a3
     8b8:	2318                	lbu	a4,0(a4)
     8ba:	02e7d7b3          	divu	a5,a5,a4
     8be:	c91c                	sw	a5,16(a0)
     8c0:	8082                	ret
     8c2:	007a17b7          	lui	a5,0x7a1
     8c6:	20078793          	addi	a5,a5,512 # 7a1200 <_data_lma+0x79adc8>
     8ca:	b745                	j	86a <RCC_GetClocksFreq+0x56>

000008cc <RCC_AHBPeriphClockCmd>:
     8cc:	c599                	beqz	a1,8da <RCC_AHBPeriphClockCmd+0xe>
     8ce:	40021737          	lui	a4,0x40021
     8d2:	4b5c                	lw	a5,20(a4)
     8d4:	8fc9                	or	a5,a5,a0
     8d6:	cb5c                	sw	a5,20(a4)
     8d8:	8082                	ret
     8da:	400217b7          	lui	a5,0x40021
     8de:	4bd8                	lw	a4,20(a5)
     8e0:	fff54513          	not	a0,a0
     8e4:	8d79                	and	a0,a0,a4
     8e6:	cbc8                	sw	a0,20(a5)
     8e8:	8082                	ret

000008ea <RCC_APB2PeriphClockCmd>:
     8ea:	c599                	beqz	a1,8f8 <RCC_APB2PeriphClockCmd+0xe>
     8ec:	40021737          	lui	a4,0x40021
     8f0:	4f1c                	lw	a5,24(a4)
     8f2:	8fc9                	or	a5,a5,a0
     8f4:	cf1c                	sw	a5,24(a4)
     8f6:	8082                	ret
     8f8:	400217b7          	lui	a5,0x40021
     8fc:	4f98                	lw	a4,24(a5)
     8fe:	fff54513          	not	a0,a0
     902:	8d79                	and	a0,a0,a4
     904:	cf88                	sw	a0,24(a5)
     906:	8082                	ret

00000908 <RCC_APB1PeriphClockCmd>:
     908:	c599                	beqz	a1,916 <RCC_APB1PeriphClockCmd+0xe>
     90a:	40021737          	lui	a4,0x40021
     90e:	4f5c                	lw	a5,28(a4)
     910:	8fc9                	or	a5,a5,a0
     912:	cf5c                	sw	a5,28(a4)
     914:	8082                	ret
     916:	400217b7          	lui	a5,0x40021
     91a:	4fd8                	lw	a4,28(a5)
     91c:	fff54513          	not	a0,a0
     920:	8d79                	and	a0,a0,a4
     922:	cfc8                	sw	a0,28(a5)
     924:	8082                	ret

00000926 <RCC_APB2PeriphResetCmd>:
     926:	c599                	beqz	a1,934 <RCC_APB2PeriphResetCmd+0xe>
     928:	40021737          	lui	a4,0x40021
     92c:	475c                	lw	a5,12(a4)
     92e:	8fc9                	or	a5,a5,a0
     930:	c75c                	sw	a5,12(a4)
     932:	8082                	ret
     934:	400217b7          	lui	a5,0x40021
     938:	47d8                	lw	a4,12(a5)
     93a:	fff54513          	not	a0,a0
     93e:	8d79                	and	a0,a0,a4
     940:	c7c8                	sw	a0,12(a5)
     942:	8082                	ret

00000944 <RCC_APB1PeriphResetCmd>:
     944:	c599                	beqz	a1,952 <RCC_APB1PeriphResetCmd+0xe>
     946:	40021737          	lui	a4,0x40021
     94a:	4b1c                	lw	a5,16(a4)
     94c:	8fc9                	or	a5,a5,a0
     94e:	cb1c                	sw	a5,16(a4)
     950:	8082                	ret
     952:	400217b7          	lui	a5,0x40021
     956:	4b98                	lw	a4,16(a5)
     958:	fff54513          	not	a0,a0
     95c:	8d79                	and	a0,a0,a4
     95e:	cb88                	sw	a0,16(a5)
     960:	8082                	ret

00000962 <TI1_Config>:
     962:	311e                	lhu	a5,32(a0)
     964:	0692                	slli	a3,a3,0x4
     966:	8e55                	or	a2,a2,a3
     968:	07c2                	slli	a5,a5,0x10
     96a:	83c1                	srli	a5,a5,0x10
     96c:	9bf9                	andi	a5,a5,-2
     96e:	07c2                	slli	a5,a5,0x10
     970:	83c1                	srli	a5,a5,0x10
     972:	b11e                	sh	a5,32(a0)
     974:	2d1a                	lhu	a4,24(a0)
     976:	311e                	lhu	a5,32(a0)
     978:	400136b7          	lui	a3,0x40013
     97c:	0742                	slli	a4,a4,0x10
     97e:	8341                	srli	a4,a4,0x10
     980:	f0c77713          	andi	a4,a4,-244
     984:	8f51                	or	a4,a4,a2
     986:	07c2                	slli	a5,a5,0x10
     988:	0742                	slli	a4,a4,0x10
     98a:	c0068693          	addi	a3,a3,-1024 # 40012c00 <_eusrstack+0x2000dc00>
     98e:	83c1                	srli	a5,a5,0x10
     990:	8341                	srli	a4,a4,0x10
     992:	02d50463          	beq	a0,a3,9ba <TI1_Config+0x58>
     996:	400006b7          	lui	a3,0x40000
     99a:	02d50063          	beq	a0,a3,9ba <TI1_Config+0x58>
     99e:	40068693          	addi	a3,a3,1024 # 40000400 <_eusrstack+0x1fffb400>
     9a2:	00d50c63          	beq	a0,a3,9ba <TI1_Config+0x58>
     9a6:	400016b7          	lui	a3,0x40001
     9aa:	80068613          	addi	a2,a3,-2048 # 40000800 <_eusrstack+0x1fffb800>
     9ae:	00c50663          	beq	a0,a2,9ba <TI1_Config+0x58>
     9b2:	c0068693          	addi	a3,a3,-1024
     9b6:	00d51963          	bne	a0,a3,9c8 <TI1_Config+0x66>
     9ba:	9bf5                	andi	a5,a5,-3
     9bc:	8ddd                	or	a1,a1,a5
     9be:	0015e593          	ori	a1,a1,1
     9c2:	ad1a                	sh	a4,24(a0)
     9c4:	b10e                	sh	a1,32(a0)
     9c6:	8082                	ret
     9c8:	9bd5                	andi	a5,a5,-11
     9ca:	bfcd                	j	9bc <TI1_Config+0x5a>

000009cc <TI2_Config>:
     9cc:	311e                	lhu	a5,32(a0)
     9ce:	6885                	lui	a7,0x1
     9d0:	cff88893          	addi	a7,a7,-769 # cff <TIM_OC4Init+0x39>
     9d4:	07c2                	slli	a5,a5,0x10
     9d6:	83c1                	srli	a5,a5,0x10
     9d8:	9bbd                	andi	a5,a5,-17
     9da:	07c2                	slli	a5,a5,0x10
     9dc:	83c1                	srli	a5,a5,0x10
     9de:	b11e                	sh	a5,32(a0)
     9e0:	2d1a                	lhu	a4,24(a0)
     9e2:	06b2                	slli	a3,a3,0xc
     9e4:	311e                	lhu	a5,32(a0)
     9e6:	0622                	slli	a2,a2,0x8
     9e8:	8ed1                	or	a3,a3,a2
     9ea:	01177733          	and	a4,a4,a7
     9ee:	8f55                	or	a4,a4,a3
     9f0:	00459813          	slli	a6,a1,0x4
     9f4:	400136b7          	lui	a3,0x40013
     9f8:	07c2                	slli	a5,a5,0x10
     9fa:	0842                	slli	a6,a6,0x10
     9fc:	0742                	slli	a4,a4,0x10
     9fe:	c0068693          	addi	a3,a3,-1024 # 40012c00 <_eusrstack+0x2000dc00>
     a02:	83c1                	srli	a5,a5,0x10
     a04:	01085813          	srli	a6,a6,0x10
     a08:	8341                	srli	a4,a4,0x10
     a0a:	02d50463          	beq	a0,a3,a32 <TI2_Config+0x66>
     a0e:	400006b7          	lui	a3,0x40000
     a12:	02d50063          	beq	a0,a3,a32 <TI2_Config+0x66>
     a16:	40068693          	addi	a3,a3,1024 # 40000400 <_eusrstack+0x1fffb400>
     a1a:	00d50c63          	beq	a0,a3,a32 <TI2_Config+0x66>
     a1e:	400016b7          	lui	a3,0x40001
     a22:	80068613          	addi	a2,a3,-2048 # 40000800 <_eusrstack+0x1fffb800>
     a26:	00c50663          	beq	a0,a2,a32 <TI2_Config+0x66>
     a2a:	c0068693          	addi	a3,a3,-1024
     a2e:	00d51b63          	bne	a0,a3,a44 <TI2_Config+0x78>
     a32:	fdf7f793          	andi	a5,a5,-33
     a36:	00f86833          	or	a6,a6,a5
     a3a:	01086593          	ori	a1,a6,16
     a3e:	ad1a                	sh	a4,24(a0)
     a40:	b10e                	sh	a1,32(a0)
     a42:	8082                	ret
     a44:	f5f7f793          	andi	a5,a5,-161
     a48:	8ddd                	or	a1,a1,a5
     a4a:	0105e593          	ori	a1,a1,16
     a4e:	bfc5                	j	a3e <TI2_Config+0x72>

00000a50 <TIM_DeInit>:
     a50:	f20ff2ef          	jal	t0,170 <__riscv_save_0>
     a54:	400137b7          	lui	a5,0x40013
     a58:	c0078793          	addi	a5,a5,-1024 # 40012c00 <_eusrstack+0x2000dc00>
     a5c:	00f51d63          	bne	a0,a5,a76 <TIM_DeInit+0x26>
     a60:	6405                	lui	s0,0x1
     a62:	4585                	li	a1,1
     a64:	80040513          	addi	a0,s0,-2048 # 800 <__stack_size>
     a68:	3d7d                	jal	926 <RCC_APB2PeriphResetCmd>
     a6a:	4581                	li	a1,0
     a6c:	80040513          	addi	a0,s0,-2048
     a70:	3d5d                	jal	926 <RCC_APB2PeriphResetCmd>
     a72:	f22ff06f          	j	194 <__riscv_restore_0>
     a76:	400007b7          	lui	a5,0x40000
     a7a:	00f51963          	bne	a0,a5,a8c <TIM_DeInit+0x3c>
     a7e:	4585                	li	a1,1
     a80:	4505                	li	a0,1
     a82:	35c9                	jal	944 <RCC_APB1PeriphResetCmd>
     a84:	4581                	li	a1,0
     a86:	4505                	li	a0,1
     a88:	3d75                	jal	944 <RCC_APB1PeriphResetCmd>
     a8a:	b7e5                	j	a72 <TIM_DeInit+0x22>
     a8c:	40078793          	addi	a5,a5,1024 # 40000400 <_eusrstack+0x1fffb400>
     a90:	00f51863          	bne	a0,a5,aa0 <TIM_DeInit+0x50>
     a94:	4585                	li	a1,1
     a96:	4509                	li	a0,2
     a98:	3575                	jal	944 <RCC_APB1PeriphResetCmd>
     a9a:	4581                	li	a1,0
     a9c:	4509                	li	a0,2
     a9e:	b7ed                	j	a88 <TIM_DeInit+0x38>
     aa0:	400017b7          	lui	a5,0x40001
     aa4:	80078713          	addi	a4,a5,-2048 # 40000800 <_eusrstack+0x1fffb800>
     aa8:	00e51863          	bne	a0,a4,ab8 <TIM_DeInit+0x68>
     aac:	4585                	li	a1,1
     aae:	4511                	li	a0,4
     ab0:	3d51                	jal	944 <RCC_APB1PeriphResetCmd>
     ab2:	4581                	li	a1,0
     ab4:	4511                	li	a0,4
     ab6:	bfc9                	j	a88 <TIM_DeInit+0x38>
     ab8:	c0078793          	addi	a5,a5,-1024
     abc:	faf51be3          	bne	a0,a5,a72 <TIM_DeInit+0x22>
     ac0:	4585                	li	a1,1
     ac2:	4521                	li	a0,8
     ac4:	3541                	jal	944 <RCC_APB1PeriphResetCmd>
     ac6:	4581                	li	a1,0
     ac8:	4521                	li	a0,8
     aca:	bf7d                	j	a88 <TIM_DeInit+0x38>

00000acc <TIM_TimeBaseInit>:
     acc:	211e                	lhu	a5,0(a0)
     ace:	40013737          	lui	a4,0x40013
     ad2:	c0070713          	addi	a4,a4,-1024 # 40012c00 <_eusrstack+0x2000dc00>
     ad6:	07c2                	slli	a5,a5,0x10
     ad8:	83c1                	srli	a5,a5,0x10
     ada:	02e50463          	beq	a0,a4,b02 <TIM_TimeBaseInit+0x36>
     ade:	40000737          	lui	a4,0x40000
     ae2:	02e50063          	beq	a0,a4,b02 <TIM_TimeBaseInit+0x36>
     ae6:	40070713          	addi	a4,a4,1024 # 40000400 <_eusrstack+0x1fffb400>
     aea:	00e50c63          	beq	a0,a4,b02 <TIM_TimeBaseInit+0x36>
     aee:	40001737          	lui	a4,0x40001
     af2:	80070693          	addi	a3,a4,-2048 # 40000800 <_eusrstack+0x1fffb800>
     af6:	00d50663          	beq	a0,a3,b02 <TIM_TimeBaseInit+0x36>
     afa:	c0070713          	addi	a4,a4,-1024
     afe:	00e51663          	bne	a0,a4,b0a <TIM_TimeBaseInit+0x3e>
     b02:	21ba                	lhu	a4,2(a1)
     b04:	f8f7f793          	andi	a5,a5,-113
     b08:	8fd9                	or	a5,a5,a4
     b0a:	21fa                	lhu	a4,6(a1)
     b0c:	cff7f793          	andi	a5,a5,-769
     b10:	07c2                	slli	a5,a5,0x10
     b12:	83c1                	srli	a5,a5,0x10
     b14:	8fd9                	or	a5,a5,a4
     b16:	a11e                	sh	a5,0(a0)
     b18:	21de                	lhu	a5,4(a1)
     b1a:	b55e                	sh	a5,44(a0)
     b1c:	219e                	lhu	a5,0(a1)
     b1e:	b51e                	sh	a5,40(a0)
     b20:	400137b7          	lui	a5,0x40013
     b24:	c0078793          	addi	a5,a5,-1024 # 40012c00 <_eusrstack+0x2000dc00>
     b28:	00f51463          	bne	a0,a5,b30 <TIM_TimeBaseInit+0x64>
     b2c:	259c                	lbu	a5,8(a1)
     b2e:	b91e                	sh	a5,48(a0)
     b30:	4785                	li	a5,1
     b32:	a95e                	sh	a5,20(a0)
     b34:	8082                	ret

00000b36 <TIM_OC1Init>:
     b36:	311e                	lhu	a5,32(a0)
     b38:	2192                	lhu	a2,0(a1)
     b3a:	0025d803          	lhu	a6,2(a1)
     b3e:	07c2                	slli	a5,a5,0x10
     b40:	83c1                	srli	a5,a5,0x10
     b42:	9bf9                	andi	a5,a5,-2
     b44:	07c2                	slli	a5,a5,0x10
     b46:	83c1                	srli	a5,a5,0x10
     b48:	b11e                	sh	a5,32(a0)
     b4a:	311e                	lhu	a5,32(a0)
     b4c:	2156                	lhu	a3,4(a0)
     b4e:	2d1a                	lhu	a4,24(a0)
     b50:	07c2                	slli	a5,a5,0x10
     b52:	83c1                	srli	a5,a5,0x10
     b54:	0742                	slli	a4,a4,0x10
     b56:	8341                	srli	a4,a4,0x10
     b58:	f8c77713          	andi	a4,a4,-116
     b5c:	8f51                	or	a4,a4,a2
     b5e:	2592                	lhu	a2,8(a1)
     b60:	9bf5                	andi	a5,a5,-3
     b62:	06c2                	slli	a3,a3,0x10
     b64:	01066633          	or	a2,a2,a6
     b68:	8fd1                	or	a5,a5,a2
     b6a:	40013637          	lui	a2,0x40013
     b6e:	c0060613          	addi	a2,a2,-1024 # 40012c00 <_eusrstack+0x2000dc00>
     b72:	82c1                	srli	a3,a3,0x10
     b74:	02c51063          	bne	a0,a2,b94 <TIM_OC1Init+0x5e>
     b78:	25b2                	lhu	a2,10(a1)
     b7a:	9bdd                	andi	a5,a5,-9
     b7c:	00e5d803          	lhu	a6,14(a1)
     b80:	8fd1                	or	a5,a5,a2
     b82:	21d2                	lhu	a2,4(a1)
     b84:	9bed                	andi	a5,a5,-5
     b86:	cff6f693          	andi	a3,a3,-769
     b8a:	8fd1                	or	a5,a5,a2
     b8c:	25d2                	lhu	a2,12(a1)
     b8e:	01066633          	or	a2,a2,a6
     b92:	8ed1                	or	a3,a3,a2
     b94:	a156                	sh	a3,4(a0)
     b96:	ad1a                	sh	a4,24(a0)
     b98:	21fa                	lhu	a4,6(a1)
     b9a:	b95a                	sh	a4,52(a0)
     b9c:	b11e                	sh	a5,32(a0)
     b9e:	8082                	ret

00000ba0 <TIM_OC2Init>:
     ba0:	311e                	lhu	a5,32(a0)
     ba2:	76e5                	lui	a3,0xffff9
     ba4:	cff68693          	addi	a3,a3,-769 # ffff8cff <_eusrstack+0xdfff3cff>
     ba8:	07c2                	slli	a5,a5,0x10
     baa:	83c1                	srli	a5,a5,0x10
     bac:	9bbd                	andi	a5,a5,-17
     bae:	07c2                	slli	a5,a5,0x10
     bb0:	83c1                	srli	a5,a5,0x10
     bb2:	b11e                	sh	a5,32(a0)
     bb4:	311e                	lhu	a5,32(a0)
     bb6:	2152                	lhu	a2,4(a0)
     bb8:	2d1a                	lhu	a4,24(a0)
     bba:	0085d803          	lhu	a6,8(a1)
     bbe:	07c2                	slli	a5,a5,0x10
     bc0:	8f75                	and	a4,a4,a3
     bc2:	2196                	lhu	a3,0(a1)
     bc4:	83c1                	srli	a5,a5,0x10
     bc6:	fdf7f793          	andi	a5,a5,-33
     bca:	06a2                	slli	a3,a3,0x8
     bcc:	8f55                	or	a4,a4,a3
     bce:	21b6                	lhu	a3,2(a1)
     bd0:	0642                	slli	a2,a2,0x10
     bd2:	0742                	slli	a4,a4,0x10
     bd4:	0106e6b3          	or	a3,a3,a6
     bd8:	0692                	slli	a3,a3,0x4
     bda:	8fd5                	or	a5,a5,a3
     bdc:	400136b7          	lui	a3,0x40013
     be0:	07c2                	slli	a5,a5,0x10
     be2:	c0068693          	addi	a3,a3,-1024 # 40012c00 <_eusrstack+0x2000dc00>
     be6:	8241                	srli	a2,a2,0x10
     be8:	8341                	srli	a4,a4,0x10
     bea:	83c1                	srli	a5,a5,0x10
     bec:	02d51e63          	bne	a0,a3,c28 <TIM_OC2Init+0x88>
     bf0:	25b6                	lhu	a3,10(a1)
     bf2:	f7f7f793          	andi	a5,a5,-129
     bf6:	00c5d803          	lhu	a6,12(a1)
     bfa:	0692                	slli	a3,a3,0x4
     bfc:	8fd5                	or	a5,a5,a3
     bfe:	21d6                	lhu	a3,4(a1)
     c00:	07c2                	slli	a5,a5,0x10
     c02:	83c1                	srli	a5,a5,0x10
     c04:	0692                	slli	a3,a3,0x4
     c06:	fbf7f793          	andi	a5,a5,-65
     c0a:	8fd5                	or	a5,a5,a3
     c0c:	76fd                	lui	a3,0xfffff
     c0e:	3ff68693          	addi	a3,a3,1023 # fffff3ff <_eusrstack+0xdfffa3ff>
     c12:	8ef1                	and	a3,a3,a2
     c14:	25f2                	lhu	a2,14(a1)
     c16:	07c2                	slli	a5,a5,0x10
     c18:	83c1                	srli	a5,a5,0x10
     c1a:	01066633          	or	a2,a2,a6
     c1e:	060a                	slli	a2,a2,0x2
     c20:	8ed1                	or	a3,a3,a2
     c22:	01069613          	slli	a2,a3,0x10
     c26:	8241                	srli	a2,a2,0x10
     c28:	a152                	sh	a2,4(a0)
     c2a:	ad1a                	sh	a4,24(a0)
     c2c:	21fa                	lhu	a4,6(a1)
     c2e:	bd1a                	sh	a4,56(a0)
     c30:	b11e                	sh	a5,32(a0)
     c32:	8082                	ret

00000c34 <TIM_OC3Init>:
     c34:	311e                	lhu	a5,32(a0)
     c36:	2196                	lhu	a3,0(a1)
     c38:	0085d803          	lhu	a6,8(a1)
     c3c:	07c2                	slli	a5,a5,0x10
     c3e:	83c1                	srli	a5,a5,0x10
     c40:	eff7f793          	andi	a5,a5,-257
     c44:	07c2                	slli	a5,a5,0x10
     c46:	83c1                	srli	a5,a5,0x10
     c48:	b11e                	sh	a5,32(a0)
     c4a:	311e                	lhu	a5,32(a0)
     c4c:	2152                	lhu	a2,4(a0)
     c4e:	2d5a                	lhu	a4,28(a0)
     c50:	07c2                	slli	a5,a5,0x10
     c52:	83c1                	srli	a5,a5,0x10
     c54:	0742                	slli	a4,a4,0x10
     c56:	8341                	srli	a4,a4,0x10
     c58:	f8c77713          	andi	a4,a4,-116
     c5c:	8f55                	or	a4,a4,a3
     c5e:	21b6                	lhu	a3,2(a1)
     c60:	dff7f793          	andi	a5,a5,-513
     c64:	0642                	slli	a2,a2,0x10
     c66:	0106e6b3          	or	a3,a3,a6
     c6a:	06a2                	slli	a3,a3,0x8
     c6c:	8fd5                	or	a5,a5,a3
     c6e:	400136b7          	lui	a3,0x40013
     c72:	07c2                	slli	a5,a5,0x10
     c74:	c0068693          	addi	a3,a3,-1024 # 40012c00 <_eusrstack+0x2000dc00>
     c78:	8241                	srli	a2,a2,0x10
     c7a:	83c1                	srli	a5,a5,0x10
     c7c:	02d51f63          	bne	a0,a3,cba <TIM_OC3Init+0x86>
     c80:	76fd                	lui	a3,0xfffff
     c82:	7ff68693          	addi	a3,a3,2047 # fffff7ff <_eusrstack+0xdfffa7ff>
     c86:	8ff5                	and	a5,a5,a3
     c88:	25b6                	lhu	a3,10(a1)
     c8a:	00c5d803          	lhu	a6,12(a1)
     c8e:	06a2                	slli	a3,a3,0x8
     c90:	8fd5                	or	a5,a5,a3
     c92:	21d6                	lhu	a3,4(a1)
     c94:	07c2                	slli	a5,a5,0x10
     c96:	83c1                	srli	a5,a5,0x10
     c98:	06a2                	slli	a3,a3,0x8
     c9a:	bff7f793          	andi	a5,a5,-1025
     c9e:	8fd5                	or	a5,a5,a3
     ca0:	76f5                	lui	a3,0xffffd
     ca2:	16fd                	addi	a3,a3,-1 # ffffcfff <_eusrstack+0xdfff7fff>
     ca4:	8ef1                	and	a3,a3,a2
     ca6:	25f2                	lhu	a2,14(a1)
     ca8:	07c2                	slli	a5,a5,0x10
     caa:	83c1                	srli	a5,a5,0x10
     cac:	01066633          	or	a2,a2,a6
     cb0:	0612                	slli	a2,a2,0x4
     cb2:	8ed1                	or	a3,a3,a2
     cb4:	01069613          	slli	a2,a3,0x10
     cb8:	8241                	srli	a2,a2,0x10
     cba:	a152                	sh	a2,4(a0)
     cbc:	ad5a                	sh	a4,28(a0)
     cbe:	21fa                	lhu	a4,6(a1)
     cc0:	bd5a                	sh	a4,60(a0)
     cc2:	b11e                	sh	a5,32(a0)
     cc4:	8082                	ret

00000cc6 <TIM_OC4Init>:
     cc6:	311e                	lhu	a5,32(a0)
     cc8:	777d                	lui	a4,0xfffff
     cca:	177d                	addi	a4,a4,-1 # ffffefff <_eusrstack+0xdfff9fff>
     ccc:	8ff9                	and	a5,a5,a4
     cce:	b11e                	sh	a5,32(a0)
     cd0:	311a                	lhu	a4,32(a0)
     cd2:	215e                	lhu	a5,4(a0)
     cd4:	2d56                	lhu	a3,28(a0)
     cd6:	7665                	lui	a2,0xffff9
     cd8:	cff60613          	addi	a2,a2,-769 # ffff8cff <_eusrstack+0xdfff3cff>
     cdc:	8ef1                	and	a3,a3,a2
     cde:	2192                	lhu	a2,0(a1)
     ce0:	0085d803          	lhu	a6,8(a1)
     ce4:	07c2                	slli	a5,a5,0x10
     ce6:	0622                	slli	a2,a2,0x8
     ce8:	8ed1                	or	a3,a3,a2
     cea:	7679                	lui	a2,0xffffe
     cec:	167d                	addi	a2,a2,-1 # ffffdfff <_eusrstack+0xdfff8fff>
     cee:	8f71                	and	a4,a4,a2
     cf0:	21b2                	lhu	a2,2(a1)
     cf2:	06c2                	slli	a3,a3,0x10
     cf4:	83c1                	srli	a5,a5,0x10
     cf6:	01066633          	or	a2,a2,a6
     cfa:	0632                	slli	a2,a2,0xc
     cfc:	8f51                	or	a4,a4,a2
     cfe:	40013637          	lui	a2,0x40013
     d02:	0742                	slli	a4,a4,0x10
     d04:	c0060613          	addi	a2,a2,-1024 # 40012c00 <_eusrstack+0x2000dc00>
     d08:	82c1                	srli	a3,a3,0x10
     d0a:	8341                	srli	a4,a4,0x10
     d0c:	00c51a63          	bne	a0,a2,d20 <TIM_OC4Init+0x5a>
     d10:	7671                	lui	a2,0xffffc
     d12:	167d                	addi	a2,a2,-1 # ffffbfff <_eusrstack+0xdfff6fff>
     d14:	8ff1                	and	a5,a5,a2
     d16:	25d2                	lhu	a2,12(a1)
     d18:	061a                	slli	a2,a2,0x6
     d1a:	8fd1                	or	a5,a5,a2
     d1c:	07c2                	slli	a5,a5,0x10
     d1e:	83c1                	srli	a5,a5,0x10
     d20:	a15e                	sh	a5,4(a0)
     d22:	21fe                	lhu	a5,6(a1)
     d24:	ad56                	sh	a3,28(a0)
     d26:	04f51023          	sh	a5,64(a0)
     d2a:	b11a                	sh	a4,32(a0)
     d2c:	8082                	ret

00000d2e <TIM_BDTRConfig>:
     d2e:	21ba                	lhu	a4,2(a1)
     d30:	219e                	lhu	a5,0(a1)
     d32:	8fd9                	or	a5,a5,a4
     d34:	21da                	lhu	a4,4(a1)
     d36:	8fd9                	or	a5,a5,a4
     d38:	21fa                	lhu	a4,6(a1)
     d3a:	8fd9                	or	a5,a5,a4
     d3c:	259a                	lhu	a4,8(a1)
     d3e:	8fd9                	or	a5,a5,a4
     d40:	25ba                	lhu	a4,10(a1)
     d42:	8fd9                	or	a5,a5,a4
     d44:	25da                	lhu	a4,12(a1)
     d46:	8fd9                	or	a5,a5,a4
     d48:	04f51223          	sh	a5,68(a0)
     d4c:	8082                	ret

00000d4e <TIM_TimeBaseStructInit>:
     d4e:	57fd                	li	a5,-1
     d50:	a15e                	sh	a5,4(a0)
     d52:	00051023          	sh	zero,0(a0)
     d56:	00051323          	sh	zero,6(a0)
     d5a:	00051123          	sh	zero,2(a0)
     d5e:	00050423          	sb	zero,8(a0)
     d62:	8082                	ret

00000d64 <TIM_OCStructInit>:
     d64:	00051023          	sh	zero,0(a0)
     d68:	00051123          	sh	zero,2(a0)
     d6c:	00051223          	sh	zero,4(a0)
     d70:	00051323          	sh	zero,6(a0)
     d74:	00051423          	sh	zero,8(a0)
     d78:	00051523          	sh	zero,10(a0)
     d7c:	00051623          	sh	zero,12(a0)
     d80:	00051723          	sh	zero,14(a0)
     d84:	8082                	ret

00000d86 <TIM_ICStructInit>:
     d86:	4785                	li	a5,1
     d88:	00051023          	sh	zero,0(a0)
     d8c:	00051123          	sh	zero,2(a0)
     d90:	a15e                	sh	a5,4(a0)
     d92:	00051323          	sh	zero,6(a0)
     d96:	00051423          	sh	zero,8(a0)
     d9a:	8082                	ret

00000d9c <TIM_BDTRStructInit>:
     d9c:	00051023          	sh	zero,0(a0)
     da0:	00051123          	sh	zero,2(a0)
     da4:	00051223          	sh	zero,4(a0)
     da8:	00051323          	sh	zero,6(a0)
     dac:	00051423          	sh	zero,8(a0)
     db0:	00051523          	sh	zero,10(a0)
     db4:	00051623          	sh	zero,12(a0)
     db8:	8082                	ret

00000dba <TIM_Cmd>:
     dba:	211e                	lhu	a5,0(a0)
     dbc:	c589                	beqz	a1,dc6 <TIM_Cmd+0xc>
     dbe:	0017e793          	ori	a5,a5,1
     dc2:	a11e                	sh	a5,0(a0)
     dc4:	8082                	ret
     dc6:	07c2                	slli	a5,a5,0x10
     dc8:	83c1                	srli	a5,a5,0x10
     dca:	9bf9                	andi	a5,a5,-2
     dcc:	07c2                	slli	a5,a5,0x10
     dce:	83c1                	srli	a5,a5,0x10
     dd0:	bfcd                	j	dc2 <TIM_Cmd+0x8>

00000dd2 <TIM_CtrlPWMOutputs>:
     dd2:	04455783          	lhu	a5,68(a0)
     dd6:	c591                	beqz	a1,de2 <TIM_CtrlPWMOutputs+0x10>
     dd8:	6721                	lui	a4,0x8
     dda:	8fd9                	or	a5,a5,a4
     ddc:	04f51223          	sh	a5,68(a0)
     de0:	8082                	ret
     de2:	07c6                	slli	a5,a5,0x11
     de4:	83c5                	srli	a5,a5,0x11
     de6:	bfdd                	j	ddc <TIM_CtrlPWMOutputs+0xa>

00000de8 <TIM_ITConfig>:
     de8:	255e                	lhu	a5,12(a0)
     dea:	c601                	beqz	a2,df2 <TIM_ITConfig+0xa>
     dec:	8fcd                	or	a5,a5,a1
     dee:	a55e                	sh	a5,12(a0)
     df0:	8082                	ret
     df2:	fff5c593          	not	a1,a1
     df6:	8fed                	and	a5,a5,a1
     df8:	bfdd                	j	dee <TIM_ITConfig+0x6>

00000dfa <TIM_GenerateEvent>:
     dfa:	a94e                	sh	a1,20(a0)
     dfc:	8082                	ret

00000dfe <TIM_SelectInputTrigger>:
     dfe:	251e                	lhu	a5,8(a0)
     e00:	07c2                	slli	a5,a5,0x10
     e02:	83c1                	srli	a5,a5,0x10
     e04:	f8f7f793          	andi	a5,a5,-113
     e08:	8fcd                	or	a5,a5,a1
     e0a:	a51e                	sh	a5,8(a0)
     e0c:	8082                	ret

00000e0e <TIM_ARRPreloadConfig>:
     e0e:	211e                	lhu	a5,0(a0)
     e10:	c589                	beqz	a1,e1a <TIM_ARRPreloadConfig+0xc>
     e12:	0807e793          	ori	a5,a5,128
     e16:	a11e                	sh	a5,0(a0)
     e18:	8082                	ret
     e1a:	07c2                	slli	a5,a5,0x10
     e1c:	83c1                	srli	a5,a5,0x10
     e1e:	f7f7f793          	andi	a5,a5,-129
     e22:	07c2                	slli	a5,a5,0x10
     e24:	83c1                	srli	a5,a5,0x10
     e26:	bfc5                	j	e16 <TIM_ARRPreloadConfig+0x8>

00000e28 <TIM_OC1PreloadConfig>:
     e28:	2d1e                	lhu	a5,24(a0)
     e2a:	07c2                	slli	a5,a5,0x10
     e2c:	83c1                	srli	a5,a5,0x10
     e2e:	9bdd                	andi	a5,a5,-9
     e30:	8fcd                	or	a5,a5,a1
     e32:	ad1e                	sh	a5,24(a0)
     e34:	8082                	ret

00000e36 <TIM_OC2PreloadConfig>:
     e36:	2d1e                	lhu	a5,24(a0)
     e38:	777d                	lui	a4,0xfffff
     e3a:	7ff70713          	addi	a4,a4,2047 # fffff7ff <_eusrstack+0xdfffa7ff>
     e3e:	8ff9                	and	a5,a5,a4
     e40:	05a2                	slli	a1,a1,0x8
     e42:	8fcd                	or	a5,a5,a1
     e44:	07c2                	slli	a5,a5,0x10
     e46:	83c1                	srli	a5,a5,0x10
     e48:	ad1e                	sh	a5,24(a0)
     e4a:	8082                	ret

00000e4c <TIM_OC3PreloadConfig>:
     e4c:	2d5e                	lhu	a5,28(a0)
     e4e:	07c2                	slli	a5,a5,0x10
     e50:	83c1                	srli	a5,a5,0x10
     e52:	9bdd                	andi	a5,a5,-9
     e54:	8fcd                	or	a5,a5,a1
     e56:	ad5e                	sh	a5,28(a0)
     e58:	8082                	ret

00000e5a <TIM_OC1FastConfig>:
     e5a:	2d1e                	lhu	a5,24(a0)
     e5c:	07c2                	slli	a5,a5,0x10
     e5e:	83c1                	srli	a5,a5,0x10
     e60:	9bed                	andi	a5,a5,-5
     e62:	8fcd                	or	a5,a5,a1
     e64:	ad1e                	sh	a5,24(a0)
     e66:	8082                	ret

00000e68 <TIM_OC2FastConfig>:
     e68:	2d1e                	lhu	a5,24(a0)
     e6a:	05a2                	slli	a1,a1,0x8
     e6c:	07c2                	slli	a5,a5,0x10
     e6e:	83c1                	srli	a5,a5,0x10
     e70:	bff7f793          	andi	a5,a5,-1025
     e74:	8fcd                	or	a5,a5,a1
     e76:	07c2                	slli	a5,a5,0x10
     e78:	83c1                	srli	a5,a5,0x10
     e7a:	ad1e                	sh	a5,24(a0)
     e7c:	8082                	ret

00000e7e <TIM_OC3FastConfig>:
     e7e:	2d5e                	lhu	a5,28(a0)
     e80:	07c2                	slli	a5,a5,0x10
     e82:	83c1                	srli	a5,a5,0x10
     e84:	9bed                	andi	a5,a5,-5
     e86:	8fcd                	or	a5,a5,a1
     e88:	ad5e                	sh	a5,28(a0)
     e8a:	8082                	ret

00000e8c <TIM_CCxCmd>:
     e8c:	311e                	lhu	a5,32(a0)
     e8e:	4705                	li	a4,1
     e90:	00b71733          	sll	a4,a4,a1
     e94:	fff74713          	not	a4,a4
     e98:	8ff9                	and	a5,a5,a4
     e9a:	00b61633          	sll	a2,a2,a1
     e9e:	8fd1                	or	a5,a5,a2
     ea0:	07c2                	slli	a5,a5,0x10
     ea2:	83c1                	srli	a5,a5,0x10
     ea4:	b11e                	sh	a5,32(a0)
     ea6:	8082                	ret

00000ea8 <TIM_CCxNCmd>:
     ea8:	311e                	lhu	a5,32(a0)
     eaa:	4711                	li	a4,4
     eac:	00b71733          	sll	a4,a4,a1
     eb0:	fff74713          	not	a4,a4
     eb4:	8ff9                	and	a5,a5,a4
     eb6:	00b61633          	sll	a2,a2,a1
     eba:	8fd1                	or	a5,a5,a2
     ebc:	07c2                	slli	a5,a5,0x10
     ebe:	83c1                	srli	a5,a5,0x10
     ec0:	b11e                	sh	a5,32(a0)
     ec2:	8082                	ret

00000ec4 <TIM_SelectSlaveMode>:
     ec4:	251e                	lhu	a5,8(a0)
     ec6:	07c2                	slli	a5,a5,0x10
     ec8:	83c1                	srli	a5,a5,0x10
     eca:	9be1                	andi	a5,a5,-8
     ecc:	07c2                	slli	a5,a5,0x10
     ece:	83c1                	srli	a5,a5,0x10
     ed0:	a51e                	sh	a5,8(a0)
     ed2:	251e                	lhu	a5,8(a0)
     ed4:	8fcd                	or	a5,a5,a1
     ed6:	a51e                	sh	a5,8(a0)
     ed8:	8082                	ret

00000eda <TIM_SelectMasterSlaveMode>:
     eda:	251e                	lhu	a5,8(a0)
     edc:	07c2                	slli	a5,a5,0x10
     ede:	83c1                	srli	a5,a5,0x10
     ee0:	f7f7f793          	andi	a5,a5,-129
     ee4:	07c2                	slli	a5,a5,0x10
     ee6:	83c1                	srli	a5,a5,0x10
     ee8:	a51e                	sh	a5,8(a0)
     eea:	251e                	lhu	a5,8(a0)
     eec:	8fcd                	or	a5,a5,a1
     eee:	a51e                	sh	a5,8(a0)
     ef0:	8082                	ret

00000ef2 <TIM_SetIC1Prescaler>:
     ef2:	2d1e                	lhu	a5,24(a0)
     ef4:	07c2                	slli	a5,a5,0x10
     ef6:	83c1                	srli	a5,a5,0x10
     ef8:	9bcd                	andi	a5,a5,-13
     efa:	07c2                	slli	a5,a5,0x10
     efc:	83c1                	srli	a5,a5,0x10
     efe:	ad1e                	sh	a5,24(a0)
     f00:	2d1e                	lhu	a5,24(a0)
     f02:	8fcd                	or	a5,a5,a1
     f04:	ad1e                	sh	a5,24(a0)
     f06:	8082                	ret

00000f08 <TIM_SetIC2Prescaler>:
     f08:	2d1e                	lhu	a5,24(a0)
     f0a:	777d                	lui	a4,0xfffff
     f0c:	3ff70713          	addi	a4,a4,1023 # fffff3ff <_eusrstack+0xdfffa3ff>
     f10:	8ff9                	and	a5,a5,a4
     f12:	ad1e                	sh	a5,24(a0)
     f14:	2d1e                	lhu	a5,24(a0)
     f16:	05a2                	slli	a1,a1,0x8
     f18:	8fcd                	or	a5,a5,a1
     f1a:	07c2                	slli	a5,a5,0x10
     f1c:	83c1                	srli	a5,a5,0x10
     f1e:	ad1e                	sh	a5,24(a0)
     f20:	8082                	ret

00000f22 <TIM_SetIC3Prescaler>:
     f22:	2d5e                	lhu	a5,28(a0)
     f24:	07c2                	slli	a5,a5,0x10
     f26:	83c1                	srli	a5,a5,0x10
     f28:	9bcd                	andi	a5,a5,-13
     f2a:	07c2                	slli	a5,a5,0x10
     f2c:	83c1                	srli	a5,a5,0x10
     f2e:	ad5e                	sh	a5,28(a0)
     f30:	2d5e                	lhu	a5,28(a0)
     f32:	8fcd                	or	a5,a5,a1
     f34:	ad5e                	sh	a5,28(a0)
     f36:	8082                	ret

00000f38 <TIM_SetIC4Prescaler>:
     f38:	2d5e                	lhu	a5,28(a0)
     f3a:	777d                	lui	a4,0xfffff
     f3c:	3ff70713          	addi	a4,a4,1023 # fffff3ff <_eusrstack+0xdfffa3ff>
     f40:	8ff9                	and	a5,a5,a4
     f42:	ad5e                	sh	a5,28(a0)
     f44:	2d5e                	lhu	a5,28(a0)
     f46:	05a2                	slli	a1,a1,0x8
     f48:	8fcd                	or	a5,a5,a1
     f4a:	07c2                	slli	a5,a5,0x10
     f4c:	83c1                	srli	a5,a5,0x10
     f4e:	ad5e                	sh	a5,28(a0)
     f50:	8082                	ret

00000f52 <TIM_ICInit>:
     f52:	a1eff2ef          	jal	t0,170 <__riscv_save_0>
     f56:	219a                	lhu	a4,0(a1)
     f58:	21be                	lhu	a5,2(a1)
     f5a:	21d2                	lhu	a2,4(a1)
     f5c:	2596                	lhu	a3,8(a1)
     f5e:	842a                	mv	s0,a0
     f60:	84ae                	mv	s1,a1
     f62:	eb01                	bnez	a4,f72 <TIM_ICInit+0x20>
     f64:	85be                	mv	a1,a5
     f66:	3af5                	jal	962 <TI1_Config>
     f68:	20ee                	lhu	a1,6(s1)
     f6a:	8522                	mv	a0,s0
     f6c:	3759                	jal	ef2 <TIM_SetIC1Prescaler>
     f6e:	a26ff06f          	j	194 <__riscv_restore_0>
     f72:	4591                	li	a1,4
     f74:	00b71863          	bne	a4,a1,f84 <TIM_ICInit+0x32>
     f78:	85be                	mv	a1,a5
     f7a:	3c89                	jal	9cc <TI2_Config>
     f7c:	20ee                	lhu	a1,6(s1)
     f7e:	8522                	mv	a0,s0
     f80:	3761                	jal	f08 <TIM_SetIC2Prescaler>
     f82:	b7f5                	j	f6e <TIM_ICInit+0x1c>
     f84:	4521                	li	a0,8
     f86:	20ee                	lhu	a1,6(s1)
     f88:	08a71763          	bne	a4,a0,1016 <TIM_ICInit+0xc4>
     f8c:	301a                	lhu	a4,32(s0)
     f8e:	0692                	slli	a3,a3,0x4
     f90:	00879813          	slli	a6,a5,0x8
     f94:	0742                	slli	a4,a4,0x10
     f96:	8341                	srli	a4,a4,0x10
     f98:	eff77713          	andi	a4,a4,-257
     f9c:	0742                	slli	a4,a4,0x10
     f9e:	8341                	srli	a4,a4,0x10
     fa0:	b01a                	sh	a4,32(s0)
     fa2:	2c4a                	lhu	a0,28(s0)
     fa4:	301a                	lhu	a4,32(s0)
     fa6:	0842                	slli	a6,a6,0x10
     fa8:	0542                	slli	a0,a0,0x10
     faa:	8141                	srli	a0,a0,0x10
     fac:	f0c57513          	andi	a0,a0,-244
     fb0:	8d51                	or	a0,a0,a2
     fb2:	8d55                	or	a0,a0,a3
     fb4:	400136b7          	lui	a3,0x40013
     fb8:	0742                	slli	a4,a4,0x10
     fba:	0542                	slli	a0,a0,0x10
     fbc:	c0068693          	addi	a3,a3,-1024 # 40012c00 <_eusrstack+0x2000dc00>
     fc0:	8341                	srli	a4,a4,0x10
     fc2:	01085813          	srli	a6,a6,0x10
     fc6:	8141                	srli	a0,a0,0x10
     fc8:	02d40463          	beq	s0,a3,ff0 <TIM_ICInit+0x9e>
     fcc:	400006b7          	lui	a3,0x40000
     fd0:	02d40063          	beq	s0,a3,ff0 <TIM_ICInit+0x9e>
     fd4:	40068693          	addi	a3,a3,1024 # 40000400 <_eusrstack+0x1fffb400>
     fd8:	00d40c63          	beq	s0,a3,ff0 <TIM_ICInit+0x9e>
     fdc:	400016b7          	lui	a3,0x40001
     fe0:	80068613          	addi	a2,a3,-2048 # 40000800 <_eusrstack+0x1fffb800>
     fe4:	00c40663          	beq	s0,a2,ff0 <TIM_ICInit+0x9e>
     fe8:	c0068693          	addi	a3,a3,-1024
     fec:	00d41d63          	bne	s0,a3,1006 <TIM_ICInit+0xb4>
     ff0:	dff77713          	andi	a4,a4,-513
     ff4:	00e86833          	or	a6,a6,a4
     ff8:	10086713          	ori	a4,a6,256
     ffc:	ac4a                	sh	a0,28(s0)
     ffe:	b01a                	sh	a4,32(s0)
    1000:	8522                	mv	a0,s0
    1002:	3705                	jal	f22 <TIM_SetIC3Prescaler>
    1004:	b7ad                	j	f6e <TIM_ICInit+0x1c>
    1006:	76fd                	lui	a3,0xfffff
    1008:	5ff68693          	addi	a3,a3,1535 # fffff5ff <_eusrstack+0xdfffa5ff>
    100c:	8f75                	and	a4,a4,a3
    100e:	8f5d                	or	a4,a4,a5
    1010:	10076713          	ori	a4,a4,256
    1014:	b7e5                	j	ffc <TIM_ICInit+0xaa>
    1016:	301a                	lhu	a4,32(s0)
    1018:	757d                	lui	a0,0xfffff
    101a:	157d                	addi	a0,a0,-1 # ffffefff <_eusrstack+0xdfff9fff>
    101c:	8f69                	and	a4,a4,a0
    101e:	b01a                	sh	a4,32(s0)
    1020:	2c4a                	lhu	a0,28(s0)
    1022:	6885                	lui	a7,0x1
    1024:	06b2                	slli	a3,a3,0xc
    1026:	301a                	lhu	a4,32(s0)
    1028:	cff88893          	addi	a7,a7,-769 # cff <TIM_OC4Init+0x39>
    102c:	0622                	slli	a2,a2,0x8
    102e:	8e55                	or	a2,a2,a3
    1030:	01157533          	and	a0,a0,a7
    1034:	00c79813          	slli	a6,a5,0xc
    1038:	8d51                	or	a0,a0,a2
    103a:	400136b7          	lui	a3,0x40013
    103e:	0742                	slli	a4,a4,0x10
    1040:	0842                	slli	a6,a6,0x10
    1042:	0542                	slli	a0,a0,0x10
    1044:	c0068693          	addi	a3,a3,-1024 # 40012c00 <_eusrstack+0x2000dc00>
    1048:	8341                	srli	a4,a4,0x10
    104a:	01085813          	srli	a6,a6,0x10
    104e:	8141                	srli	a0,a0,0x10
    1050:	02d40463          	beq	s0,a3,1078 <TIM_ICInit+0x126>
    1054:	400006b7          	lui	a3,0x40000
    1058:	02d40063          	beq	s0,a3,1078 <TIM_ICInit+0x126>
    105c:	40068693          	addi	a3,a3,1024 # 40000400 <_eusrstack+0x1fffb400>
    1060:	00d40c63          	beq	s0,a3,1078 <TIM_ICInit+0x126>
    1064:	400016b7          	lui	a3,0x40001
    1068:	80068613          	addi	a2,a3,-2048 # 40000800 <_eusrstack+0x1fffb800>
    106c:	00c40663          	beq	s0,a2,1078 <TIM_ICInit+0x126>
    1070:	c0068693          	addi	a3,a3,-1024
    1074:	00d41f63          	bne	s0,a3,1092 <TIM_ICInit+0x140>
    1078:	77f9                	lui	a5,0xffffe
    107a:	17fd                	addi	a5,a5,-1 # ffffdfff <_eusrstack+0xdfff8fff>
    107c:	8f7d                	and	a4,a4,a5
    107e:	00e86833          	or	a6,a6,a4
    1082:	6785                	lui	a5,0x1
    1084:	00f867b3          	or	a5,a6,a5
    1088:	ac4a                	sh	a0,28(s0)
    108a:	b01e                	sh	a5,32(s0)
    108c:	8522                	mv	a0,s0
    108e:	356d                	jal	f38 <TIM_SetIC4Prescaler>
    1090:	bdf9                	j	f6e <TIM_ICInit+0x1c>
    1092:	66a1                	lui	a3,0x8
    1094:	dff68693          	addi	a3,a3,-513 # 7dff <_data_lma+0x19c7>
    1098:	8f75                	and	a4,a4,a3
    109a:	8fd9                	or	a5,a5,a4
    109c:	6705                	lui	a4,0x1
    109e:	8fd9                	or	a5,a5,a4
    10a0:	b7e5                	j	1088 <TIM_ICInit+0x136>

000010a2 <TIM_GetCapture1>:
    10a2:	394a                	lhu	a0,52(a0)
    10a4:	8082                	ret

000010a6 <TIM_GetCapture2>:
    10a6:	3d0a                	lhu	a0,56(a0)
    10a8:	8082                	ret

000010aa <TIM_GetITStatus>:
    10aa:	291e                	lhu	a5,16(a0)
    10ac:	254a                	lhu	a0,12(a0)
    10ae:	8fed                	and	a5,a5,a1
    10b0:	0542                	slli	a0,a0,0x10
    10b2:	8141                	srli	a0,a0,0x10
    10b4:	c789                	beqz	a5,10be <TIM_GetITStatus+0x14>
    10b6:	8d6d                	and	a0,a0,a1
    10b8:	00a03533          	snez	a0,a0
    10bc:	8082                	ret
    10be:	4501                	li	a0,0
    10c0:	8082                	ret

000010c2 <TIM_ClearITPendingBit>:
    10c2:	fff5c593          	not	a1,a1
    10c6:	05c2                	slli	a1,a1,0x10
    10c8:	81c1                	srli	a1,a1,0x10
    10ca:	a90e                	sh	a1,16(a0)
    10cc:	8082                	ret

000010ce <USART_Init>:
    10ce:	8a2ff2ef          	jal	t0,170 <__riscv_save_0>
    10d2:	2916                	lhu	a3,16(a0)
    10d4:	77f5                	lui	a5,0xffffd
    10d6:	17fd                	addi	a5,a5,-1 # ffffcfff <_eusrstack+0xdfff7fff>
    10d8:	8efd                	and	a3,a3,a5
    10da:	21fe                	lhu	a5,6(a1)
    10dc:	25da                	lhu	a4,12(a1)
    10de:	1101                	addi	sp,sp,-32
    10e0:	8fd5                	or	a5,a5,a3
    10e2:	a91e                	sh	a5,16(a0)
    10e4:	2556                	lhu	a3,12(a0)
    10e6:	77fd                	lui	a5,0xfffff
    10e8:	9f378793          	addi	a5,a5,-1549 # ffffe9f3 <_eusrstack+0xdfff99f3>
    10ec:	8efd                	and	a3,a3,a5
    10ee:	21de                	lhu	a5,4(a1)
    10f0:	842a                	mv	s0,a0
    10f2:	84ae                	mv	s1,a1
    10f4:	8fd5                	or	a5,a5,a3
    10f6:	2596                	lhu	a3,8(a1)
    10f8:	8fd5                	or	a5,a5,a3
    10fa:	25b6                	lhu	a3,10(a1)
    10fc:	8fd5                	or	a5,a5,a3
    10fe:	a55e                	sh	a5,12(a0)
    1100:	295e                	lhu	a5,20(a0)
    1102:	07c2                	slli	a5,a5,0x10
    1104:	83c1                	srli	a5,a5,0x10
    1106:	cff7f793          	andi	a5,a5,-769
    110a:	8fd9                	or	a5,a5,a4
    110c:	a95e                	sh	a5,20(a0)
    110e:	0068                	addi	a0,sp,12
    1110:	f04ff0ef          	jal	ra,814 <RCC_GetClocksFreq>
    1114:	400147b7          	lui	a5,0x40014
    1118:	80078793          	addi	a5,a5,-2048 # 40013800 <_eusrstack+0x2000e800>
    111c:	04f41863          	bne	s0,a5,116c <USART_Init+0x9e>
    1120:	47e2                	lw	a5,24(sp)
    1122:	2456                	lhu	a3,12(s0)
    1124:	4765                	li	a4,25
    1126:	02e787b3          	mul	a5,a5,a4
    112a:	06c2                	slli	a3,a3,0x10
    112c:	86c1                	srai	a3,a3,0x10
    112e:	4098                	lw	a4,0(s1)
    1130:	0406d063          	bgez	a3,1170 <USART_Init+0xa2>
    1134:	0706                	slli	a4,a4,0x1
    1136:	06400693          	li	a3,100
    113a:	2452                	lhu	a2,12(s0)
    113c:	02e7d7b3          	divu	a5,a5,a4
    1140:	0642                	slli	a2,a2,0x10
    1142:	8641                	srai	a2,a2,0x10
    1144:	02d7d733          	divu	a4,a5,a3
    1148:	02d7f7b3          	remu	a5,a5,a3
    114c:	0712                	slli	a4,a4,0x4
    114e:	02065363          	bgez	a2,1174 <USART_Init+0xa6>
    1152:	078e                	slli	a5,a5,0x3
    1154:	03278793          	addi	a5,a5,50
    1158:	02d7d7b3          	divu	a5,a5,a3
    115c:	8b9d                	andi	a5,a5,7
    115e:	8fd9                	or	a5,a5,a4
    1160:	07c2                	slli	a5,a5,0x10
    1162:	83c1                	srli	a5,a5,0x10
    1164:	a41e                	sh	a5,8(s0)
    1166:	6105                	addi	sp,sp,32
    1168:	82cff06f          	j	194 <__riscv_restore_0>
    116c:	47d2                	lw	a5,20(sp)
    116e:	bf55                	j	1122 <USART_Init+0x54>
    1170:	070a                	slli	a4,a4,0x2
    1172:	b7d1                	j	1136 <USART_Init+0x68>
    1174:	0792                	slli	a5,a5,0x4
    1176:	03278793          	addi	a5,a5,50
    117a:	02d7d7b3          	divu	a5,a5,a3
    117e:	8bbd                	andi	a5,a5,15
    1180:	bff9                	j	115e <USART_Init+0x90>

00001182 <USART_Cmd>:
    1182:	255e                	lhu	a5,12(a0)
    1184:	c589                	beqz	a1,118e <USART_Cmd+0xc>
    1186:	6709                	lui	a4,0x2
    1188:	8fd9                	or	a5,a5,a4
    118a:	a55e                	sh	a5,12(a0)
    118c:	8082                	ret
    118e:	7779                	lui	a4,0xffffe
    1190:	177d                	addi	a4,a4,-1 # ffffdfff <_eusrstack+0xdfff8fff>
    1192:	8ff9                	and	a5,a5,a4
    1194:	bfdd                	j	118a <USART_Cmd+0x8>

00001196 <USART_SendData>:
    1196:	1ff5f593          	andi	a1,a1,511
    119a:	a14e                	sh	a1,4(a0)
    119c:	8082                	ret

0000119e <USART_GetFlagStatus>:
    119e:	210a                	lhu	a0,0(a0)
    11a0:	8d6d                	and	a0,a0,a1
    11a2:	00a03533          	snez	a0,a0
    11a6:	8082                	ret

000011a8 <_write>:
    11a8:	faffe2ef          	jal	t0,156 <__riscv_save_4>
    11ac:	40014937          	lui	s2,0x40014
    11b0:	89ae                	mv	s3,a1
    11b2:	8432                	mv	s0,a2
    11b4:	4481                	li	s1,0
    11b6:	80090913          	addi	s2,s2,-2048 # 40013800 <_eusrstack+0x2000e800>
    11ba:	0084c563          	blt	s1,s0,11c4 <_write+0x1c>
    11be:	8522                	mv	a0,s0
    11c0:	fcbfe06f          	j	18a <__riscv_restore_4>
    11c4:	04000593          	li	a1,64
    11c8:	854a                	mv	a0,s2
    11ca:	3fd1                	jal	119e <USART_GetFlagStatus>
    11cc:	dd65                	beqz	a0,11c4 <_write+0x1c>
    11ce:	009987b3          	add	a5,s3,s1
    11d2:	00078583          	lb	a1,0(a5)
    11d6:	854a                	mv	a0,s2
    11d8:	0485                	addi	s1,s1,1
    11da:	05c2                	slli	a1,a1,0x10
    11dc:	81c1                	srli	a1,a1,0x10
    11de:	3f65                	jal	1196 <USART_SendData>
    11e0:	bfe9                	j	11ba <_write+0x12>

000011e2 <_sbrk>:
    11e2:	200006b7          	lui	a3,0x20000
    11e6:	87aa                	mv	a5,a0
    11e8:	0746a503          	lw	a0,116(a3) # 20000074 <curbrk.0>
    11ec:	90018713          	addi	a4,gp,-1792 # 20000170 <_ebss>
    11f0:	97aa                	add	a5,a5,a0
    11f2:	00e7eb63          	bltu	a5,a4,1208 <_sbrk+0x26>
    11f6:	20005737          	lui	a4,0x20005
    11fa:	80070713          	addi	a4,a4,-2048 # 20004800 <_heap_end>
    11fe:	00f76563          	bltu	a4,a5,1208 <_sbrk+0x26>
    1202:	06f6aa23          	sw	a5,116(a3)
    1206:	8082                	ret
    1208:	557d                	li	a0,-1
    120a:	8082                	ret

0000120c <__get_MEPC>:
    120c:	34102573          	csrr	a0,mepc
    1210:	8082                	ret

00001212 <__get_MCAUSE>:
    1212:	34202573          	csrr	a0,mcause
    1216:	8082                	ret

00001218 <__get_MTVAL>:
    1218:	34302573          	csrr	a0,mtval
    121c:	8082                	ret

0000121e <SysTick_Handler>:
    121e:	1141                	addi	sp,sp,-16
    1220:	c622                	sw	s0,12(sp)
    1222:	c426                	sw	s1,8(sp)
    1224:	c24a                	sw	s2,4(sp)
    1226:	776010ef          	jal	ra,299c <battery_voltage_get>
    122a:	c501                	beqz	a0,1232 <SysTick_Handler+0x14>
    122c:	4719                	li	a4,6
    122e:	8ae18423          	sb	a4,-1880(gp) # 20000118 <motor>
    1232:	2135                	jal	165e <pit_callback>
    1234:	185010ef          	jal	ra,2bb8 <led_control>
    1238:	87a1d783          	lhu	a5,-1926(gp) # 200000ea <period_time>
    123c:	06300693          	li	a3,99
    1240:	08f6ff63          	bgeu	a3,a5,12de <SysTick_Handler+0xc0>
    1244:	8a818913          	addi	s2,gp,-1880 # 20000118 <motor>
    1248:	01c92503          	lw	a0,28(s2)
    124c:	86019d23          	sh	zero,-1926(gp) # 200000ea <period_time>
    1250:	5a0030ef          	jal	ra,47f0 <__floatunsisf>
    1254:	85aa                	mv	a1,a0
    1256:	8581a503          	lw	a0,-1960(gp) # 200000c8 <_impure_ptr+0x48>
    125a:	8a818493          	addi	s1,gp,-1880 # 20000118 <motor>
    125e:	1e7020ef          	jal	ra,3c44 <__divsf3>
    1262:	85aa                	mv	a1,a0
    1264:	8dc18513          	addi	a0,gp,-1828 # 2000014c <fan>
    1268:	730000ef          	jal	ra,1998 <PID_Calculate>
    126c:	00094703          	lbu	a4,0(s2)
    1270:	478d                	li	a5,3
    1272:	8dc18413          	addi	s0,gp,-1828 # 2000014c <fan>
    1276:	06f71263          	bne	a4,a5,12da <SysTick_Handler+0xbc>
    127a:	4c40                	lw	s0,28(s0)
    127c:	4705                	li	a4,1
    127e:	00000593          	li	a1,0
    1282:	8522                	mv	a0,s0
    1284:	86e18ca3          	sb	a4,-1927(gp) # 200000e9 <clac_flag>
    1288:	4a7020ef          	jal	ra,3f2e <__gesf2>
    128c:	00054f63          	bltz	a0,12aa <SysTick_Handler+0x8c>
    1290:	85c1a583          	lw	a1,-1956(gp) # 200000cc <_impure_ptr+0x4c>
    1294:	8522                	mv	a0,s0
    1296:	52f020ef          	jal	ra,3fc4 <__lesf2>
    129a:	00a04863          	bgtz	a0,12aa <SysTick_Handler+0x8c>
    129e:	8522                	mv	a0,s0
    12a0:	424030ef          	jal	ra,46c4 <__fixsfsi>
    12a4:	00a92823          	sw	a0,16(s2)
    12a8:	a811                	j	12bc <SysTick_Handler+0x9e>
    12aa:	00000593          	li	a1,0
    12ae:	8522                	mv	a0,s0
    12b0:	515020ef          	jal	ra,3fc4 <__lesf2>
    12b4:	00a04e63          	bgtz	a0,12d0 <SysTick_Handler+0xb2>
    12b8:	0004a823          	sw	zero,16(s1)
    12bc:	4432                	lw	s0,12(sp)
    12be:	e000f7b7          	lui	a5,0xe000f
    12c2:	0007a223          	sw	zero,4(a5) # e000f004 <_eusrstack+0xc000a004>
    12c6:	44a2                	lw	s1,8(sp)
    12c8:	4912                	lw	s2,4(sp)
    12ca:	0141                	addi	sp,sp,16
    12cc:	30200073          	mret
    12d0:	6785                	lui	a5,0x1
    12d2:	bb878793          	addi	a5,a5,-1096 # bb8 <TIM_OC2Init+0x18>
    12d6:	c89c                	sw	a5,16(s1)
    12d8:	b7d5                	j	12bc <SysTick_Handler+0x9e>
    12da:	4008                	lw	a0,0(s0)
    12dc:	b7d1                	j	12a0 <SysTick_Handler+0x82>
    12de:	0785                	addi	a5,a5,1
    12e0:	86f19d23          	sh	a5,-1926(gp) # 200000ea <period_time>
    12e4:	bfe1                	j	12bc <SysTick_Handler+0x9e>

000012e6 <TIM2_IRQHandler>:
    12e6:	4589                	li	a1,2
    12e8:	40000537          	lui	a0,0x40000
    12ec:	3b7d                	jal	10aa <TIM_GetITStatus>
    12ee:	c519                	beqz	a0,12fc <TIM2_IRQHandler+0x16>
    12f0:	561000ef          	jal	ra,2050 <pwm_input_trigger_callback>
    12f4:	400007b7          	lui	a5,0x40000
    12f8:	5775                	li	a4,-3
    12fa:	ab9a                	sh	a4,16(a5)
    12fc:	45c1                	li	a1,16
    12fe:	40000537          	lui	a0,0x40000
    1302:	3365                	jal	10aa <TIM_GetITStatus>
    1304:	c519                	beqz	a0,1312 <TIM2_IRQHandler+0x2c>
    1306:	61f000ef          	jal	ra,2124 <pwm_input_timeout_callback>
    130a:	400007b7          	lui	a5,0x40000
    130e:	573d                	li	a4,-17
    1310:	ab9a                	sh	a4,16(a5)
    1312:	30200073          	mret

00001316 <TIM3_IRQHandler>:
    1316:	2419                	jal	151c <commutation_and_degauss_callback>
    1318:	400007b7          	lui	a5,0x40000
    131c:	40079823          	sh	zero,1040(a5) # 40000410 <_eusrstack+0x1fffb410>
    1320:	40078793          	addi	a5,a5,1024
    1324:	30200073          	mret

00001328 <TIM4_IRQHandler>:
    1328:	2465                	jal	15d0 <commutation_time_out_callback>
    132a:	400017b7          	lui	a5,0x40001
    132e:	80079823          	sh	zero,-2032(a5) # 40000810 <_eusrstack+0x1fffb810>
    1332:	80078793          	addi	a5,a5,-2048
    1336:	30200073          	mret

0000133a <EXTI2_IRQHandler>:
    133a:	24e9                	jal	1604 <opama_callback>
    133c:	400107b7          	lui	a5,0x40010
    1340:	40078793          	addi	a5,a5,1024 # 40010400 <_eusrstack+0x2000b400>
    1344:	4711                	li	a4,4
    1346:	cbd8                	sw	a4,20(a5)
    1348:	30200073          	mret

0000134c <NMI_Handler>:
    134c:	30200073          	mret

00001350 <HardFault_Handler>:
    1350:	1101                	addi	sp,sp,-32
    1352:	06400513          	li	a0,100
    1356:	ce22                	sw	s0,28(sp)
    1358:	cc26                	sw	s1,24(sp)
    135a:	239000ef          	jal	ra,1d92 <motor_stop>
    135e:	6519                	lui	a0,0x6
    1360:	02050513          	addi	a0,a0,32 # 6020 <_exit+0x2>
    1364:	105030ef          	jal	ra,4c68 <puts>
    1368:	356d                	jal	1212 <__get_MCAUSE>
    136a:	c62a                	sw	a0,12(sp)
    136c:	3575                	jal	1218 <__get_MTVAL>
    136e:	84aa                	mv	s1,a0
    1370:	3d71                	jal	120c <__get_MEPC>
    1372:	45b2                	lw	a1,12(sp)
    1374:	842a                	mv	s0,a0
    1376:	6519                	lui	a0,0x6
    1378:	03450513          	addi	a0,a0,52 # 6034 <_exit+0x16>
    137c:	7aa030ef          	jal	ra,4b26 <iprintf>
    1380:	6519                	lui	a0,0x6
    1382:	85a6                	mv	a1,s1
    1384:	04450513          	addi	a0,a0,68 # 6044 <_exit+0x26>
    1388:	79e030ef          	jal	ra,4b26 <iprintf>
    138c:	6519                	lui	a0,0x6
    138e:	85a2                	mv	a1,s0
    1390:	05050513          	addi	a0,a0,80 # 6050 <_exit+0x32>
    1394:	792030ef          	jal	ra,4b26 <iprintf>
    1398:	a001                	j	1398 <HardFault_Handler+0x48>

0000139a <main>:
    139a:	dbdfe2ef          	jal	t0,156 <__riscv_save_4>
    139e:	7139                	addi	sp,sp,-64
    13a0:	09f010ef          	jal	ra,2c3e <led_init>
    13a4:	7f6000ef          	jal	ra,1b9a <set_vector_table_free>
    13a8:	000e1537          	lui	a0,0xe1
    13ac:	0e1010ef          	jal	ra,2c8c <usart_init>
    13b0:	65a010ef          	jal	ra,2a0a <battery_voltage_init>
    13b4:	368010ef          	jal	ra,271c <pwm_complementary_init>
    13b8:	591000ef          	jal	ra,2148 <pwm_input_init>
    13bc:	6ec000ef          	jal	ra,1aa8 <advance_commutation_count_init>
    13c0:	760000ef          	jal	ra,1b20 <commutation_time_count_init>
    13c4:	06400513          	li	a0,100
    13c8:	1cd000ef          	jal	ra,1d94 <motor_power_on_beep>
    13cc:	41f000ef          	jal	ra,1fea <opama_init>
    13d0:	3d5000ef          	jal	ra,1fa4 <pa2_exit_init>
    13d4:	7d000513          	li	a0,2000
    13d8:	794010ef          	jal	ra,2b6c <iwdg_init>
    13dc:	68a000ef          	jal	ra,1a66 <pit_init>
    13e0:	81c1a703          	lw	a4,-2020(gp) # 2000008c <_impure_ptr+0xc>
    13e4:	8181a883          	lw	a7,-2024(gp) # 20000088 <_impure_ptr+0x8>
    13e8:	c03a                	sw	a4,0(sp)
    13ea:	8241a803          	lw	a6,-2012(gp) # 20000094 <_impure_ptr+0x14>
    13ee:	8281a683          	lw	a3,-2008(gp) # 20000098 <_impure_ptr+0x18>
    13f2:	8201a783          	lw	a5,-2016(gp) # 20000090 <_impure_ptr+0x10>
    13f6:	82c1a703          	lw	a4,-2004(gp) # 2000009c <_impure_ptr+0x1c>
    13fa:	8dc18513          	addi	a0,gp,-1828 # 2000014c <fan>
    13fe:	4581                	li	a1,0
    1400:	4601                	li	a2,0
    1402:	2b25                	jal	193a <PID_Init>
    1404:	02400613          	li	a2,36
    1408:	4581                	li	a1,0
    140a:	0868                	addi	a0,sp,28
    140c:	000f49b7          	lui	s3,0xf4
    1410:	d91fe0ef          	jal	ra,1a0 <memset>
    1414:	8a818413          	addi	s0,gp,-1880 # 20000118 <motor>
    1418:	8dc18493          	addi	s1,gp,-1828 # 2000014c <fan>
    141c:	24098993          	addi	s3,s3,576 # f4240 <_data_lma+0xede08>
    1420:	88818913          	addi	s2,gp,-1912 # 200000f8 <battery>
    1424:	bc2ff0ef          	jal	ra,7e6 <IWDG_ReloadCounter>
    1428:	2008                	lbu	a0,0(s0)
    142a:	3c6030ef          	jal	ra,47f0 <__floatunsisf>
    142e:	d02a                	sw	a0,32(sp)
    1430:	4808                	lw	a0,16(s0)
    1432:	2f2030ef          	jal	ra,4724 <__floatsisf>
    1436:	01c42a03          	lw	s4,28(s0)
    143a:	d22a                	sw	a0,36(sp)
    143c:	409c                	lw	a5,0(s1)
    143e:	0349d533          	divu	a0,s3,s4
    1442:	d43e                	sw	a5,40(sp)
    1444:	3ac030ef          	jal	ra,47f0 <__floatunsisf>
    1448:	d62a                	sw	a0,44(sp)
    144a:	8552                	mv	a0,s4
    144c:	3a4030ef          	jal	ra,47f0 <__floatunsisf>
    1450:	4cdc                	lw	a5,28(s1)
    1452:	d82a                	sw	a0,48(sp)
    1454:	5048                	lw	a0,36(s0)
    1456:	da3e                	sw	a5,52(sp)
    1458:	398030ef          	jal	ra,47f0 <__floatunsisf>
    145c:	dc2a                	sw	a0,56(sp)
    145e:	00295503          	lhu	a0,2(s2)
    1462:	38e030ef          	jal	ra,47f0 <__floatunsisf>
    1466:	de2a                	sw	a0,60(sp)
    1468:	0868                	addi	a0,sp,28
    146a:	4e8010ef          	jal	ra,2952 <seekfree_assistant_oscilloscope_send>
    146e:	bf5d                	j	1424 <main+0x8a>

00001470 <SystemInit>:
    1470:	400217b7          	lui	a5,0x40021
    1474:	4398                	lw	a4,0(a5)
    1476:	f8ff06b7          	lui	a3,0xf8ff0
    147a:	00176713          	ori	a4,a4,1
    147e:	c398                	sw	a4,0(a5)
    1480:	43d8                	lw	a4,4(a5)
    1482:	8f75                	and	a4,a4,a3
    1484:	c3d8                	sw	a4,4(a5)
    1486:	4398                	lw	a4,0(a5)
    1488:	fef706b7          	lui	a3,0xfef70
    148c:	16fd                	addi	a3,a3,-1 # fef6ffff <_eusrstack+0xdef6afff>
    148e:	8f75                	and	a4,a4,a3
    1490:	c398                	sw	a4,0(a5)
    1492:	4398                	lw	a4,0(a5)
    1494:	fffc06b7          	lui	a3,0xfffc0
    1498:	16fd                	addi	a3,a3,-1 # fffbffff <_eusrstack+0xdffbafff>
    149a:	8f75                	and	a4,a4,a3
    149c:	c398                	sw	a4,0(a5)
    149e:	43d8                	lw	a4,4(a5)
    14a0:	ff8106b7          	lui	a3,0xff810
    14a4:	16fd                	addi	a3,a3,-1 # ff80ffff <_eusrstack+0xdf80afff>
    14a6:	8f75                	and	a4,a4,a3
    14a8:	c3d8                	sw	a4,4(a5)
    14aa:	009f0737          	lui	a4,0x9f0
    14ae:	c798                	sw	a4,8(a5)
    14b0:	40024737          	lui	a4,0x40024
    14b4:	80070713          	addi	a4,a4,-2048 # 40023800 <_eusrstack+0x2001e800>
    14b8:	4314                	lw	a3,0(a4)
    14ba:	0106e693          	ori	a3,a3,16
    14be:	c314                	sw	a3,0(a4)
    14c0:	43d8                	lw	a4,4(a5)
    14c2:	6689                	lui	a3,0x2
    14c4:	c3d8                	sw	a4,4(a5)
    14c6:	43d8                	lw	a4,4(a5)
    14c8:	8f55                	or	a4,a4,a3
    14ca:	c3d8                	sw	a4,4(a5)
    14cc:	43d8                	lw	a4,4(a5)
    14ce:	ffc106b7          	lui	a3,0xffc10
    14d2:	16fd                	addi	a3,a3,-1 # ffc0ffff <_eusrstack+0xdfc0afff>
    14d4:	40076713          	ori	a4,a4,1024
    14d8:	c3d8                	sw	a4,4(a5)
    14da:	43d8                	lw	a4,4(a5)
    14dc:	8f75                	and	a4,a4,a3
    14de:	c3d8                	sw	a4,4(a5)
    14e0:	43d8                	lw	a4,4(a5)
    14e2:	003c06b7          	lui	a3,0x3c0
    14e6:	8f55                	or	a4,a4,a3
    14e8:	c3d8                	sw	a4,4(a5)
    14ea:	4398                	lw	a4,0(a5)
    14ec:	010006b7          	lui	a3,0x1000
    14f0:	8f55                	or	a4,a4,a3
    14f2:	c398                	sw	a4,0(a5)
    14f4:	020006b7          	lui	a3,0x2000
    14f8:	4398                	lw	a4,0(a5)
    14fa:	8f75                	and	a4,a4,a3
    14fc:	df75                	beqz	a4,14f8 <SystemInit+0x88>
    14fe:	43d8                	lw	a4,4(a5)
    1500:	400216b7          	lui	a3,0x40021
    1504:	9b71                	andi	a4,a4,-4
    1506:	c3d8                	sw	a4,4(a5)
    1508:	43d8                	lw	a4,4(a5)
    150a:	00276713          	ori	a4,a4,2
    150e:	c3d8                	sw	a4,4(a5)
    1510:	4721                	li	a4,8
    1512:	42dc                	lw	a5,4(a3)
    1514:	8bb1                	andi	a5,a5,12
    1516:	fee79ee3          	bne	a5,a4,1512 <SystemInit+0xa2>
    151a:	8082                	ret

0000151c <commutation_and_degauss_callback>:
    151c:	c3bfe2ef          	jal	t0,156 <__riscv_save_4>
    1520:	8a818413          	addi	s0,gp,-1880 # 20000118 <motor>
    1524:	2018                	lbu	a4,0(s0)
    1526:	478d                	li	a5,3
    1528:	06f71b63          	bne	a4,a5,159e <commutation_and_degauss_callback+0x82>
    152c:	4501                	li	a0,0
    152e:	730000ef          	jal	ra,1c5e <motor_next_step>
    1532:	261000ef          	jal	ra,1f92 <enable_opama_interrupts>
    1536:	301c                	lbu	a5,1(s0)
    1538:	8821d503          	lhu	a0,-1918(gp) # 200000f2 <temp_commutation_time>
    153c:	0786                	slli	a5,a5,0x1
    153e:	4c50                	lw	a2,28(s0)
    1540:	97a2                	add	a5,a5,s0
    1542:	23b6                	lhu	a3,2(a5)
    1544:	a3aa                	sh	a0,2(a5)
    1546:	479d                	li	a5,7
    1548:	02c787b3          	mul	a5,a5,a2
    154c:	5018                	lw	a4,32(s0)
    154e:	972a                	add	a4,a4,a0
    1550:	8f15                	sub	a4,a4,a3
    1552:	5054                	lw	a3,36(s0)
    1554:	d018                	sw	a4,32(s0)
    1556:	0685                	addi	a3,a3,1 # 40021001 <_eusrstack+0x2001c001>
    1558:	97ba                	add	a5,a5,a4
    155a:	0037da13          	srli	s4,a5,0x3
    155e:	d054                	sw	a3,36(s0)
    1560:	01442e23          	sw	s4,28(s0)
    1564:	0d200713          	li	a4,210
    1568:	02d77b63          	bgeu	a4,a3,159e <commutation_and_degauss_callback+0x82>
    156c:	8399                	srli	a5,a5,0x6
    156e:	4c04                	lw	s1,24(s0)
    1570:	8a818913          	addi	s2,gp,-1880 # 20000118 <motor>
    1574:	04a7f263          	bgeu	a5,a0,15b8 <commutation_and_degauss_callback+0x9c>
    1578:	1ac030ef          	jal	ra,4724 <__floatsisf>
    157c:	89aa                	mv	s3,a0
    157e:	8552                	mv	a0,s4
    1580:	270030ef          	jal	ra,47f0 <__floatunsisf>
    1584:	8601a583          	lw	a1,-1952(gp) # 200000d0 <_impure_ptr+0x50>
    1588:	6bc020ef          	jal	ra,3c44 <__divsf3>
    158c:	85aa                	mv	a1,a0
    158e:	854e                	mv	a0,s3
    1590:	235020ef          	jal	ra,3fc4 <__lesf2>
    1594:	02055263          	bgez	a0,15b8 <commutation_and_degauss_callback+0x9c>
    1598:	c099                	beqz	s1,159e <commutation_and_degauss_callback+0x82>
    159a:	14fd                	addi	s1,s1,-1
    159c:	cc04                	sw	s1,24(s0)
    159e:	40000737          	lui	a4,0x40000
    15a2:	40c75783          	lhu	a5,1036(a4) # 4000040c <_eusrstack+0x1fffb40c>
    15a6:	07c2                	slli	a5,a5,0x10
    15a8:	83c1                	srli	a5,a5,0x10
    15aa:	9bf9                	andi	a5,a5,-2
    15ac:	07c2                	slli	a5,a5,0x10
    15ae:	83c1                	srli	a5,a5,0x10
    15b0:	40f71623          	sh	a5,1036(a4)
    15b4:	bd7fe06f          	j	18a <__riscv_restore_4>
    15b8:	00148793          	addi	a5,s1,1
    15bc:	00f92c23          	sw	a5,24(s2)
    15c0:	7d000793          	li	a5,2000
    15c4:	fc97fde3          	bgeu	a5,s1,159e <commutation_and_degauss_callback+0x82>
    15c8:	4791                	li	a5,4
    15ca:	00f90023          	sb	a5,0(s2)
    15ce:	bfc1                	j	159e <commutation_and_degauss_callback+0x82>

000015d0 <commutation_time_out_callback>:
    15d0:	8a818793          	addi	a5,gp,-1880 # 20000118 <motor>
    15d4:	2394                	lbu	a3,0(a5)
    15d6:	470d                	li	a4,3
    15d8:	00e69a63          	bne	a3,a4,15ec <commutation_time_out_callback+0x1c>
    15dc:	53d4                	lw	a3,36(a5)
    15de:	0d200713          	li	a4,210
    15e2:	02d77063          	bgeu	a4,a3,1602 <commutation_time_out_callback+0x32>
    15e6:	4711                	li	a4,4
    15e8:	a398                	sb	a4,0(a5)
    15ea:	8082                	ret
    15ec:	40001737          	lui	a4,0x40001
    15f0:	80c75783          	lhu	a5,-2036(a4) # 4000080c <_eusrstack+0x1fffb80c>
    15f4:	07c2                	slli	a5,a5,0x10
    15f6:	83c1                	srli	a5,a5,0x10
    15f8:	9bf9                	andi	a5,a5,-2
    15fa:	07c2                	slli	a5,a5,0x10
    15fc:	83c1                	srli	a5,a5,0x10
    15fe:	80f71623          	sh	a5,-2036(a4)
    1602:	8082                	ret

00001604 <opama_callback>:
    1604:	400017b7          	lui	a5,0x40001
    1608:	8247d683          	lhu	a3,-2012(a5) # 40000824 <_eusrstack+0x1fffb824>
    160c:	4631                	li	a2,12
    160e:	06c2                	slli	a3,a3,0x10
    1610:	82c1                	srli	a3,a3,0x10
    1612:	88d19123          	sh	a3,-1918(gp) # 200000f2 <temp_commutation_time>
    1616:	8a818793          	addi	a5,gp,-1880 # 20000118 <motor>
    161a:	4fd8                	lw	a4,28(a5)
    161c:	02c75633          	divu	a2,a4,a2
    1620:	00c6f763          	bgeu	a3,a2,162e <opama_callback+0x2a>
    1624:	53d4                	lw	a3,36(a5)
    1626:	0d200793          	li	a5,210
    162a:	02d7e963          	bltu	a5,a3,165c <opama_callback+0x58>
    162e:	400017b7          	lui	a5,0x40001
    1632:	8311                	srli	a4,a4,0x4
    1634:	82079223          	sh	zero,-2012(a5) # 40000824 <_eusrstack+0x1fffb824>
    1638:	0742                	slli	a4,a4,0x10
    163a:	400007b7          	lui	a5,0x40000
    163e:	42079223          	sh	zero,1060(a5) # 40000424 <_eusrstack+0x1fffb424>
    1642:	8341                	srli	a4,a4,0x10
    1644:	42e79623          	sh	a4,1068(a5)
    1648:	40079823          	sh	zero,1040(a5)
    164c:	40c7d703          	lhu	a4,1036(a5)
    1650:	00176713          	ori	a4,a4,1
    1654:	40e79623          	sh	a4,1036(a5)
    1658:	1270006f          	j	1f7e <disable_opama_interrupts>
    165c:	8082                	ret

0000165e <pit_callback>:
    165e:	b13fe2ef          	jal	t0,170 <__riscv_save_0>
    1662:	8a818793          	addi	a5,gp,-1880 # 20000118 <motor>
    1666:	2398                	lbu	a4,0(a5)
    1668:	4799                	li	a5,6
    166a:	8a818413          	addi	s0,gp,-1880 # 20000118 <motor>
    166e:	00f70663          	beq	a4,a5,167a <pit_callback+0x1c>
    1672:	481c                	lw	a5,16(s0)
    1674:	e385                	bnez	a5,1694 <pit_callback+0x36>
    1676:	00040023          	sb	zero,0(s0)
    167a:	2018                	lbu	a4,0(s0)
    167c:	4699                	li	a3,6
    167e:	0ff77793          	zext.b	a5,a4
    1682:	0ce6ee63          	bltu	a3,a4,175e <pit_callback+0x100>
    1686:	6719                	lui	a4,0x6
    1688:	078a                	slli	a5,a5,0x2
    168a:	05c70713          	addi	a4,a4,92 # 605c <_exit+0x3e>
    168e:	97ba                	add	a5,a5,a4
    1690:	439c                	lw	a5,0(a5)
    1692:	8782                	jr	a5
    1694:	201c                	lbu	a5,0(s0)
    1696:	f3f5                	bnez	a5,167a <pit_callback+0x1c>
    1698:	4785                	li	a5,1
    169a:	a01c                	sb	a5,0(s0)
    169c:	bff9                	j	167a <pit_callback+0x1c>
    169e:	8881d503          	lhu	a0,-1912(gp) # 200000f8 <battery>
    16a2:	400014b7          	lui	s1,0x40001
    16a6:	80048493          	addi	s1,s1,-2048 # 40000800 <_eusrstack+0x1fffb800>
    16aa:	5c6030ef          	jal	ra,4c70 <srand>
    16ae:	40013737          	lui	a4,0x40013
    16b2:	c0c75783          	lhu	a5,-1012(a4) # 40012c0c <_eusrstack+0x2000dc0c>
    16b6:	07c2                	slli	a5,a5,0x10
    16b8:	83c1                	srli	a5,a5,0x10
    16ba:	9bf9                	andi	a5,a5,-2
    16bc:	07c2                	slli	a5,a5,0x10
    16be:	83c1                	srli	a5,a5,0x10
    16c0:	c0f71623          	sh	a5,-1012(a4)
    16c4:	40000737          	lui	a4,0x40000
    16c8:	40c75783          	lhu	a5,1036(a4) # 4000040c <_eusrstack+0x1fffb40c>
    16cc:	07c2                	slli	a5,a5,0x10
    16ce:	83c1                	srli	a5,a5,0x10
    16d0:	9bf9                	andi	a5,a5,-2
    16d2:	07c2                	slli	a5,a5,0x10
    16d4:	83c1                	srli	a5,a5,0x10
    16d6:	40f71623          	sh	a5,1036(a4)
    16da:	24de                	lhu	a5,12(s1)
    16dc:	07c2                	slli	a5,a5,0x10
    16de:	83c1                	srli	a5,a5,0x10
    16e0:	9bf9                	andi	a5,a5,-2
    16e2:	07c2                	slli	a5,a5,0x10
    16e4:	83c1                	srli	a5,a5,0x10
    16e6:	a4de                	sh	a5,12(s1)
    16e8:	097000ef          	jal	ra,1f7e <disable_opama_interrupts>
    16ec:	30c6                	lhu	s1,36(s1)
    16ee:	5f2030ef          	jal	ra,4ce0 <rand>
    16f2:	03200793          	li	a5,50
    16f6:	02f56533          	rem	a0,a0,a5
    16fa:	7d000793          	li	a5,2000
    16fe:	04c2                	slli	s1,s1,0x10
    1700:	80c1                	srli	s1,s1,0x10
    1702:	0529                	addi	a0,a0,10 # e100a <_data_lma+0xdabd2>
    1704:	02f50533          	mul	a0,a0,a5
    1708:	04955b63          	bge	a0,s1,175e <pit_callback+0x100>
    170c:	88818913          	addi	s2,gp,-1912 # 200000f8 <battery>
    1710:	00295503          	lhu	a0,2(s2)
    1714:	0dc030ef          	jal	ra,47f0 <__floatunsisf>
    1718:	8641a583          	lw	a1,-1948(gp) # 200000d4 <_impure_ptr+0x54>
    171c:	528020ef          	jal	ra,3c44 <__divsf3>
    1720:	85aa                	mv	a1,a0
    1722:	8681a503          	lw	a0,-1944(gp) # 200000d8 <_impure_ptr+0x58>
    1726:	51e020ef          	jal	ra,3c44 <__divsf3>
    172a:	79b020ef          	jal	ra,46c4 <__fixsfsi>
    172e:	07800793          	li	a5,120
    1732:	00f55463          	bge	a0,a5,173a <pit_callback+0xdc>
    1736:	07800513          	li	a0,120
    173a:	c848                	sw	a0,20(s0)
    173c:	0542                	slli	a0,a0,0x10
    173e:	8141                	srli	a0,a0,0x10
    1740:	357000ef          	jal	ra,2296 <pwm_duty_update>
    1744:	400017b7          	lui	a5,0x40001
    1748:	82079223          	sh	zero,-2012(a5) # 40000824 <_eusrstack+0x1fffb824>
    174c:	21c5                	jal	1c2c <motor_start>
    174e:	4501                	li	a0,0
    1750:	2339                	jal	1c5e <motor_next_step>
    1752:	88019023          	sh	zero,-1920(gp) # 200000f0 <stall_time_out_check.4>
    1756:	00042e23          	sw	zero,28(s0)
    175a:	4789                	li	a5,2
    175c:	a01c                	sb	a5,0(s0)
    175e:	a37fe06f          	j	194 <__riscv_restore_0>
    1762:	400017b7          	lui	a5,0x40001
    1766:	8247d703          	lhu	a4,-2012(a5) # 40000824 <_eusrstack+0x1fffb824>
    176a:	400117b7          	lui	a5,0x40011
    176e:	80078793          	addi	a5,a5,-2048 # 40010800 <_eusrstack+0x2000b800>
    1772:	4794                	lw	a3,8(a5)
    1774:	87e1c783          	lbu	a5,-1922(gp) # 200000ee <gpio_state.3>
    1778:	8289                	srli	a3,a3,0x2
    177a:	8a85                	andi	a3,a3,1
    177c:	0786                	slli	a5,a5,0x1
    177e:	8fd5                	or	a5,a5,a3
    1780:	3014                	lbu	a3,1(s0)
    1782:	0ff7f793          	zext.b	a5,a5
    1786:	0742                	slli	a4,a4,0x10
    1788:	86f18f23          	sb	a5,-1922(gp) # 200000ee <gpio_state.3>
    178c:	0016f593          	andi	a1,a3,1
    1790:	8341                	srli	a4,a4,0x10
    1792:	cda9                	beqz	a1,17ec <pit_callback+0x18e>
    1794:	cbf9                	beqz	a5,186a <pit_callback+0x20c>
    1796:	8801d783          	lhu	a5,-1920(gp) # 200000f0 <stall_time_out_check.4>
    179a:	7d000713          	li	a4,2000
    179e:	0cf77863          	bgeu	a4,a5,186e <pit_callback+0x210>
    17a2:	4791                	li	a5,4
    17a4:	88019023          	sh	zero,-1920(gp) # 200000f0 <stall_time_out_check.4>
    17a8:	02042223          	sw	zero,36(s0)
    17ac:	a01c                	sb	a5,0(s0)
    17ae:	400014b7          	lui	s1,0x40001
    17b2:	8244d903          	lhu	s2,-2012(s1) # 40000824 <_eusrstack+0x1fffb824>
    17b6:	52a030ef          	jal	ra,4ce0 <rand>
    17ba:	47f9                	li	a5,30
    17bc:	02f56533          	rem	a0,a0,a5
    17c0:	7d000793          	li	a5,2000
    17c4:	0942                	slli	s2,s2,0x10
    17c6:	01095913          	srli	s2,s2,0x10
    17ca:	80048493          	addi	s1,s1,-2048
    17ce:	0551                	addi	a0,a0,20
    17d0:	02f50533          	mul	a0,a0,a5
    17d4:	f92555e3          	bge	a0,s2,175e <pit_callback+0x100>
    17d8:	2018                	lbu	a4,0(s0)
    17da:	4789                	li	a5,2
    17dc:	f8f711e3          	bne	a4,a5,175e <pit_callback+0x100>
    17e0:	02049223          	sh	zero,36(s1)
    17e4:	4501                	li	a0,0
    17e6:	29a5                	jal	1c5e <motor_next_step>
    17e8:	4785                	li	a5,1
    17ea:	bf8d                	j	175c <pit_callback+0xfe>
    17ec:	0ff00593          	li	a1,255
    17f0:	fab793e3          	bne	a5,a1,1796 <pit_callback+0x138>
    17f4:	0fc00793          	li	a5,252
    17f8:	86f18f23          	sb	a5,-1922(gp) # 200000ee <gpio_state.3>
    17fc:	40001637          	lui	a2,0x40001
    1800:	00169793          	slli	a5,a3,0x1
    1804:	88019023          	sh	zero,-1920(gp) # 200000f0 <stall_time_out_check.4>
    1808:	82061223          	sh	zero,-2012(a2) # 40000824 <_eusrstack+0x1fffb824>
    180c:	97a2                	add	a5,a5,s0
    180e:	500c                	lw	a1,32(s0)
    1810:	23b6                	lhu	a3,2(a5)
    1812:	a3ba                	sh	a4,2(a5)
    1814:	505c                	lw	a5,36(s0)
    1816:	972e                	add	a4,a4,a1
    1818:	8f15                	sub	a4,a4,a3
    181a:	4c54                	lw	a3,28(s0)
    181c:	0785                	addi	a5,a5,1
    181e:	d05c                	sw	a5,36(s0)
    1820:	478d                	li	a5,3
    1822:	02d787b3          	mul	a5,a5,a3
    1826:	d018                	sw	a4,32(s0)
    1828:	80060613          	addi	a2,a2,-2048
    182c:	97ba                	add	a5,a5,a4
    182e:	8389                	srli	a5,a5,0x2
    1830:	4761                	li	a4,24
    1832:	cc5c                	sw	a5,28(s0)
    1834:	02e7d7b3          	divu	a5,a5,a4
    1838:	325a                	lhu	a4,36(a2)
    183a:	fef76fe3          	bltu	a4,a5,1838 <pit_callback+0x1da>
    183e:	4501                	li	a0,0
    1840:	2939                	jal	1c5e <motor_next_step>
    1842:	5058                	lw	a4,36(s0)
    1844:	04600793          	li	a5,70
    1848:	f6e7f3e3          	bgeu	a5,a4,17ae <pit_callback+0x150>
    184c:	4c58                	lw	a4,28(s0)
    184e:	67a9                	lui	a5,0xa
    1850:	c3f78793          	addi	a5,a5,-961 # 9c3f <_data_lma+0x3807>
    1854:	f4e7ede3          	bltu	a5,a4,17ae <pit_callback+0x150>
    1858:	478d                	li	a5,3
    185a:	02042223          	sw	zero,36(s0)
    185e:	88019023          	sh	zero,-1920(gp) # 200000f0 <stall_time_out_check.4>
    1862:	a01c                	sb	a5,0(s0)
    1864:	72e000ef          	jal	ra,1f92 <enable_opama_interrupts>
    1868:	b799                	j	17ae <pit_callback+0x150>
    186a:	478d                	li	a5,3
    186c:	b771                	j	17f8 <pit_callback+0x19a>
    186e:	0785                	addi	a5,a5,1
    1870:	88f19023          	sh	a5,-1920(gp) # 200000f0 <stall_time_out_check.4>
    1874:	b7f9                	j	1842 <pit_callback+0x1e4>
    1876:	400117b7          	lui	a5,0x40011
    187a:	80078793          	addi	a5,a5,-2048 # 40010800 <_eusrstack+0x2000b800>
    187e:	4798                	lw	a4,8(a5)
    1880:	87d1c603          	lbu	a2,-1923(gp) # 200000ed <oled_pin_state.2>
    1884:	8b11                	andi	a4,a4,4
    1886:	02e60263          	beq	a2,a4,18aa <pit_callback+0x24c>
    188a:	88019023          	sh	zero,-1920(gp) # 200000f0 <stall_time_out_check.4>
    188e:	86e18ea3          	sb	a4,-1923(gp) # 200000ed <oled_pin_state.2>
    1892:	5058                	lw	a4,36(s0)
    1894:	0d100793          	li	a5,209
    1898:	02e7ec63          	bltu	a5,a4,18d0 <pit_callback+0x272>
    189c:	4858                	lw	a4,20(s0)
    189e:	47f5                	li	a5,29
    18a0:	02e7c463          	blt	a5,a4,18c8 <pit_callback+0x26a>
    18a4:	47f9                	li	a5,30
    18a6:	c85c                	sw	a5,20(s0)
    18a8:	a025                	j	18d0 <pit_callback+0x272>
    18aa:	8801d703          	lhu	a4,-1920(gp) # 200000f0 <stall_time_out_check.4>
    18ae:	7d000693          	li	a3,2000
    18b2:	00e6e663          	bltu	a3,a4,18be <pit_callback+0x260>
    18b6:	0705                	addi	a4,a4,1
    18b8:	88e19023          	sh	a4,-1920(gp) # 200000f0 <stall_time_out_check.4>
    18bc:	bfd9                	j	1892 <pit_callback+0x234>
    18be:	88019023          	sh	zero,-1920(gp) # 200000f0 <stall_time_out_check.4>
    18c2:	4791                	li	a5,4
    18c4:	a01c                	sb	a5,0(s0)
    18c6:	b7f1                	j	1892 <pit_callback+0x234>
    18c8:	27600793          	li	a5,630
    18cc:	fce7cde3          	blt	a5,a4,18a6 <pit_callback+0x248>
    18d0:	4808                	lw	a0,16(s0)
    18d2:	485c                	lw	a5,20(s0)
    18d4:	e8f505e3          	beq	a0,a5,175e <pit_callback+0x100>
    18d8:	00055463          	bgez	a0,18e0 <pit_callback+0x282>
    18dc:	00042a23          	sw	zero,20(s0)
    18e0:	485c                	lw	a5,20(s0)
    18e2:	00a7d463          	bge	a5,a0,18ea <pit_callback+0x28c>
    18e6:	00578513          	addi	a0,a5,5
    18ea:	c848                	sw	a0,20(s0)
    18ec:	0542                	slli	a0,a0,0x10
    18ee:	8141                	srli	a0,a0,0x10
    18f0:	1a7000ef          	jal	ra,2296 <pwm_duty_update>
    18f4:	b5ad                	j	175e <pit_callback+0x100>
    18f6:	87c1c703          	lbu	a4,-1924(gp) # 200000ec <restart_count.1>
    18fa:	47cd                	li	a5,19
    18fc:	00e7e463          	bltu	a5,a4,1904 <pit_callback+0x2a6>
    1900:	4795                	li	a5,5
    1902:	a01c                	sb	a5,0(s0)
    1904:	06400513          	li	a0,100
    1908:	2169                	jal	1d92 <motor_stop>
    190a:	bd91                	j	175e <pit_callback+0x100>
    190c:	87c1c783          	lbu	a5,-1924(gp) # 200000ec <restart_count.1>
    1910:	474d                	li	a4,19
    1912:	e4f766e3          	bltu	a4,a5,175e <pit_callback+0x100>
    1916:	80c19703          	lh	a4,-2036(gp) # 2000007c <restart_delay.0>
    191a:	00074663          	bltz	a4,1926 <pit_callback+0x2c8>
    191e:	177d                	addi	a4,a4,-1
    1920:	80e19623          	sh	a4,-2036(gp) # 2000007c <restart_delay.0>
    1924:	bd2d                	j	175e <pit_callback+0x100>
    1926:	3e800713          	li	a4,1000
    192a:	0785                	addi	a5,a5,1
    192c:	80e19623          	sh	a4,-2036(gp) # 2000007c <restart_delay.0>
    1930:	86f18e23          	sb	a5,-1924(gp) # 200000ec <restart_count.1>
    1934:	00040023          	sb	zero,0(s0)
    1938:	b51d                	j	175e <pit_callback+0x100>

0000193a <PID_Init>:
    193a:	7179                	addi	sp,sp,-48
    193c:	cc22                	sw	s0,24(sp)
    193e:	842a                	mv	s0,a0
    1940:	852e                	mv	a0,a1
    1942:	85b2                	mv	a1,a2
    1944:	ce06                	sw	ra,28(sp)
    1946:	ca26                	sw	s1,20(sp)
    1948:	c84a                	sw	s2,16(sp)
    194a:	c64e                	sw	s3,12(sp)
    194c:	c452                	sw	s4,8(sp)
    194e:	893e                	mv	s2,a5
    1950:	8a36                	mv	s4,a3
    1952:	89ba                	mv	s3,a4
    1954:	84c2                	mv	s1,a6
    1956:	d646                	sw	a7,44(sp)
    1958:	7fb020ef          	jal	ra,4952 <__truncdfsf2>
    195c:	c008                	sw	a0,0(s0)
    195e:	85ce                	mv	a1,s3
    1960:	8552                	mv	a0,s4
    1962:	7f1020ef          	jal	ra,4952 <__truncdfsf2>
    1966:	c048                	sw	a0,4(s0)
    1968:	85a6                	mv	a1,s1
    196a:	854a                	mv	a0,s2
    196c:	7e7020ef          	jal	ra,4952 <__truncdfsf2>
    1970:	55c2                	lw	a1,48(sp)
    1972:	c408                	sw	a0,8(s0)
    1974:	5532                	lw	a0,44(sp)
    1976:	7dd020ef          	jal	ra,4952 <__truncdfsf2>
    197a:	00000793          	li	a5,0
    197e:	40f2                	lw	ra,28(sp)
    1980:	c448                	sw	a0,12(s0)
    1982:	c81c                	sw	a5,16(s0)
    1984:	c85c                	sw	a5,20(s0)
    1986:	cc1c                	sw	a5,24(s0)
    1988:	cc5c                	sw	a5,28(s0)
    198a:	4462                	lw	s0,24(sp)
    198c:	44d2                	lw	s1,20(sp)
    198e:	4942                	lw	s2,16(sp)
    1990:	49b2                	lw	s3,12(sp)
    1992:	4a22                	lw	s4,8(sp)
    1994:	6145                	addi	sp,sp,48
    1996:	8082                	ret

00001998 <PID_Calculate>:
    1998:	fbefe2ef          	jal	t0,156 <__riscv_save_4>
    199c:	842a                	mv	s0,a0
    199e:	4108                	lw	a0,0(a0)
    19a0:	199020ef          	jal	ra,4338 <__subsf3>
    19a4:	85aa                	mv	a1,a0
    19a6:	84aa                	mv	s1,a0
    19a8:	4c08                	lw	a0,24(s0)
    19aa:	733010ef          	jal	ra,38dc <__addsf3>
    19ae:	cc08                	sw	a0,24(s0)
    19b0:	00000593          	li	a1,0
    19b4:	8526                	mv	a0,s1
    19b6:	01042903          	lw	s2,16(s0)
    19ba:	574020ef          	jal	ra,3f2e <__gesf2>
    19be:	00a05963          	blez	a0,19d0 <PID_Calculate+0x38>
    19c2:	00000593          	li	a1,0
    19c6:	854a                	mv	a0,s2
    19c8:	5fc020ef          	jal	ra,3fc4 <__lesf2>
    19cc:	02054063          	bltz	a0,19ec <PID_Calculate+0x54>
    19d0:	00000593          	li	a1,0
    19d4:	8526                	mv	a0,s1
    19d6:	5ee020ef          	jal	ra,3fc4 <__lesf2>
    19da:	00055c63          	bgez	a0,19f2 <PID_Calculate+0x5a>
    19de:	00000593          	li	a1,0
    19e2:	854a                	mv	a0,s2
    19e4:	54a020ef          	jal	ra,3f2e <__gesf2>
    19e8:	00a05563          	blez	a0,19f2 <PID_Calculate+0x5a>
    19ec:	00000793          	li	a5,0
    19f0:	cc1c                	sw	a5,24(s0)
    19f2:	4c0c                	lw	a1,24(s0)
    19f4:	4408                	lw	a0,8(s0)
    19f6:	666020ef          	jal	ra,405c <__mulsf3>
    19fa:	404c                	lw	a1,4(s0)
    19fc:	89aa                	mv	s3,a0
    19fe:	8526                	mv	a0,s1
    1a00:	65c020ef          	jal	ra,405c <__mulsf3>
    1a04:	85aa                	mv	a1,a0
    1a06:	854e                	mv	a0,s3
    1a08:	6d5010ef          	jal	ra,38dc <__addsf3>
    1a0c:	89aa                	mv	s3,a0
    1a0e:	85ca                	mv	a1,s2
    1a10:	8526                	mv	a0,s1
    1a12:	127020ef          	jal	ra,4338 <__subsf3>
    1a16:	444c                	lw	a1,12(s0)
    1a18:	644020ef          	jal	ra,405c <__mulsf3>
    1a1c:	85aa                	mv	a1,a0
    1a1e:	854e                	mv	a0,s3
    1a20:	6bd010ef          	jal	ra,38dc <__addsf3>
    1a24:	cc48                	sw	a0,28(s0)
    1a26:	00000593          	li	a1,0
    1a2a:	59a020ef          	jal	ra,3fc4 <__lesf2>
    1a2e:	02a04563          	bgtz	a0,1a58 <PID_Calculate+0xc0>
    1a32:	5008                	lw	a0,32(s0)
    1a34:	00000593          	li	a1,0
    1a38:	8791c983          	lbu	s3,-1927(gp) # 200000e9 <clac_flag>
    1a3c:	588020ef          	jal	ra,3fc4 <__lesf2>
    1a40:	00a04663          	bgtz	a0,1a4c <PID_Calculate+0xb4>
    1a44:	00000793          	li	a5,0
    1a48:	00098763          	beqz	s3,1a56 <PID_Calculate+0xbe>
    1a4c:	4785                	li	a5,1
    1a4e:	00f99563          	bne	s3,a5,1a58 <PID_Calculate+0xc0>
    1a52:	86c1a783          	lw	a5,-1940(gp) # 200000dc <_impure_ptr+0x5c>
    1a56:	cc5c                	sw	a5,28(s0)
    1a58:	4c5c                	lw	a5,28(s0)
    1a5a:	01242a23          	sw	s2,20(s0)
    1a5e:	c804                	sw	s1,16(s0)
    1a60:	d01c                	sw	a5,32(s0)
    1a62:	f28fe06f          	j	18a <__riscv_restore_4>

00001a66 <pit_init>:
    1a66:	e000f7b7          	lui	a5,0xe000f
    1a6a:	0007a023          	sw	zero,0(a5) # e000f000 <_eusrstack+0xc000a000>
    1a6e:	0007a223          	sw	zero,4(a5)
    1a72:	4681                	li	a3,0
    1a74:	c794                	sw	a3,8(a5)
    1a76:	4701                	li	a4,0
    1a78:	c7d8                	sw	a4,12(a5)
    1a7a:	20000737          	lui	a4,0x20000
    1a7e:	07872583          	lw	a1,120(a4) # 20000078 <SystemCoreClock>
    1a82:	6709                	lui	a4,0x2
    1a84:	71070713          	addi	a4,a4,1808 # 2710 <pwm_an_bn_cn_off+0x84>
    1a88:	02e5d633          	divu	a2,a1,a4
    1a8c:	4681                	li	a3,0
    1a8e:	473d                	li	a4,15
    1a90:	cb90                	sw	a2,16(a5)
    1a92:	cbd4                	sw	a3,20(a5)
    1a94:	c398                	sw	a4,0(a5)
    1a96:	e000e7b7          	lui	a5,0xe000e
    1a9a:	5701                	li	a4,-32
    1a9c:	40e78623          	sb	a4,1036(a5) # e000e40c <_eusrstack+0xc000940c>
    1aa0:	6705                	lui	a4,0x1
    1aa2:	10e7a023          	sw	a4,256(a5)
    1aa6:	8082                	ret

00001aa8 <advance_commutation_count_init>:
    1aa8:	ec8fe2ef          	jal	t0,170 <__riscv_save_0>
    1aac:	1141                	addi	sp,sp,-16
    1aae:	4585                	li	a1,1
    1ab0:	4509                	li	a0,2
    1ab2:	e57fe0ef          	jal	ra,908 <RCC_APB1PeriphClockCmd>
    1ab6:	57fd                	li	a5,-1
    1ab8:	847c                	sh	a5,8(sp)
    1aba:	200007b7          	lui	a5,0x20000
    1abe:	0787a783          	lw	a5,120(a5) # 20000078 <SystemCoreClock>
    1ac2:	001e8737          	lui	a4,0x1e8
    1ac6:	48070713          	addi	a4,a4,1152 # 1e8480 <_data_lma+0x1e2048>
    1aca:	02e7d7b3          	divu	a5,a5,a4
    1ace:	40000437          	lui	s0,0x40000
    1ad2:	004c                	addi	a1,sp,4
    1ad4:	40040513          	addi	a0,s0,1024 # 40000400 <_eusrstack+0x1fffb400>
    1ad8:	00011323          	sh	zero,6(sp)
    1adc:	00011523          	sh	zero,10(sp)
    1ae0:	00011623          	sh	zero,12(sp)
    1ae4:	17fd                	addi	a5,a5,-1
    1ae6:	827c                	sh	a5,4(sp)
    1ae8:	fe5fe0ef          	jal	ra,acc <TIM_TimeBaseInit>
    1aec:	40040513          	addi	a0,s0,1024
    1af0:	4585                	li	a1,1
    1af2:	dd0ff0ef          	jal	ra,10c2 <TIM_ClearITPendingBit>
    1af6:	4605                	li	a2,1
    1af8:	40040513          	addi	a0,s0,1024
    1afc:	4585                	li	a1,1
    1afe:	aeaff0ef          	jal	ra,de8 <TIM_ITConfig>
    1b02:	e000e7b7          	lui	a5,0xe000e
    1b06:	420786a3          	sb	zero,1069(a5) # e000e42d <_eusrstack+0xc000942d>
    1b0a:	6709                	lui	a4,0x2
    1b0c:	10e7a223          	sw	a4,260(a5)
    1b10:	4585                	li	a1,1
    1b12:	40040513          	addi	a0,s0,1024
    1b16:	aa4ff0ef          	jal	ra,dba <TIM_Cmd>
    1b1a:	0141                	addi	sp,sp,16
    1b1c:	e78fe06f          	j	194 <__riscv_restore_0>

00001b20 <commutation_time_count_init>:
    1b20:	e50fe2ef          	jal	t0,170 <__riscv_save_0>
    1b24:	1141                	addi	sp,sp,-16
    1b26:	4585                	li	a1,1
    1b28:	4511                	li	a0,4
    1b2a:	ddffe0ef          	jal	ra,908 <RCC_APB1PeriphClockCmd>
    1b2e:	57fd                	li	a5,-1
    1b30:	847c                	sh	a5,8(sp)
    1b32:	200007b7          	lui	a5,0x20000
    1b36:	0787a783          	lw	a5,120(a5) # 20000078 <SystemCoreClock>
    1b3a:	001e8737          	lui	a4,0x1e8
    1b3e:	48070713          	addi	a4,a4,1152 # 1e8480 <_data_lma+0x1e2048>
    1b42:	02e7d7b3          	divu	a5,a5,a4
    1b46:	40001437          	lui	s0,0x40001
    1b4a:	004c                	addi	a1,sp,4
    1b4c:	80040513          	addi	a0,s0,-2048 # 40000800 <_eusrstack+0x1fffb800>
    1b50:	00011323          	sh	zero,6(sp)
    1b54:	00011523          	sh	zero,10(sp)
    1b58:	00011623          	sh	zero,12(sp)
    1b5c:	17fd                	addi	a5,a5,-1
    1b5e:	827c                	sh	a5,4(sp)
    1b60:	f6dfe0ef          	jal	ra,acc <TIM_TimeBaseInit>
    1b64:	80040513          	addi	a0,s0,-2048
    1b68:	4585                	li	a1,1
    1b6a:	d58ff0ef          	jal	ra,10c2 <TIM_ClearITPendingBit>
    1b6e:	4605                	li	a2,1
    1b70:	80040513          	addi	a0,s0,-2048
    1b74:	4585                	li	a1,1
    1b76:	a72ff0ef          	jal	ra,de8 <TIM_ITConfig>
    1b7a:	e000e7b7          	lui	a5,0xe000e
    1b7e:	4709                	li	a4,2
    1b80:	42e78723          	sb	a4,1070(a5) # e000e42e <_eusrstack+0xc000942e>
    1b84:	6711                	lui	a4,0x4
    1b86:	10e7a223          	sw	a4,260(a5)
    1b8a:	4585                	li	a1,1
    1b8c:	80040513          	addi	a0,s0,-2048
    1b90:	a2aff0ef          	jal	ra,dba <TIM_Cmd>
    1b94:	0141                	addi	sp,sp,16
    1b96:	dfefe06f          	j	194 <__riscv_restore_0>

00001b9a <set_vector_table_free>:
    1b9a:	e000e7b7          	lui	a5,0xe000e
    1b9e:	4761                	li	a4,24
    1ba0:	04e78823          	sb	a4,80(a5) # e000e050 <_eusrstack+0xc0009050>
    1ba4:	6705                	lui	a4,0x1
    1ba6:	33a70713          	addi	a4,a4,826 # 133a <EXTI2_IRQHandler>
    1baa:	00176713          	ori	a4,a4,1
    1bae:	d3b8                	sw	a4,96(a5)
    1bb0:	02d00713          	li	a4,45
    1bb4:	04e788a3          	sb	a4,81(a5)
    1bb8:	6705                	lui	a4,0x1
    1bba:	31670713          	addi	a4,a4,790 # 1316 <TIM3_IRQHandler>
    1bbe:	00176713          	ori	a4,a4,1
    1bc2:	d3f8                	sw	a4,100(a5)
    1bc4:	02900713          	li	a4,41
    1bc8:	04e78923          	sb	a4,82(a5)
    1bcc:	1f000713          	li	a4,496
    1bd0:	00176713          	ori	a4,a4,1
    1bd4:	d7b8                	sw	a4,104(a5)
    1bd6:	4731                	li	a4,12
    1bd8:	04e789a3          	sb	a4,83(a5)
    1bdc:	6705                	lui	a4,0x1
    1bde:	21e70713          	addi	a4,a4,542 # 121e <SysTick_Handler>
    1be2:	00176713          	ori	a4,a4,1
    1be6:	d7f8                	sw	a4,108(a5)
    1be8:	8082                	ret

00001bea <motor_commutation_execute>:
    1bea:	4715                	li	a4,5
    1bec:	87aa                	mv	a5,a0
    1bee:	02a76e63          	bltu	a4,a0,1c2a <motor_commutation_execute+0x40>
    1bf2:	d7efe2ef          	jal	t0,170 <__riscv_save_0>
    1bf6:	6719                	lui	a4,0x6
    1bf8:	078a                	slli	a5,a5,0x2
    1bfa:	07870713          	addi	a4,a4,120 # 6078 <_exit+0x5a>
    1bfe:	97ba                	add	a5,a5,a4
    1c00:	439c                	lw	a5,0(a5)
    1c02:	852e                	mv	a0,a1
    1c04:	8782                	jr	a5
    1c06:	2d6d                	jal	22c0 <pwm_a_bn_output>
    1c08:	d8cfe06f          	j	194 <__riscv_restore_0>
    1c0c:	756000ef          	jal	ra,2362 <pwm_a_cn_output>
    1c10:	bfe5                	j	1c08 <motor_commutation_execute+0x1e>
    1c12:	7f2000ef          	jal	ra,2404 <pwm_b_cn_output>
    1c16:	bfcd                	j	1c08 <motor_commutation_execute+0x1e>
    1c18:	08d000ef          	jal	ra,24a4 <pwm_b_an_output>
    1c1c:	b7f5                	j	1c08 <motor_commutation_execute+0x1e>
    1c1e:	127000ef          	jal	ra,2544 <pwm_c_an_output>
    1c22:	b7dd                	j	1c08 <motor_commutation_execute+0x1e>
    1c24:	1c5000ef          	jal	ra,25e8 <pwm_c_bn_output>
    1c28:	b7c5                	j	1c08 <motor_commutation_execute+0x1e>
    1c2a:	8082                	ret

00001c2c <motor_start>:
    1c2c:	8a818793          	addi	a5,gp,-1880 # 20000118 <motor>
    1c30:	4705                	li	a4,1
    1c32:	a398                	sb	a4,0(a5)
    1c34:	6705                	lui	a4,0x1
    1c36:	77070713          	addi	a4,a4,1904 # 1770 <pit_callback+0x112>
    1c3a:	a3ba                	sh	a4,2(a5)
    1c3c:	177016b7          	lui	a3,0x17701
    1c40:	a7da                	sh	a4,12(a5)
    1c42:	6725                	lui	a4,0x9
    1c44:	77068693          	addi	a3,a3,1904 # 17701770 <_data_lma+0x176fb338>
    1c48:	ca070713          	addi	a4,a4,-864 # 8ca0 <_data_lma+0x2868>
    1c4c:	c3d4                	sw	a3,4(a5)
    1c4e:	c794                	sw	a3,8(a5)
    1c50:	d398                	sw	a4,32(a5)
    1c52:	cfd8                	sw	a4,28(a5)
    1c54:	0207a223          	sw	zero,36(a5)
    1c58:	0007ac23          	sw	zero,24(a5)
    1c5c:	8082                	ret

00001c5e <motor_next_step>:
    1c5e:	d12fe2ef          	jal	t0,170 <__riscv_save_0>
    1c62:	8a818793          	addi	a5,gp,-1880 # 20000118 <motor>
    1c66:	339c                	lbu	a5,1(a5)
    1c68:	85aa                	mv	a1,a0
    1c6a:	8a818413          	addi	s0,gp,-1880 # 20000118 <motor>
    1c6e:	0785                	addi	a5,a5,1
    1c70:	0ff7f513          	zext.b	a0,a5
    1c74:	4795                	li	a5,5
    1c76:	00a7f363          	bgeu	a5,a0,1c7c <motor_next_step+0x1e>
    1c7a:	4501                	li	a0,0
    1c7c:	b008                	sb	a0,1(s0)
    1c7e:	37b5                	jal	1bea <motor_commutation_execute>
    1c80:	301c                	lbu	a5,1(s0)
    1c82:	e385                	bnez	a5,1ca2 <motor_next_step+0x44>
    1c84:	400247b7          	lui	a5,0x40024
    1c88:	07000713          	li	a4,112
    1c8c:	80e7a223          	sw	a4,-2044(a5) # 40023804 <_eusrstack+0x2001e804>
    1c90:	400107b7          	lui	a5,0x40010
    1c94:	40078793          	addi	a5,a5,1024 # 40010400 <_eusrstack+0x2000b400>
    1c98:	0007a623          	sw	zero,12(a5)
    1c9c:	4711                	li	a4,4
    1c9e:	c798                	sw	a4,8(a5)
    1ca0:	a015                	j	1cc4 <motor_next_step+0x66>
    1ca2:	470d                	li	a4,3
    1ca4:	02e79263          	bne	a5,a4,1cc8 <motor_next_step+0x6a>
    1ca8:	400247b7          	lui	a5,0x40024
    1cac:	07000713          	li	a4,112
    1cb0:	80e7a223          	sw	a4,-2044(a5) # 40023804 <_eusrstack+0x2001e804>
    1cb4:	400107b7          	lui	a5,0x40010
    1cb8:	40078793          	addi	a5,a5,1024 # 40010400 <_eusrstack+0x2000b400>
    1cbc:	0007a423          	sw	zero,8(a5)
    1cc0:	4711                	li	a4,4
    1cc2:	c7d8                	sw	a4,12(a5)
    1cc4:	cd0fe06f          	j	194 <__riscv_restore_0>
    1cc8:	4705                	li	a4,1
    1cca:	00e79663          	bne	a5,a4,1cd6 <motor_next_step+0x78>
    1cce:	400247b7          	lui	a5,0x40024
    1cd2:	4741                	li	a4,16
    1cd4:	bff1                	j	1cb0 <motor_next_step+0x52>
    1cd6:	4691                	li	a3,4
    1cd8:	00d79663          	bne	a5,a3,1ce4 <motor_next_step+0x86>
    1cdc:	400247b7          	lui	a5,0x40024
    1ce0:	4741                	li	a4,16
    1ce2:	b76d                	j	1c8c <motor_next_step+0x2e>
    1ce4:	4689                	li	a3,2
    1ce6:	00d78863          	beq	a5,a3,1cf6 <motor_next_step+0x98>
    1cea:	4695                	li	a3,5
    1cec:	00d79863          	bne	a5,a3,1cfc <motor_next_step+0x9e>
    1cf0:	400247b7          	lui	a5,0x40024
    1cf4:	bf75                	j	1cb0 <motor_next_step+0x52>
    1cf6:	400247b7          	lui	a5,0x40024
    1cfa:	bf49                	j	1c8c <motor_next_step+0x2e>
    1cfc:	8b85                	andi	a5,a5,1
    1cfe:	dbc9                	beqz	a5,1c90 <motor_next_step+0x32>
    1d00:	bf55                	j	1cb4 <motor_next_step+0x56>

00001d02 <motor_brake>:
    1d02:	40011737          	lui	a4,0x40011
    1d06:	80070793          	addi	a5,a4,-2048 # 40010800 <_eusrstack+0x2000b800>
    1d0a:	43d4                	lw	a3,4(a5)
    1d0c:	30000637          	lui	a2,0x30000
    1d10:	c0070713          	addi	a4,a4,-1024
    1d14:	9ac1                	andi	a3,a3,-16
    1d16:	c3d4                	sw	a3,4(a5)
    1d18:	43d4                	lw	a3,4(a5)
    1d1a:	0036e693          	ori	a3,a3,3
    1d1e:	c3d4                	sw	a3,4(a5)
    1d20:	10000693          	li	a3,256
    1d24:	cbd4                	sw	a3,20(a5)
    1d26:	4394                	lw	a3,0(a5)
    1d28:	0692                	slli	a3,a3,0x4
    1d2a:	8291                	srli	a3,a3,0x4
    1d2c:	c394                	sw	a3,0(a5)
    1d2e:	4394                	lw	a3,0(a5)
    1d30:	8ed1                	or	a3,a3,a2
    1d32:	c394                	sw	a3,0(a5)
    1d34:	08000693          	li	a3,128
    1d38:	cb94                	sw	a3,16(a5)
    1d3a:	43d4                	lw	a3,4(a5)
    1d3c:	767d                	lui	a2,0xfffff
    1d3e:	0ff60613          	addi	a2,a2,255 # fffff0ff <_eusrstack+0xdfffa0ff>
    1d42:	f0f6f693          	andi	a3,a3,-241
    1d46:	c3d4                	sw	a3,4(a5)
    1d48:	43d4                	lw	a3,4(a5)
    1d4a:	0306e693          	ori	a3,a3,48
    1d4e:	c3d4                	sw	a3,4(a5)
    1d50:	20000693          	li	a3,512
    1d54:	cbd4                	sw	a3,20(a5)
    1d56:	4314                	lw	a3,0(a4)
    1d58:	9ac1                	andi	a3,a3,-16
    1d5a:	c314                	sw	a3,0(a4)
    1d5c:	4314                	lw	a3,0(a4)
    1d5e:	0036e693          	ori	a3,a3,3
    1d62:	c314                	sw	a3,0(a4)
    1d64:	4685                	li	a3,1
    1d66:	cb14                	sw	a3,16(a4)
    1d68:	43d4                	lw	a3,4(a5)
    1d6a:	8ef1                	and	a3,a3,a2
    1d6c:	c3d4                	sw	a3,4(a5)
    1d6e:	43d4                	lw	a3,4(a5)
    1d70:	3006e693          	ori	a3,a3,768
    1d74:	c3d4                	sw	a3,4(a5)
    1d76:	40000693          	li	a3,1024
    1d7a:	cbd4                	sw	a3,20(a5)
    1d7c:	431c                	lw	a5,0(a4)
    1d7e:	f0f7f793          	andi	a5,a5,-241
    1d82:	c31c                	sw	a5,0(a4)
    1d84:	431c                	lw	a5,0(a4)
    1d86:	0307e793          	ori	a5,a5,48
    1d8a:	c31c                	sw	a5,0(a4)
    1d8c:	4789                	li	a5,2
    1d8e:	cb1c                	sw	a5,16(a4)
    1d90:	a319                	j	2296 <pwm_duty_update>

00001d92 <motor_stop>:
    1d92:	bf85                	j	1d02 <motor_brake>

00001d94 <motor_power_on_beep>:
    1d94:	bb4fe2ef          	jal	t0,148 <__riscv_save_10>
    1d98:	842a                	mv	s0,a0
    1d9a:	0f3000ef          	jal	ra,268c <pwm_an_bn_cn_off>
    1d9e:	400117b7          	lui	a5,0x40011
    1da2:	80078713          	addi	a4,a5,-2048 # 40010800 <_eusrstack+0x2000b800>
    1da6:	4354                	lw	a3,4(a4)
    1da8:	c0078793          	addi	a5,a5,-1024
    1dac:	20000b37          	lui	s6,0x20000
    1db0:	9ac1                	andi	a3,a3,-16
    1db2:	c354                	sw	a3,4(a4)
    1db4:	4354                	lw	a3,4(a4)
    1db6:	20b00613          	li	a2,523
    1dba:	06400993          	li	s3,100
    1dbe:	00b6e693          	ori	a3,a3,11
    1dc2:	c354                	sw	a3,4(a4)
    1dc4:	4398                	lw	a4,0(a5)
    1dc6:	9b41                	andi	a4,a4,-16
    1dc8:	c398                	sw	a4,0(a5)
    1dca:	4398                	lw	a4,0(a5)
    1dcc:	00376713          	ori	a4,a4,3
    1dd0:	c398                	sw	a4,0(a5)
    1dd2:	4705                	li	a4,1
    1dd4:	cb98                	sw	a4,16(a5)
    1dd6:	078b2503          	lw	a0,120(s6) # 20000078 <SystemCoreClock>
    1dda:	41600793          	li	a5,1046
    1dde:	02f557b3          	divu	a5,a0,a5
    1de2:	0107d693          	srli	a3,a5,0x10
    1de6:	8736                	mv	a4,a3
    1de8:	0685                	addi	a3,a3,1
    1dea:	02c686b3          	mul	a3,a3,a2
    1dee:	00155793          	srli	a5,a0,0x1
    1df2:	02d7d7b3          	divu	a5,a5,a3
    1df6:	06400693          	li	a3,100
    1dfa:	0086e363          	bltu	a3,s0,1e00 <motor_power_on_beep+0x6c>
    1dfe:	89a2                	mv	s3,s0
    1e00:	6a41                	lui	s4,0x10
    1e02:	1a7d                	addi	s4,s4,-1 # ffff <_data_lma+0x9bc7>
    1e04:	09c2                	slli	s3,s3,0x10
    1e06:	0109d993          	srli	s3,s3,0x10
    1e0a:	fff78693          	addi	a3,a5,-1
    1e0e:	0147f7b3          	and	a5,a5,s4
    1e12:	6909                	lui	s2,0x2
    1e14:	71090a93          	addi	s5,s2,1808 # 2710 <pwm_an_bn_cn_off+0x84>
    1e18:	f4090913          	addi	s2,s2,-192
    1e1c:	40013437          	lui	s0,0x40013
    1e20:	06c2                	slli	a3,a3,0x10
    1e22:	c0040413          	addi	s0,s0,-1024 # 40012c00 <_eusrstack+0x2000dc00>
    1e26:	82c1                	srli	a3,a3,0x10
    1e28:	b456                	sh	a3,44(s0)
    1e2a:	b41a                	sh	a4,40(s0)
    1e2c:	0fa00593          	li	a1,250
    1e30:	6b85                	lui	s7,0x1
    1e32:	033787b3          	mul	a5,a5,s3
    1e36:	0357d7b3          	divu	a5,a5,s5
    1e3a:	03255533          	divu	a0,a0,s2
    1e3e:	07c2                	slli	a5,a5,0x10
    1e40:	83c1                	srli	a5,a5,0x10
    1e42:	b85e                	sh	a5,52(s0)
    1e44:	02041c23          	sh	zero,56(s0)
    1e48:	02041e23          	sh	zero,60(s0)
    1e4c:	4ed000ef          	jal	ra,2b38 <system_delay>
    1e50:	03d000ef          	jal	ra,268c <pwm_an_bn_cn_off>
    1e54:	400117b7          	lui	a5,0x40011
    1e58:	80078493          	addi	s1,a5,-2048 # 40010800 <_eusrstack+0x2000b800>
    1e5c:	40d8                	lw	a4,4(s1)
    1e5e:	c0078793          	addi	a5,a5,-1024
    1e62:	24b00613          	li	a2,587
    1e66:	f0f77713          	andi	a4,a4,-241
    1e6a:	c0d8                	sw	a4,4(s1)
    1e6c:	40d8                	lw	a4,4(s1)
    1e6e:	0fa00593          	li	a1,250
    1e72:	0b076713          	ori	a4,a4,176
    1e76:	c0d8                	sw	a4,4(s1)
    1e78:	4398                	lw	a4,0(a5)
    1e7a:	f0f77713          	andi	a4,a4,-241
    1e7e:	c398                	sw	a4,0(a5)
    1e80:	4398                	lw	a4,0(a5)
    1e82:	03076713          	ori	a4,a4,48
    1e86:	c398                	sw	a4,0(a5)
    1e88:	4709                	li	a4,2
    1e8a:	cb98                	sw	a4,16(a5)
    1e8c:	078b2503          	lw	a0,120(s6)
    1e90:	49600793          	li	a5,1174
    1e94:	02f557b3          	divu	a5,a0,a5
    1e98:	0107d693          	srli	a3,a5,0x10
    1e9c:	8736                	mv	a4,a3
    1e9e:	0685                	addi	a3,a3,1
    1ea0:	02c686b3          	mul	a3,a3,a2
    1ea4:	00155793          	srli	a5,a0,0x1
    1ea8:	02d7d7b3          	divu	a5,a5,a3
    1eac:	fff78693          	addi	a3,a5,-1
    1eb0:	0147f7b3          	and	a5,a5,s4
    1eb4:	033787b3          	mul	a5,a5,s3
    1eb8:	06c2                	slli	a3,a3,0x10
    1eba:	82c1                	srli	a3,a3,0x10
    1ebc:	b456                	sh	a3,44(s0)
    1ebe:	b41a                	sh	a4,40(s0)
    1ec0:	02041a23          	sh	zero,52(s0)
    1ec4:	0357d7b3          	divu	a5,a5,s5
    1ec8:	03255533          	divu	a0,a0,s2
    1ecc:	07c2                	slli	a5,a5,0x10
    1ece:	83c1                	srli	a5,a5,0x10
    1ed0:	bc1e                	sh	a5,56(s0)
    1ed2:	02041e23          	sh	zero,60(s0)
    1ed6:	463000ef          	jal	ra,2b38 <system_delay>
    1eda:	7b2000ef          	jal	ra,268c <pwm_an_bn_cn_off>
    1ede:	40dc                	lw	a5,4(s1)
    1ee0:	777d                	lui	a4,0xfffff
    1ee2:	0ff70713          	addi	a4,a4,255 # fffff0ff <_eusrstack+0xdfffa0ff>
    1ee6:	8ff9                	and	a5,a5,a4
    1ee8:	c0dc                	sw	a5,4(s1)
    1eea:	40dc                	lw	a5,4(s1)
    1eec:	b00b8713          	addi	a4,s7,-1280 # b00 <TIM_TimeBaseInit+0x34>
    1ef0:	29300613          	li	a2,659
    1ef4:	8fd9                	or	a5,a5,a4
    1ef6:	c0dc                	sw	a5,4(s1)
    1ef8:	409c                	lw	a5,0(s1)
    1efa:	30000737          	lui	a4,0x30000
    1efe:	0fa00593          	li	a1,250
    1f02:	0792                	slli	a5,a5,0x4
    1f04:	8391                	srli	a5,a5,0x4
    1f06:	c09c                	sw	a5,0(s1)
    1f08:	409c                	lw	a5,0(s1)
    1f0a:	bb7b8b93          	addi	s7,s7,-1097
    1f0e:	8fd9                	or	a5,a5,a4
    1f10:	c09c                	sw	a5,0(s1)
    1f12:	08000793          	li	a5,128
    1f16:	c89c                	sw	a5,16(s1)
    1f18:	078b2503          	lw	a0,120(s6)
    1f1c:	52600793          	li	a5,1318
    1f20:	02f557b3          	divu	a5,a0,a5
    1f24:	0107d693          	srli	a3,a5,0x10
    1f28:	8736                	mv	a4,a3
    1f2a:	0685                	addi	a3,a3,1
    1f2c:	02c686b3          	mul	a3,a3,a2
    1f30:	00155793          	srli	a5,a0,0x1
    1f34:	02d7d7b3          	divu	a5,a5,a3
    1f38:	fff78693          	addi	a3,a5,-1
    1f3c:	0147f7b3          	and	a5,a5,s4
    1f40:	033787b3          	mul	a5,a5,s3
    1f44:	06c2                	slli	a3,a3,0x10
    1f46:	82c1                	srli	a3,a3,0x10
    1f48:	b456                	sh	a3,44(s0)
    1f4a:	b41a                	sh	a4,40(s0)
    1f4c:	02041a23          	sh	zero,52(s0)
    1f50:	02041c23          	sh	zero,56(s0)
    1f54:	0357d7b3          	divu	a5,a5,s5
    1f58:	03255533          	divu	a0,a0,s2
    1f5c:	07c2                	slli	a5,a5,0x10
    1f5e:	83c1                	srli	a5,a5,0x10
    1f60:	bc5e                	sh	a5,60(s0)
    1f62:	3d7000ef          	jal	ra,2b38 <system_delay>
    1f66:	02041423          	sh	zero,40(s0)
    1f6a:	03741623          	sh	s7,44(s0)
    1f6e:	02041a23          	sh	zero,52(s0)
    1f72:	02041c23          	sh	zero,56(s0)
    1f76:	02041e23          	sh	zero,60(s0)
    1f7a:	a06fe06f          	j	180 <__riscv_restore_10>

00001f7e <disable_opama_interrupts>:
    1f7e:	400107b7          	lui	a5,0x40010
    1f82:	40078793          	addi	a5,a5,1024 # 40010400 <_eusrstack+0x2000b400>
    1f86:	4398                	lw	a4,0(a5)
    1f88:	9b6d                	andi	a4,a4,-5
    1f8a:	c398                	sw	a4,0(a5)
    1f8c:	4711                	li	a4,4
    1f8e:	cbd8                	sw	a4,20(a5)
    1f90:	8082                	ret

00001f92 <enable_opama_interrupts>:
    1f92:	400107b7          	lui	a5,0x40010
    1f96:	40078793          	addi	a5,a5,1024 # 40010400 <_eusrstack+0x2000b400>
    1f9a:	4398                	lw	a4,0(a5)
    1f9c:	00476713          	ori	a4,a4,4
    1fa0:	c398                	sw	a4,0(a5)
    1fa2:	8082                	ret

00001fa4 <pa2_exit_init>:
    1fa4:	9ccfe2ef          	jal	t0,170 <__riscv_save_0>
    1fa8:	1141                	addi	sp,sp,-16
    1faa:	4589                	li	a1,2
    1fac:	4501                	li	a0,0
    1fae:	c002                	sw	zero,0(sp)
    1fb0:	c202                	sw	zero,4(sp)
    1fb2:	c402                	sw	zero,8(sp)
    1fb4:	c602                	sw	zero,12(sp)
    1fb6:	fecfe0ef          	jal	ra,7a2 <GPIO_EXTILineConfig>
    1fba:	4791                	li	a5,4
    1fbc:	c03e                	sw	a5,0(sp)
    1fbe:	47c1                	li	a5,16
    1fc0:	c43e                	sw	a5,8(sp)
    1fc2:	850a                	mv	a0,sp
    1fc4:	4785                	li	a5,1
    1fc6:	c63e                	sw	a5,12(sp)
    1fc8:	c202                	sw	zero,4(sp)
    1fca:	d6afe0ef          	jal	ra,534 <EXTI_Init>
    1fce:	4511                	li	a0,4
    1fd0:	dc6fe0ef          	jal	ra,596 <EXTI_ClearITPendingBit>
    1fd4:	e000e7b7          	lui	a5,0xe000e
    1fd8:	40078c23          	sb	zero,1048(a5) # e000e418 <_eusrstack+0xc0009418>
    1fdc:	01000737          	lui	a4,0x1000
    1fe0:	10e7a023          	sw	a4,256(a5)
    1fe4:	0141                	addi	sp,sp,16
    1fe6:	9aefe06f          	j	194 <__riscv_restore_0>

00001fea <opama_init>:
    1fea:	986fe2ef          	jal	t0,170 <__riscv_save_0>
    1fee:	1141                	addi	sp,sp,-16
    1ff0:	40011437          	lui	s0,0x40011
    1ff4:	02000793          	li	a5,32
    1ff8:	004c                	addi	a1,sp,4
    1ffa:	80040513          	addi	a0,s0,-2048 # 40010800 <_eusrstack+0x2000b800>
    1ffe:	827c                	sh	a5,4(sp)
    2000:	00011323          	sh	zero,6(sp)
    2004:	00011423          	sh	zero,8(sp)
    2008:	00011523          	sh	zero,10(sp)
    200c:	00011623          	sh	zero,12(sp)
    2010:	00011723          	sh	zero,14(sp)
    2014:	d8efe0ef          	jal	ra,5a2 <GPIO_Init>
    2018:	77f5                	lui	a5,0xffffd
    201a:	c0078793          	addi	a5,a5,-1024 # ffffcc00 <_eusrstack+0xdfff7c00>
    201e:	004c                	addi	a1,sp,4
    2020:	c0040513          	addi	a0,s0,-1024
    2024:	827c                	sh	a5,4(sp)
    2026:	c602                	sw	zero,12(sp)
    2028:	d7afe0ef          	jal	ra,5a2 <GPIO_Init>
    202c:	47f1                	li	a5,28
    202e:	827c                	sh	a5,4(sp)
    2030:	004c                	addi	a1,sp,4
    2032:	04800793          	li	a5,72
    2036:	80040513          	addi	a0,s0,-2048
    203a:	c63e                	sw	a5,12(sp)
    203c:	d66fe0ef          	jal	ra,5a2 <GPIO_Init>
    2040:	400247b7          	lui	a5,0x40024
    2044:	4705                	li	a4,1
    2046:	80e7a223          	sw	a4,-2044(a5) # 40023804 <_eusrstack+0x2001e804>
    204a:	0141                	addi	sp,sp,16
    204c:	948fe06f          	j	194 <__riscv_restore_0>

00002050 <pwm_input_trigger_callback>:
    2050:	920fe2ef          	jal	t0,170 <__riscv_save_0>
    2054:	40000537          	lui	a0,0x40000
    2058:	84aff0ef          	jal	ra,10a2 <TIM_GetCapture1>
    205c:	8d018493          	addi	s1,gp,-1840 # 20000140 <motor_pwm_input_value>
    2060:	0505                	addi	a0,a0,1 # 40000001 <_eusrstack+0x1fffb001>
    2062:	a08a                	sh	a0,0(s1)
    2064:	40000537          	lui	a0,0x40000
    2068:	83eff0ef          	jal	ra,10a6 <TIM_GetCapture2>
    206c:	209a                	lhu	a4,0(s1)
    206e:	00150693          	addi	a3,a0,1 # 40000001 <_eusrstack+0x1fffb001>
    2072:	06c2                	slli	a3,a3,0x10
    2074:	82c1                	srli	a3,a3,0x10
    2076:	40d707b3          	sub	a5,a4,a3
    207a:	a0be                	sh	a5,2(s1)
    207c:	000f47b7          	lui	a5,0xf4
    2080:	24078793          	addi	a5,a5,576 # f4240 <_data_lma+0xede08>
    2084:	02e7c7b3          	div	a5,a5,a4
    2088:	a0d6                	sh	a3,4(s1)
    208a:	17a00593          	li	a1,378
    208e:	8d018713          	addi	a4,gp,-1840 # 20000140 <motor_pwm_input_value>
    2092:	07c2                	slli	a5,a5,0x10
    2094:	83c1                	srli	a5,a5,0x10
    2096:	a0fe                	sh	a5,6(s1)
    2098:	17ad                	addi	a5,a5,-21
    209a:	07c2                	slli	a5,a5,0x10
    209c:	83c1                	srli	a5,a5,0x10
    209e:	06f5ee63          	bltu	a1,a5,211a <pwm_input_trigger_callback+0xca>
    20a2:	c1850793          	addi	a5,a0,-1000
    20a6:	07c2                	slli	a5,a5,0x10
    20a8:	83c1                	srli	a5,a5,0x10
    20aa:	7ce00593          	li	a1,1998
    20ae:	06f5e663          	bltu	a1,a5,211a <pwm_input_trigger_callback+0xca>
    20b2:	7cf00793          	li	a5,1999
    20b6:	04d7f363          	bgeu	a5,a3,20fc <pwm_input_trigger_callback+0xac>
    20ba:	3e800793          	li	a5,1000
    20be:	a71e                	sh	a5,8(a4)
    20c0:	4785                	li	a5,1
    20c2:	86f18ca3          	sb	a5,-1927(gp) # 200000e9 <clac_flag>
    20c6:	270a                	lhu	a0,8(a4)
    20c8:	7a4010ef          	jal	ra,386c <__floatunsidf>
    20cc:	8301a603          	lw	a2,-2000(gp) # 200000a0 <_impure_ptr+0x20>
    20d0:	8341a683          	lw	a3,-1996(gp) # 200000a4 <_impure_ptr+0x24>
    20d4:	1f6010ef          	jal	ra,32ca <__muldf3>
    20d8:	8381a603          	lw	a2,-1992(gp) # 200000a8 <_impure_ptr+0x28>
    20dc:	83c1a683          	lw	a3,-1988(gp) # 200000ac <_impure_ptr+0x2c>
    20e0:	1ea010ef          	jal	ra,32ca <__muldf3>
    20e4:	8401a603          	lw	a2,-1984(gp) # 200000b0 <_impure_ptr+0x30>
    20e8:	8441a683          	lw	a3,-1980(gp) # 200000b4 <_impure_ptr+0x34>
    20ec:	431000ef          	jal	ra,2d1c <__divdf3>
    20f0:	063020ef          	jal	ra,4952 <__truncdfsf2>
    20f4:	8ca1ae23          	sw	a0,-1828(gp) # 2000014c <fan>
    20f8:	89cfe06f          	j	194 <__riscv_restore_0>
    20fc:	c1950513          	addi	a0,a0,-999
    2100:	4785                	li	a5,1
    2102:	0542                	slli	a0,a0,0x10
    2104:	8141                	srli	a0,a0,0x10
    2106:	86f18ca3          	sb	a5,-1927(gp) # 200000e9 <clac_flag>
    210a:	478d                	li	a5,3
    210c:	a70a                	sh	a0,8(a4)
    210e:	02f50533          	mul	a0,a0,a5
    2112:	09500793          	li	a5,149
    2116:	faa7c8e3          	blt	a5,a0,20c6 <pwm_input_trigger_callback+0x76>
    211a:	00071423          	sh	zero,8(a4) # 1000008 <_data_lma+0xff9bd0>
    211e:	86018ca3          	sb	zero,-1927(gp) # 200000e9 <clac_flag>
    2122:	b755                	j	20c6 <pwm_input_trigger_callback+0x76>

00002124 <pwm_input_timeout_callback>:
    2124:	6705                	lui	a4,0x1
    2126:	bb870713          	addi	a4,a4,-1096 # bb8 <TIM_OC2Init+0x18>
    212a:	8ce1a823          	sw	a4,-1840(gp) # 20000140 <motor_pwm_input_value>
    212e:	8d018793          	addi	a5,gp,-1840 # 20000140 <motor_pwm_input_value>
    2132:	0007a223          	sw	zero,4(a5)
    2136:	00079423          	sh	zero,8(a5)
    213a:	8a818793          	addi	a5,gp,-1880 # 20000118 <motor>
    213e:	0007a823          	sw	zero,16(a5)
    2142:	0007aa23          	sw	zero,20(a5)
    2146:	8082                	ret

00002148 <pwm_input_init>:
    2148:	828fe2ef          	jal	t0,170 <__riscv_save_0>
    214c:	7139                	addi	sp,sp,-64
    214e:	4585                	li	a1,1
    2150:	4505                	li	a0,1
    2152:	fb6fe0ef          	jal	ra,908 <RCC_APB1PeriphClockCmd>
    2156:	4585                	li	a1,1
    2158:	4505                	li	a0,1
    215a:	f90fe0ef          	jal	ra,8ea <RCC_APB2PeriphClockCmd>
    215e:	00180537          	lui	a0,0x180
    2162:	4585                	li	a1,1
    2164:	10050513          	addi	a0,a0,256 # 180100 <_data_lma+0x179cc8>
    2168:	d28fe0ef          	jal	ra,690 <GPIO_PinRemapConfig>
    216c:	67a1                	lui	a5,0x8
    216e:	d23e                	sw	a5,36(sp)
    2170:	40011537          	lui	a0,0x40011
    2174:	478d                	li	a5,3
    2176:	104c                	addi	a1,sp,36
    2178:	d43e                	sw	a5,40(sp)
    217a:	80050513          	addi	a0,a0,-2048 # 40010800 <_eusrstack+0x2000b800>
    217e:	04800793          	li	a5,72
    2182:	d63e                	sw	a5,44(sp)
    2184:	c602                	sw	zero,12(sp)
    2186:	c802                	sw	zero,16(sp)
    2188:	00011a23          	sh	zero,20(sp)
    218c:	cc02                	sw	zero,24(sp)
    218e:	ce02                	sw	zero,28(sp)
    2190:	02011023          	sh	zero,32(sp)
    2194:	c0efe0ef          	jal	ra,5a2 <GPIO_Init>
    2198:	0828                	addi	a0,sp,24
    219a:	bb5fe0ef          	jal	ra,d4e <TIM_TimeBaseStructInit>
    219e:	200007b7          	lui	a5,0x20000
    21a2:	0787a783          	lw	a5,120(a5) # 20000078 <SystemCoreClock>
    21a6:	000f4737          	lui	a4,0xf4
    21aa:	24070713          	addi	a4,a4,576 # f4240 <_data_lma+0xede08>
    21ae:	02e7d7b3          	divu	a5,a5,a4
    21b2:	6441                	lui	s0,0x10
    21b4:	082c                	addi	a1,sp,24
    21b6:	40000537          	lui	a0,0x40000
    21ba:	00011d23          	sh	zero,26(sp)
    21be:	02010023          	sb	zero,32(sp)
    21c2:	44bd                	li	s1,15
    21c4:	17fd                	addi	a5,a5,-1
    21c6:	84fc                	sh	a5,24(sp)
    21c8:	fff40793          	addi	a5,s0,-1 # ffff <_data_lma+0x9bc7>
    21cc:	ce3e                	sw	a5,28(sp)
    21ce:	8fffe0ef          	jal	ra,acc <TIM_TimeBaseInit>
    21d2:	0068                	addi	a0,sp,12
    21d4:	bb3fe0ef          	jal	ra,d86 <TIM_ICStructInit>
    21d8:	4785                	li	a5,1
    21da:	006c                	addi	a1,sp,12
    21dc:	40000537          	lui	a0,0x40000
    21e0:	c83e                	sw	a5,16(sp)
    21e2:	82e4                	sh	s1,20(sp)
    21e4:	c602                	sw	zero,12(sp)
    21e6:	d6dfe0ef          	jal	ra,f52 <TIM_ICInit>
    21ea:	0068                	addi	a0,sp,12
    21ec:	b9bfe0ef          	jal	ra,d86 <TIM_ICStructInit>
    21f0:	000207b7          	lui	a5,0x20
    21f4:	0791                	addi	a5,a5,4 # 20004 <_data_lma+0x19bcc>
    21f6:	c63e                	sw	a5,12(sp)
    21f8:	006c                	addi	a1,sp,12
    21fa:	4789                	li	a5,2
    21fc:	40000537          	lui	a0,0x40000
    2200:	c83e                	sw	a5,16(sp)
    2202:	82e4                	sh	s1,20(sp)
    2204:	d4ffe0ef          	jal	ra,f52 <TIM_ICInit>
    2208:	05000593          	li	a1,80
    220c:	40000537          	lui	a0,0x40000
    2210:	beffe0ef          	jal	ra,dfe <TIM_SelectInputTrigger>
    2214:	4591                	li	a1,4
    2216:	40000537          	lui	a0,0x40000
    221a:	cabfe0ef          	jal	ra,ec4 <TIM_SelectSlaveMode>
    221e:	08000593          	li	a1,128
    2222:	40000537          	lui	a0,0x40000
    2226:	cb5fe0ef          	jal	ra,eda <TIM_SelectMasterSlaveMode>
    222a:	4791                	li	a5,4
    222c:	02f11a23          	sh	a5,52(sp)
    2230:	86bc                	lhu	a5,28(sp)
    2232:	06040413          	addi	s0,s0,96
    2236:	180c                	addi	a1,sp,48
    2238:	17fd                	addi	a5,a5,-1
    223a:	40000537          	lui	a0,0x40000
    223e:	02f11b23          	sh	a5,54(sp)
    2242:	d822                	sw	s0,48(sp)
    2244:	dc02                	sw	zero,56(sp)
    2246:	de02                	sw	zero,60(sp)
    2248:	a7ffe0ef          	jal	ra,cc6 <TIM_OC4Init>
    224c:	4605                	li	a2,1
    224e:	4589                	li	a1,2
    2250:	40000537          	lui	a0,0x40000
    2254:	b95fe0ef          	jal	ra,de8 <TIM_ITConfig>
    2258:	4605                	li	a2,1
    225a:	45c1                	li	a1,16
    225c:	40000537          	lui	a0,0x40000
    2260:	b89fe0ef          	jal	ra,de8 <TIM_ITConfig>
    2264:	4589                	li	a1,2
    2266:	40000537          	lui	a0,0x40000
    226a:	e59fe0ef          	jal	ra,10c2 <TIM_ClearITPendingBit>
    226e:	45c1                	li	a1,16
    2270:	40000537          	lui	a0,0x40000
    2274:	e4ffe0ef          	jal	ra,10c2 <TIM_ClearITPendingBit>
    2278:	e000e7b7          	lui	a5,0xe000e
    227c:	42078623          	sb	zero,1068(a5) # e000e42c <_eusrstack+0xc000942c>
    2280:	6705                	lui	a4,0x1
    2282:	10e7a223          	sw	a4,260(a5)
    2286:	4585                	li	a1,1
    2288:	40000537          	lui	a0,0x40000
    228c:	b2ffe0ef          	jal	ra,dba <TIM_Cmd>
    2290:	6121                	addi	sp,sp,64
    2292:	f03fd06f          	j	194 <__riscv_restore_0>

00002296 <pwm_duty_update>:
    2296:	6785                	lui	a5,0x1
    2298:	bb878793          	addi	a5,a5,-1096 # bb8 <TIM_OC2Init+0x18>
    229c:	872a                	mv	a4,a0
    229e:	00a7f363          	bgeu	a5,a0,22a4 <pwm_duty_update+0xe>
    22a2:	873e                	mv	a4,a5
    22a4:	6685                	lui	a3,0x1
    22a6:	400137b7          	lui	a5,0x40013
    22aa:	bb768693          	addi	a3,a3,-1097 # bb7 <TIM_OC2Init+0x17>
    22ae:	c2d79623          	sh	a3,-980(a5) # 40012c2c <_eusrstack+0x2000dc2c>
    22b2:	c2e79a23          	sh	a4,-972(a5)
    22b6:	c2e79c23          	sh	a4,-968(a5)
    22ba:	c2e79e23          	sh	a4,-964(a5)
    22be:	8082                	ret

000022c0 <pwm_a_bn_output>:
    22c0:	400117b7          	lui	a5,0x40011
    22c4:	80078793          	addi	a5,a5,-2048 # 40010800 <_eusrstack+0x2000b800>
    22c8:	43d8                	lw	a4,4(a5)
    22ca:	9b41                	andi	a4,a4,-16
    22cc:	c3d8                	sw	a4,4(a5)
    22ce:	43d8                	lw	a4,4(a5)
    22d0:	00b76713          	ori	a4,a4,11
    22d4:	c3d8                	sw	a4,4(a5)
    22d6:	4394                	lw	a3,0(a5)
    22d8:	10000737          	lui	a4,0x10000
    22dc:	177d                	addi	a4,a4,-1 # fffffff <_data_lma+0xfff9bc7>
    22de:	8f75                	and	a4,a4,a3
    22e0:	c398                	sw	a4,0(a5)
    22e2:	4398                	lw	a4,0(a5)
    22e4:	c53d                	beqz	a0,2352 <pwm_a_bn_output+0x92>
    22e6:	b00006b7          	lui	a3,0xb0000
    22ea:	8f55                	or	a4,a4,a3
    22ec:	c398                	sw	a4,0(a5)
    22ee:	400117b7          	lui	a5,0x40011
    22f2:	80078713          	addi	a4,a5,-2048 # 40010800 <_eusrstack+0x2000b800>
    22f6:	4354                	lw	a3,4(a4)
    22f8:	c0078793          	addi	a5,a5,-1024
    22fc:	767d                	lui	a2,0xfffff
    22fe:	f0f6f693          	andi	a3,a3,-241
    2302:	c354                	sw	a3,4(a4)
    2304:	4354                	lw	a3,4(a4)
    2306:	0ff60613          	addi	a2,a2,255 # fffff0ff <_eusrstack+0xdfffa0ff>
    230a:	0306e693          	ori	a3,a3,48
    230e:	c354                	sw	a3,4(a4)
    2310:	20000693          	li	a3,512
    2314:	cb54                	sw	a3,20(a4)
    2316:	4394                	lw	a3,0(a5)
    2318:	9ac1                	andi	a3,a3,-16
    231a:	c394                	sw	a3,0(a5)
    231c:	4394                	lw	a3,0(a5)
    231e:	0036e693          	ori	a3,a3,3
    2322:	c394                	sw	a3,0(a5)
    2324:	4685                	li	a3,1
    2326:	cb94                	sw	a3,16(a5)
    2328:	4354                	lw	a3,4(a4)
    232a:	8ef1                	and	a3,a3,a2
    232c:	c354                	sw	a3,4(a4)
    232e:	4354                	lw	a3,4(a4)
    2330:	3006e693          	ori	a3,a3,768
    2334:	c354                	sw	a3,4(a4)
    2336:	40000693          	li	a3,1024
    233a:	cb54                	sw	a3,20(a4)
    233c:	4398                	lw	a4,0(a5)
    233e:	f0f77713          	andi	a4,a4,-241
    2342:	c398                	sw	a4,0(a5)
    2344:	4398                	lw	a4,0(a5)
    2346:	03076713          	ori	a4,a4,48
    234a:	c398                	sw	a4,0(a5)
    234c:	4709                	li	a4,2
    234e:	cbd8                	sw	a4,20(a5)
    2350:	8082                	ret
    2352:	300006b7          	lui	a3,0x30000
    2356:	8f55                	or	a4,a4,a3
    2358:	c398                	sw	a4,0(a5)
    235a:	08000713          	li	a4,128
    235e:	cbd8                	sw	a4,20(a5)
    2360:	b779                	j	22ee <pwm_a_bn_output+0x2e>

00002362 <pwm_a_cn_output>:
    2362:	400117b7          	lui	a5,0x40011
    2366:	80078793          	addi	a5,a5,-2048 # 40010800 <_eusrstack+0x2000b800>
    236a:	43d8                	lw	a4,4(a5)
    236c:	9b41                	andi	a4,a4,-16
    236e:	c3d8                	sw	a4,4(a5)
    2370:	43d8                	lw	a4,4(a5)
    2372:	00b76713          	ori	a4,a4,11
    2376:	c3d8                	sw	a4,4(a5)
    2378:	4394                	lw	a3,0(a5)
    237a:	10000737          	lui	a4,0x10000
    237e:	177d                	addi	a4,a4,-1 # fffffff <_data_lma+0xfff9bc7>
    2380:	8f75                	and	a4,a4,a3
    2382:	c398                	sw	a4,0(a5)
    2384:	4398                	lw	a4,0(a5)
    2386:	c53d                	beqz	a0,23f4 <pwm_a_cn_output+0x92>
    2388:	b00006b7          	lui	a3,0xb0000
    238c:	8f55                	or	a4,a4,a3
    238e:	c398                	sw	a4,0(a5)
    2390:	400117b7          	lui	a5,0x40011
    2394:	80078713          	addi	a4,a5,-2048 # 40010800 <_eusrstack+0x2000b800>
    2398:	4354                	lw	a3,4(a4)
    239a:	767d                	lui	a2,0xfffff
    239c:	0ff60613          	addi	a2,a2,255 # fffff0ff <_eusrstack+0xdfffa0ff>
    23a0:	8ef1                	and	a3,a3,a2
    23a2:	c354                	sw	a3,4(a4)
    23a4:	4354                	lw	a3,4(a4)
    23a6:	c0078793          	addi	a5,a5,-1024
    23aa:	3006e693          	ori	a3,a3,768
    23ae:	c354                	sw	a3,4(a4)
    23b0:	40000693          	li	a3,1024
    23b4:	cb54                	sw	a3,20(a4)
    23b6:	4394                	lw	a3,0(a5)
    23b8:	f0f6f693          	andi	a3,a3,-241
    23bc:	c394                	sw	a3,0(a5)
    23be:	4394                	lw	a3,0(a5)
    23c0:	0306e693          	ori	a3,a3,48
    23c4:	c394                	sw	a3,0(a5)
    23c6:	4689                	li	a3,2
    23c8:	cb94                	sw	a3,16(a5)
    23ca:	4354                	lw	a3,4(a4)
    23cc:	f0f6f693          	andi	a3,a3,-241
    23d0:	c354                	sw	a3,4(a4)
    23d2:	4354                	lw	a3,4(a4)
    23d4:	0306e693          	ori	a3,a3,48
    23d8:	c354                	sw	a3,4(a4)
    23da:	20000693          	li	a3,512
    23de:	cb54                	sw	a3,20(a4)
    23e0:	4398                	lw	a4,0(a5)
    23e2:	9b41                	andi	a4,a4,-16
    23e4:	c398                	sw	a4,0(a5)
    23e6:	4398                	lw	a4,0(a5)
    23e8:	00376713          	ori	a4,a4,3
    23ec:	c398                	sw	a4,0(a5)
    23ee:	4705                	li	a4,1
    23f0:	cbd8                	sw	a4,20(a5)
    23f2:	8082                	ret
    23f4:	300006b7          	lui	a3,0x30000
    23f8:	8f55                	or	a4,a4,a3
    23fa:	c398                	sw	a4,0(a5)
    23fc:	08000713          	li	a4,128
    2400:	cbd8                	sw	a4,20(a5)
    2402:	b779                	j	2390 <pwm_a_cn_output+0x2e>

00002404 <pwm_b_cn_output>:
    2404:	400117b7          	lui	a5,0x40011
    2408:	80078713          	addi	a4,a5,-2048 # 40010800 <_eusrstack+0x2000b800>
    240c:	4354                	lw	a3,4(a4)
    240e:	c0078793          	addi	a5,a5,-1024
    2412:	f0f6f693          	andi	a3,a3,-241
    2416:	c354                	sw	a3,4(a4)
    2418:	4354                	lw	a3,4(a4)
    241a:	0b06e693          	ori	a3,a3,176
    241e:	c354                	sw	a3,4(a4)
    2420:	4398                	lw	a4,0(a5)
    2422:	9b41                	andi	a4,a4,-16
    2424:	c398                	sw	a4,0(a5)
    2426:	4398                	lw	a4,0(a5)
    2428:	c925                	beqz	a0,2498 <pwm_b_cn_output+0x94>
    242a:	00b76713          	ori	a4,a4,11
    242e:	c398                	sw	a4,0(a5)
    2430:	40011737          	lui	a4,0x40011
    2434:	80070793          	addi	a5,a4,-2048 # 40010800 <_eusrstack+0x2000b800>
    2438:	43d4                	lw	a3,4(a5)
    243a:	767d                	lui	a2,0xfffff
    243c:	0ff60613          	addi	a2,a2,255 # fffff0ff <_eusrstack+0xdfffa0ff>
    2440:	8ef1                	and	a3,a3,a2
    2442:	c3d4                	sw	a3,4(a5)
    2444:	43d4                	lw	a3,4(a5)
    2446:	c0070713          	addi	a4,a4,-1024
    244a:	3006e693          	ori	a3,a3,768
    244e:	c3d4                	sw	a3,4(a5)
    2450:	40000693          	li	a3,1024
    2454:	cbd4                	sw	a3,20(a5)
    2456:	4314                	lw	a3,0(a4)
    2458:	f0f6f693          	andi	a3,a3,-241
    245c:	c314                	sw	a3,0(a4)
    245e:	4314                	lw	a3,0(a4)
    2460:	0306e693          	ori	a3,a3,48
    2464:	c314                	sw	a3,0(a4)
    2466:	4689                	li	a3,2
    2468:	cb14                	sw	a3,16(a4)
    246a:	43d8                	lw	a4,4(a5)
    246c:	300006b7          	lui	a3,0x30000
    2470:	9b41                	andi	a4,a4,-16
    2472:	c3d8                	sw	a4,4(a5)
    2474:	43d8                	lw	a4,4(a5)
    2476:	00376713          	ori	a4,a4,3
    247a:	c3d8                	sw	a4,4(a5)
    247c:	10000713          	li	a4,256
    2480:	cbd8                	sw	a4,20(a5)
    2482:	4398                	lw	a4,0(a5)
    2484:	0712                	slli	a4,a4,0x4
    2486:	8311                	srli	a4,a4,0x4
    2488:	c398                	sw	a4,0(a5)
    248a:	4398                	lw	a4,0(a5)
    248c:	8f55                	or	a4,a4,a3
    248e:	c398                	sw	a4,0(a5)
    2490:	08000713          	li	a4,128
    2494:	cbd8                	sw	a4,20(a5)
    2496:	8082                	ret
    2498:	00376713          	ori	a4,a4,3
    249c:	c398                	sw	a4,0(a5)
    249e:	4705                	li	a4,1
    24a0:	cbd8                	sw	a4,20(a5)
    24a2:	b779                	j	2430 <pwm_b_cn_output+0x2c>

000024a4 <pwm_b_an_output>:
    24a4:	400117b7          	lui	a5,0x40011
    24a8:	80078713          	addi	a4,a5,-2048 # 40010800 <_eusrstack+0x2000b800>
    24ac:	4354                	lw	a3,4(a4)
    24ae:	c0078793          	addi	a5,a5,-1024
    24b2:	f0f6f693          	andi	a3,a3,-241
    24b6:	c354                	sw	a3,4(a4)
    24b8:	4354                	lw	a3,4(a4)
    24ba:	0b06e693          	ori	a3,a3,176
    24be:	c354                	sw	a3,4(a4)
    24c0:	4398                	lw	a4,0(a5)
    24c2:	9b41                	andi	a4,a4,-16
    24c4:	c398                	sw	a4,0(a5)
    24c6:	4398                	lw	a4,0(a5)
    24c8:	c925                	beqz	a0,2538 <pwm_b_an_output+0x94>
    24ca:	00b76713          	ori	a4,a4,11
    24ce:	c398                	sw	a4,0(a5)
    24d0:	40011737          	lui	a4,0x40011
    24d4:	80070793          	addi	a5,a4,-2048 # 40010800 <_eusrstack+0x2000b800>
    24d8:	43d4                	lw	a3,4(a5)
    24da:	30000637          	lui	a2,0x30000
    24de:	9ac1                	andi	a3,a3,-16
    24e0:	c3d4                	sw	a3,4(a5)
    24e2:	43d4                	lw	a3,4(a5)
    24e4:	0036e693          	ori	a3,a3,3
    24e8:	c3d4                	sw	a3,4(a5)
    24ea:	10000693          	li	a3,256
    24ee:	cbd4                	sw	a3,20(a5)
    24f0:	4394                	lw	a3,0(a5)
    24f2:	0692                	slli	a3,a3,0x4
    24f4:	8291                	srli	a3,a3,0x4
    24f6:	c394                	sw	a3,0(a5)
    24f8:	4394                	lw	a3,0(a5)
    24fa:	8ed1                	or	a3,a3,a2
    24fc:	c394                	sw	a3,0(a5)
    24fe:	08000693          	li	a3,128
    2502:	cb94                	sw	a3,16(a5)
    2504:	43d4                	lw	a3,4(a5)
    2506:	767d                	lui	a2,0xfffff
    2508:	0ff60613          	addi	a2,a2,255 # fffff0ff <_eusrstack+0xdfffa0ff>
    250c:	8ef1                	and	a3,a3,a2
    250e:	c3d4                	sw	a3,4(a5)
    2510:	43d4                	lw	a3,4(a5)
    2512:	3006e693          	ori	a3,a3,768
    2516:	c3d4                	sw	a3,4(a5)
    2518:	40000693          	li	a3,1024
    251c:	cbd4                	sw	a3,20(a5)
    251e:	c0070793          	addi	a5,a4,-1024
    2522:	4398                	lw	a4,0(a5)
    2524:	f0f77713          	andi	a4,a4,-241
    2528:	c398                	sw	a4,0(a5)
    252a:	4398                	lw	a4,0(a5)
    252c:	03076713          	ori	a4,a4,48
    2530:	c398                	sw	a4,0(a5)
    2532:	4709                	li	a4,2
    2534:	cbd8                	sw	a4,20(a5)
    2536:	8082                	ret
    2538:	00376713          	ori	a4,a4,3
    253c:	c398                	sw	a4,0(a5)
    253e:	4705                	li	a4,1
    2540:	cbd8                	sw	a4,20(a5)
    2542:	b779                	j	24d0 <pwm_b_an_output+0x2c>

00002544 <pwm_c_an_output>:
    2544:	400117b7          	lui	a5,0x40011
    2548:	80078713          	addi	a4,a5,-2048 # 40010800 <_eusrstack+0x2000b800>
    254c:	4354                	lw	a3,4(a4)
    254e:	767d                	lui	a2,0xfffff
    2550:	0ff60613          	addi	a2,a2,255 # fffff0ff <_eusrstack+0xdfffa0ff>
    2554:	8ef1                	and	a3,a3,a2
    2556:	c354                	sw	a3,4(a4)
    2558:	4354                	lw	a3,4(a4)
    255a:	6605                	lui	a2,0x1
    255c:	b0060613          	addi	a2,a2,-1280 # b00 <TIM_TimeBaseInit+0x34>
    2560:	8ed1                	or	a3,a3,a2
    2562:	c354                	sw	a3,4(a4)
    2564:	c0078793          	addi	a5,a5,-1024
    2568:	4398                	lw	a4,0(a5)
    256a:	f0f77713          	andi	a4,a4,-241
    256e:	c398                	sw	a4,0(a5)
    2570:	4398                	lw	a4,0(a5)
    2572:	c52d                	beqz	a0,25dc <pwm_c_an_output+0x98>
    2574:	0b076713          	ori	a4,a4,176
    2578:	c398                	sw	a4,0(a5)
    257a:	40011737          	lui	a4,0x40011
    257e:	80070793          	addi	a5,a4,-2048 # 40010800 <_eusrstack+0x2000b800>
    2582:	43d4                	lw	a3,4(a5)
    2584:	30000637          	lui	a2,0x30000
    2588:	9ac1                	andi	a3,a3,-16
    258a:	c3d4                	sw	a3,4(a5)
    258c:	43d4                	lw	a3,4(a5)
    258e:	0036e693          	ori	a3,a3,3
    2592:	c3d4                	sw	a3,4(a5)
    2594:	10000693          	li	a3,256
    2598:	cbd4                	sw	a3,20(a5)
    259a:	4394                	lw	a3,0(a5)
    259c:	0692                	slli	a3,a3,0x4
    259e:	8291                	srli	a3,a3,0x4
    25a0:	c394                	sw	a3,0(a5)
    25a2:	4394                	lw	a3,0(a5)
    25a4:	8ed1                	or	a3,a3,a2
    25a6:	c394                	sw	a3,0(a5)
    25a8:	08000693          	li	a3,128
    25ac:	cb94                	sw	a3,16(a5)
    25ae:	43d4                	lw	a3,4(a5)
    25b0:	f0f6f693          	andi	a3,a3,-241
    25b4:	c3d4                	sw	a3,4(a5)
    25b6:	43d4                	lw	a3,4(a5)
    25b8:	0306e693          	ori	a3,a3,48
    25bc:	c3d4                	sw	a3,4(a5)
    25be:	20000693          	li	a3,512
    25c2:	cbd4                	sw	a3,20(a5)
    25c4:	c0070793          	addi	a5,a4,-1024
    25c8:	4398                	lw	a4,0(a5)
    25ca:	9b41                	andi	a4,a4,-16
    25cc:	c398                	sw	a4,0(a5)
    25ce:	4398                	lw	a4,0(a5)
    25d0:	00376713          	ori	a4,a4,3
    25d4:	c398                	sw	a4,0(a5)
    25d6:	4705                	li	a4,1
    25d8:	cbd8                	sw	a4,20(a5)
    25da:	8082                	ret
    25dc:	03076713          	ori	a4,a4,48
    25e0:	c398                	sw	a4,0(a5)
    25e2:	4709                	li	a4,2
    25e4:	cbd8                	sw	a4,20(a5)
    25e6:	bf51                	j	257a <pwm_c_an_output+0x36>

000025e8 <pwm_c_bn_output>:
    25e8:	400117b7          	lui	a5,0x40011
    25ec:	80078713          	addi	a4,a5,-2048 # 40010800 <_eusrstack+0x2000b800>
    25f0:	4354                	lw	a3,4(a4)
    25f2:	767d                	lui	a2,0xfffff
    25f4:	0ff60613          	addi	a2,a2,255 # fffff0ff <_eusrstack+0xdfffa0ff>
    25f8:	8ef1                	and	a3,a3,a2
    25fa:	c354                	sw	a3,4(a4)
    25fc:	4354                	lw	a3,4(a4)
    25fe:	6605                	lui	a2,0x1
    2600:	b0060613          	addi	a2,a2,-1280 # b00 <TIM_TimeBaseInit+0x34>
    2604:	8ed1                	or	a3,a3,a2
    2606:	c354                	sw	a3,4(a4)
    2608:	c0078793          	addi	a5,a5,-1024
    260c:	4398                	lw	a4,0(a5)
    260e:	f0f77713          	andi	a4,a4,-241
    2612:	c398                	sw	a4,0(a5)
    2614:	4398                	lw	a4,0(a5)
    2616:	c52d                	beqz	a0,2680 <pwm_c_bn_output+0x98>
    2618:	0b076713          	ori	a4,a4,176
    261c:	c398                	sw	a4,0(a5)
    261e:	40011737          	lui	a4,0x40011
    2622:	80070793          	addi	a5,a4,-2048 # 40010800 <_eusrstack+0x2000b800>
    2626:	43d4                	lw	a3,4(a5)
    2628:	c0070713          	addi	a4,a4,-1024
    262c:	f0f6f693          	andi	a3,a3,-241
    2630:	c3d4                	sw	a3,4(a5)
    2632:	43d4                	lw	a3,4(a5)
    2634:	0306e693          	ori	a3,a3,48
    2638:	c3d4                	sw	a3,4(a5)
    263a:	20000693          	li	a3,512
    263e:	cbd4                	sw	a3,20(a5)
    2640:	4314                	lw	a3,0(a4)
    2642:	9ac1                	andi	a3,a3,-16
    2644:	c314                	sw	a3,0(a4)
    2646:	4314                	lw	a3,0(a4)
    2648:	0036e693          	ori	a3,a3,3
    264c:	c314                	sw	a3,0(a4)
    264e:	4685                	li	a3,1
    2650:	cb14                	sw	a3,16(a4)
    2652:	43d8                	lw	a4,4(a5)
    2654:	300006b7          	lui	a3,0x30000
    2658:	9b41                	andi	a4,a4,-16
    265a:	c3d8                	sw	a4,4(a5)
    265c:	43d8                	lw	a4,4(a5)
    265e:	00376713          	ori	a4,a4,3
    2662:	c3d8                	sw	a4,4(a5)
    2664:	10000713          	li	a4,256
    2668:	cbd8                	sw	a4,20(a5)
    266a:	4398                	lw	a4,0(a5)
    266c:	0712                	slli	a4,a4,0x4
    266e:	8311                	srli	a4,a4,0x4
    2670:	c398                	sw	a4,0(a5)
    2672:	4398                	lw	a4,0(a5)
    2674:	8f55                	or	a4,a4,a3
    2676:	c398                	sw	a4,0(a5)
    2678:	08000713          	li	a4,128
    267c:	cbd8                	sw	a4,20(a5)
    267e:	8082                	ret
    2680:	03076713          	ori	a4,a4,48
    2684:	c398                	sw	a4,0(a5)
    2686:	4709                	li	a4,2
    2688:	cbd8                	sw	a4,20(a5)
    268a:	bf51                	j	261e <pwm_c_bn_output+0x36>

0000268c <pwm_an_bn_cn_off>:
    268c:	40011737          	lui	a4,0x40011
    2690:	80070793          	addi	a5,a4,-2048 # 40010800 <_eusrstack+0x2000b800>
    2694:	43d4                	lw	a3,4(a5)
    2696:	30000637          	lui	a2,0x30000
    269a:	c0070713          	addi	a4,a4,-1024
    269e:	9ac1                	andi	a3,a3,-16
    26a0:	c3d4                	sw	a3,4(a5)
    26a2:	43d4                	lw	a3,4(a5)
    26a4:	0036e693          	ori	a3,a3,3
    26a8:	c3d4                	sw	a3,4(a5)
    26aa:	10000693          	li	a3,256
    26ae:	cbd4                	sw	a3,20(a5)
    26b0:	4394                	lw	a3,0(a5)
    26b2:	0692                	slli	a3,a3,0x4
    26b4:	8291                	srli	a3,a3,0x4
    26b6:	c394                	sw	a3,0(a5)
    26b8:	4394                	lw	a3,0(a5)
    26ba:	8ed1                	or	a3,a3,a2
    26bc:	c394                	sw	a3,0(a5)
    26be:	08000693          	li	a3,128
    26c2:	cbd4                	sw	a3,20(a5)
    26c4:	43d4                	lw	a3,4(a5)
    26c6:	767d                	lui	a2,0xfffff
    26c8:	0ff60613          	addi	a2,a2,255 # fffff0ff <_eusrstack+0xdfffa0ff>
    26cc:	f0f6f693          	andi	a3,a3,-241
    26d0:	c3d4                	sw	a3,4(a5)
    26d2:	43d4                	lw	a3,4(a5)
    26d4:	0306e693          	ori	a3,a3,48
    26d8:	c3d4                	sw	a3,4(a5)
    26da:	20000693          	li	a3,512
    26de:	cbd4                	sw	a3,20(a5)
    26e0:	4314                	lw	a3,0(a4)
    26e2:	9ac1                	andi	a3,a3,-16
    26e4:	c314                	sw	a3,0(a4)
    26e6:	4314                	lw	a3,0(a4)
    26e8:	0036e693          	ori	a3,a3,3
    26ec:	c314                	sw	a3,0(a4)
    26ee:	4685                	li	a3,1
    26f0:	cb54                	sw	a3,20(a4)
    26f2:	43d4                	lw	a3,4(a5)
    26f4:	8ef1                	and	a3,a3,a2
    26f6:	c3d4                	sw	a3,4(a5)
    26f8:	43d4                	lw	a3,4(a5)
    26fa:	3006e693          	ori	a3,a3,768
    26fe:	c3d4                	sw	a3,4(a5)
    2700:	40000693          	li	a3,1024
    2704:	cbd4                	sw	a3,20(a5)
    2706:	431c                	lw	a5,0(a4)
    2708:	f0f7f793          	andi	a5,a5,-241
    270c:	c31c                	sw	a5,0(a4)
    270e:	431c                	lw	a5,0(a4)
    2710:	0307e793          	ori	a5,a5,48
    2714:	c31c                	sw	a5,0(a4)
    2716:	4789                	li	a5,2
    2718:	cb5c                	sw	a5,20(a4)
    271a:	8082                	ret

0000271c <pwm_complementary_init>:
    271c:	a3bfd2ef          	jal	t0,156 <__riscv_save_4>
    2720:	7139                	addi	sp,sp,-64
    2722:	4585                	li	a1,1
    2724:	4535                	li	a0,13
    2726:	9c4fe0ef          	jal	ra,8ea <RCC_APB2PeriphClockCmd>
    272a:	6985                	lui	s3,0x1
    272c:	80098513          	addi	a0,s3,-2048 # 800 <__stack_size>
    2730:	4585                	li	a1,1
    2732:	9b8fe0ef          	jal	ra,8ea <RCC_APB2PeriphClockCmd>
    2736:	00160537          	lui	a0,0x160
    273a:	4585                	li	a1,1
    273c:	04050513          	addi	a0,a0,64 # 160040 <_data_lma+0x159c08>
    2740:	f51fd0ef          	jal	ra,690 <GPIO_PinRemapConfig>
    2744:	40011437          	lui	s0,0x40011
    2748:	448d                	li	s1,3
    274a:	4961                	li	s2,24
    274c:	08000793          	li	a5,128
    2750:	084c                	addi	a1,sp,20
    2752:	80040513          	addi	a0,s0,-2048 # 40010800 <_eusrstack+0x2000b800>
    2756:	ca3e                	sw	a5,20(sp)
    2758:	cc26                	sw	s1,24(sp)
    275a:	ce4a                	sw	s2,28(sp)
    275c:	e47fd0ef          	jal	ra,5a2 <GPIO_Init>
    2760:	4785                	li	a5,1
    2762:	084c                	addi	a1,sp,20
    2764:	c0040513          	addi	a0,s0,-1024
    2768:	82fc                	sh	a5,20(sp)
    276a:	ce4a                	sw	s2,28(sp)
    276c:	cc26                	sw	s1,24(sp)
    276e:	e35fd0ef          	jal	ra,5a2 <GPIO_Init>
    2772:	4789                	li	a5,2
    2774:	084c                	addi	a1,sp,20
    2776:	c0040513          	addi	a0,s0,-1024
    277a:	82fc                	sh	a5,20(sp)
    277c:	ce4a                	sw	s2,28(sp)
    277e:	cc26                	sw	s1,24(sp)
    2780:	e23fd0ef          	jal	ra,5a2 <GPIO_Init>
    2784:	10000793          	li	a5,256
    2788:	084c                	addi	a1,sp,20
    278a:	80040513          	addi	a0,s0,-2048
    278e:	82fc                	sh	a5,20(sp)
    2790:	ce4a                	sw	s2,28(sp)
    2792:	cc26                	sw	s1,24(sp)
    2794:	e0ffd0ef          	jal	ra,5a2 <GPIO_Init>
    2798:	20000793          	li	a5,512
    279c:	084c                	addi	a1,sp,20
    279e:	80040513          	addi	a0,s0,-2048
    27a2:	82fc                	sh	a5,20(sp)
    27a4:	ce4a                	sw	s2,28(sp)
    27a6:	cc26                	sw	s1,24(sp)
    27a8:	dfbfd0ef          	jal	ra,5a2 <GPIO_Init>
    27ac:	40000793          	li	a5,1024
    27b0:	084c                	addi	a1,sp,20
    27b2:	80040513          	addi	a0,s0,-2048
    27b6:	82fc                	sh	a5,20(sp)
    27b8:	40013437          	lui	s0,0x40013
    27bc:	ce4a                	sw	s2,28(sp)
    27be:	cc26                	sw	s1,24(sp)
    27c0:	de3fd0ef          	jal	ra,5a2 <GPIO_Init>
    27c4:	c0040513          	addi	a0,s0,-1024 # 40012c00 <_eusrstack+0x2000dc00>
    27c8:	d802                	sw	zero,48(sp)
    27ca:	da02                	sw	zero,52(sp)
    27cc:	dc02                	sw	zero,56(sp)
    27ce:	de02                	sw	zero,60(sp)
    27d0:	c402                	sw	zero,8(sp)
    27d2:	c602                	sw	zero,12(sp)
    27d4:	00011823          	sh	zero,16(sp)
    27d8:	d002                	sw	zero,32(sp)
    27da:	d202                	sw	zero,36(sp)
    27dc:	d402                	sw	zero,40(sp)
    27de:	02011623          	sh	zero,44(sp)
    27e2:	a6efe0ef          	jal	ra,a50 <TIM_DeInit>
    27e6:	0028                	addi	a0,sp,8
    27e8:	d66fe0ef          	jal	ra,d4e <TIM_TimeBaseStructInit>
    27ec:	002c                	addi	a1,sp,8
    27ee:	c0040513          	addi	a0,s0,-1024
    27f2:	bb798993          	addi	s3,s3,-1097
    27f6:	c64e                	sw	s3,12(sp)
    27f8:	c402                	sw	zero,8(sp)
    27fa:	00010823          	sb	zero,16(sp)
    27fe:	acefe0ef          	jal	ra,acc <TIM_TimeBaseInit>
    2802:	1808                	addi	a0,sp,48
    2804:	d60fe0ef          	jal	ra,d64 <TIM_OCStructInit>
    2808:	06000793          	li	a5,96
    280c:	180c                	addi	a1,sp,48
    280e:	c0040513          	addi	a0,s0,-1024
    2812:	d83e                	sw	a5,48(sp)
    2814:	da02                	sw	zero,52(sp)
    2816:	dc02                	sw	zero,56(sp)
    2818:	de02                	sw	zero,60(sp)
    281a:	b1cfe0ef          	jal	ra,b36 <TIM_OC1Init>
    281e:	180c                	addi	a1,sp,48
    2820:	c0040513          	addi	a0,s0,-1024
    2824:	02011b23          	sh	zero,54(sp)
    2828:	b78fe0ef          	jal	ra,ba0 <TIM_OC2Init>
    282c:	180c                	addi	a1,sp,48
    282e:	c0040513          	addi	a0,s0,-1024
    2832:	02011b23          	sh	zero,54(sp)
    2836:	bfefe0ef          	jal	ra,c34 <TIM_OC3Init>
    283a:	180c                	addi	a1,sp,48
    283c:	c0040513          	addi	a0,s0,-1024
    2840:	02011b23          	sh	zero,54(sp)
    2844:	c82fe0ef          	jal	ra,cc6 <TIM_OC4Init>
    2848:	c0040513          	addi	a0,s0,-1024
    284c:	45a1                	li	a1,8
    284e:	ddafe0ef          	jal	ra,e28 <TIM_OC1PreloadConfig>
    2852:	c0040513          	addi	a0,s0,-1024
    2856:	45a1                	li	a1,8
    2858:	ddefe0ef          	jal	ra,e36 <TIM_OC2PreloadConfig>
    285c:	c0040513          	addi	a0,s0,-1024
    2860:	45a1                	li	a1,8
    2862:	deafe0ef          	jal	ra,e4c <TIM_OC3PreloadConfig>
    2866:	c0040513          	addi	a0,s0,-1024
    286a:	4581                	li	a1,0
    286c:	deefe0ef          	jal	ra,e5a <TIM_OC1FastConfig>
    2870:	c0040513          	addi	a0,s0,-1024
    2874:	4581                	li	a1,0
    2876:	df2fe0ef          	jal	ra,e68 <TIM_OC2FastConfig>
    287a:	4581                	li	a1,0
    287c:	c0040513          	addi	a0,s0,-1024
    2880:	dfefe0ef          	jal	ra,e7e <TIM_OC3FastConfig>
    2884:	1008                	addi	a0,sp,32
    2886:	d16fe0ef          	jal	ra,d9c <TIM_BDTRStructInit>
    288a:	001e07b7          	lui	a5,0x1e0
    288e:	d23e                	sw	a5,36(sp)
    2890:	100c                	addi	a1,sp,32
    2892:	200007b7          	lui	a5,0x20000
    2896:	c0040513          	addi	a0,s0,-1024
    289a:	d43e                	sw	a5,40(sp)
    289c:	d002                	sw	zero,32(sp)
    289e:	02011623          	sh	zero,44(sp)
    28a2:	c8cfe0ef          	jal	ra,d2e <TIM_BDTRConfig>
    28a6:	c0040513          	addi	a0,s0,-1024
    28aa:	4601                	li	a2,0
    28ac:	08000593          	li	a1,128
    28b0:	d38fe0ef          	jal	ra,de8 <TIM_ITConfig>
    28b4:	c0040513          	addi	a0,s0,-1024
    28b8:	4601                	li	a2,0
    28ba:	4585                	li	a1,1
    28bc:	d2cfe0ef          	jal	ra,de8 <TIM_ITConfig>
    28c0:	c0040513          	addi	a0,s0,-1024
    28c4:	4601                	li	a2,0
    28c6:	04000593          	li	a1,64
    28ca:	d1efe0ef          	jal	ra,de8 <TIM_ITConfig>
    28ce:	c0040513          	addi	a0,s0,-1024
    28d2:	4601                	li	a2,0
    28d4:	02000593          	li	a1,32
    28d8:	d10fe0ef          	jal	ra,de8 <TIM_ITConfig>
    28dc:	c0040513          	addi	a0,s0,-1024
    28e0:	4605                	li	a2,1
    28e2:	4581                	li	a1,0
    28e4:	da8fe0ef          	jal	ra,e8c <TIM_CCxCmd>
    28e8:	c0040513          	addi	a0,s0,-1024
    28ec:	4605                	li	a2,1
    28ee:	4591                	li	a1,4
    28f0:	d9cfe0ef          	jal	ra,e8c <TIM_CCxCmd>
    28f4:	c0040513          	addi	a0,s0,-1024
    28f8:	4605                	li	a2,1
    28fa:	45a1                	li	a1,8
    28fc:	d90fe0ef          	jal	ra,e8c <TIM_CCxCmd>
    2900:	c0040513          	addi	a0,s0,-1024
    2904:	4611                	li	a2,4
    2906:	4581                	li	a1,0
    2908:	da0fe0ef          	jal	ra,ea8 <TIM_CCxNCmd>
    290c:	c0040513          	addi	a0,s0,-1024
    2910:	4611                	li	a2,4
    2912:	4591                	li	a1,4
    2914:	d94fe0ef          	jal	ra,ea8 <TIM_CCxNCmd>
    2918:	4611                	li	a2,4
    291a:	c0040513          	addi	a0,s0,-1024
    291e:	45a1                	li	a1,8
    2920:	d88fe0ef          	jal	ra,ea8 <TIM_CCxNCmd>
    2924:	c0040513          	addi	a0,s0,-1024
    2928:	4585                	li	a1,1
    292a:	c90fe0ef          	jal	ra,dba <TIM_Cmd>
    292e:	c0040513          	addi	a0,s0,-1024
    2932:	4585                	li	a1,1
    2934:	c9efe0ef          	jal	ra,dd2 <TIM_CtrlPWMOutputs>
    2938:	c0040513          	addi	a0,s0,-1024
    293c:	4585                	li	a1,1
    293e:	cd0fe0ef          	jal	ra,e0e <TIM_ARRPreloadConfig>
    2942:	4585                	li	a1,1
    2944:	c0040513          	addi	a0,s0,-1024
    2948:	cb2fe0ef          	jal	ra,dfa <TIM_GenerateEvent>
    294c:	6121                	addi	sp,sp,64
    294e:	83dfd06f          	j	18a <__riscv_restore_4>

00002952 <seekfree_assistant_oscilloscope_send>:
    2952:	311c                	lbu	a5,1(a0)
    2954:	e399                	bnez	a5,295a <seekfree_assistant_oscilloscope_send+0x8>
    2956:	47a1                	li	a5,8
    2958:	b11c                	sb	a5,1(a0)
    295a:	311c                	lbu	a5,1(a0)
    295c:	faa00713          	li	a4,-86
    2960:	a118                	sb	a4,0(a0)
    2962:	8bbd                	andi	a5,a5,15
    2964:	00178593          	addi	a1,a5,1 # 20000001 <APBAHBPrescTable+0x1>
    2968:	058a                	slli	a1,a1,0x2
    296a:	0107e793          	ori	a5,a5,16
    296e:	b11c                	sb	a5,1(a0)
    2970:	b12c                	sb	a1,3(a0)
    2972:	00050123          	sb	zero,2(a0)
    2976:	00b506b3          	add	a3,a0,a1
    297a:	872a                	mv	a4,a0
    297c:	4781                	li	a5,0
    297e:	2310                	lbu	a2,0(a4)
    2980:	0705                	addi	a4,a4,1
    2982:	97b2                	add	a5,a5,a2
    2984:	0ff7f793          	zext.b	a5,a5
    2988:	fed71be3          	bne	a4,a3,297e <seekfree_assistant_oscilloscope_send+0x2c>
    298c:	a13c                	sb	a5,2(a0)
    298e:	a009                	j	2990 <seekfree_assistant_transfer>

00002990 <seekfree_assistant_transfer>:
    2990:	fe0fd2ef          	jal	t0,170 <__riscv_save_0>
    2994:	26bd                	jal	2d02 <uart_write_buffer>
    2996:	4501                	li	a0,0
    2998:	ffcfd06f          	j	194 <__riscv_restore_0>

0000299c <battery_voltage_get>:
    299c:	fd4fd2ef          	jal	t0,170 <__riscv_save_0>
    29a0:	8881d503          	lhu	a0,-1912(gp) # 200000f8 <battery>
    29a4:	88818413          	addi	s0,gp,-1912 # 200000f8 <battery>
    29a8:	649010ef          	jal	ra,47f0 <__floatunsisf>
    29ac:	8701a583          	lw	a1,-1936(gp) # 200000e0 <_impure_ptr+0x60>
    29b0:	294010ef          	jal	ra,3c44 <__divsf3>
    29b4:	6f9010ef          	jal	ra,48ac <__extendsfdf2>
    29b8:	8481a603          	lw	a2,-1976(gp) # 200000b8 <_impure_ptr+0x38>
    29bc:	84c1a683          	lw	a3,-1972(gp) # 200000bc <_impure_ptr+0x3c>
    29c0:	10b000ef          	jal	ra,32ca <__muldf3>
    29c4:	8541a683          	lw	a3,-1964(gp) # 200000c4 <_impure_ptr+0x44>
    29c8:	8501a603          	lw	a2,-1968(gp) # 200000c0 <_impure_ptr+0x40>
    29cc:	0ff000ef          	jal	ra,32ca <__muldf3>
    29d0:	645000ef          	jal	ra,3814 <__fixunsdfsi>
    29d4:	0542                	slli	a0,a0,0x10
    29d6:	8141                	srli	a0,a0,0x10
    29d8:	6709                	lui	a4,0x2
    29da:	a02a                	sh	a0,2(s0)
    29dc:	13370793          	addi	a5,a4,307 # 2133 <pwm_input_timeout_callback+0xf>
    29e0:	02a7e263          	bltu	a5,a0,2a04 <battery_voltage_get+0x68>
    29e4:	8841d503          	lhu	a0,-1916(gp) # 200000f4 <low_power_num.0>
    29e8:	71170713          	addi	a4,a4,1809
    29ec:	00150793          	addi	a5,a0,1
    29f0:	07c2                	slli	a5,a5,0x10
    29f2:	00e53533          	sltu	a0,a0,a4
    29f6:	83c1                	srli	a5,a5,0x10
    29f8:	00154513          	xori	a0,a0,1
    29fc:	88f19223          	sh	a5,-1916(gp) # 200000f4 <low_power_num.0>
    2a00:	f94fd06f          	j	194 <__riscv_restore_0>
    2a04:	4781                	li	a5,0
    2a06:	4501                	li	a0,0
    2a08:	bfd5                	j	29fc <battery_voltage_get+0x60>

00002a0a <battery_voltage_init>:
    2a0a:	f66fd2ef          	jal	t0,170 <__riscv_save_0>
    2a0e:	711d                	addi	sp,sp,-96
    2a10:	02000613          	li	a2,32
    2a14:	4581                	li	a1,0
    2a16:	0848                	addi	a0,sp,20
    2a18:	f88fd0ef          	jal	ra,1a0 <memset>
    2a1c:	4585                	li	a1,1
    2a1e:	4511                	li	a0,4
    2a20:	c402                	sw	zero,8(sp)
    2a22:	c602                	sw	zero,12(sp)
    2a24:	c802                	sw	zero,16(sp)
    2a26:	ec5fd0ef          	jal	ra,8ea <RCC_APB2PeriphClockCmd>
    2a2a:	4585                	li	a1,1
    2a2c:	20000513          	li	a0,512
    2a30:	ebbfd0ef          	jal	ra,8ea <RCC_APB2PeriphClockCmd>
    2a34:	6531                	lui	a0,0xc
    2a36:	dcdfd0ef          	jal	ra,802 <RCC_ADCCLKConfig>
    2a3a:	40011537          	lui	a0,0x40011
    2a3e:	4789                	li	a5,2
    2a40:	002c                	addi	a1,sp,8
    2a42:	80050513          	addi	a0,a0,-2048 # 40010800 <_eusrstack+0x2000b800>
    2a46:	40012437          	lui	s0,0x40012
    2a4a:	847c                	sh	a5,8(sp)
    2a4c:	c802                	sw	zero,16(sp)
    2a4e:	b55fd0ef          	jal	ra,5a2 <GPIO_Init>
    2a52:	40040513          	addi	a0,s0,1024 # 40012400 <_eusrstack+0x2000d400>
    2a56:	84dfd0ef          	jal	ra,2a2 <ADC_DeInit>
    2a5a:	4785                	li	a5,1
    2a5c:	000e0737          	lui	a4,0xe0
    2a60:	084c                	addi	a1,sp,20
    2a62:	40040513          	addi	a0,s0,1024
    2a66:	cc3e                	sw	a5,24(sp)
    2a68:	ce3e                	sw	a5,28(sp)
    2a6a:	d03a                	sw	a4,32(sp)
    2a6c:	02f10423          	sb	a5,40(sp)
    2a70:	ca02                	sw	zero,20(sp)
    2a72:	d202                	sw	zero,36(sp)
    2a74:	86dfd0ef          	jal	ra,2e0 <ADC_Init>
    2a78:	4585                	li	a1,1
    2a7a:	40040513          	addi	a0,s0,1024
    2a7e:	8c9fd0ef          	jal	ra,346 <ADC_DMACmd>
    2a82:	4585                	li	a1,1
    2a84:	40040513          	addi	a0,s0,1024
    2a88:	8affd0ef          	jal	ra,336 <ADC_Cmd>
    2a8c:	40040513          	addi	a0,s0,1024
    2a90:	8c9fd0ef          	jal	ra,358 <ADC_ResetCalibration>
    2a94:	40040493          	addi	s1,s0,1024
    2a98:	8526                	mv	a0,s1
    2a9a:	8c9fd0ef          	jal	ra,362 <ADC_GetResetCalibrationStatus>
    2a9e:	fd6d                	bnez	a0,2a98 <battery_voltage_init+0x8e>
    2aa0:	40040513          	addi	a0,s0,1024
    2aa4:	40012437          	lui	s0,0x40012
    2aa8:	8c3fd0ef          	jal	ra,36a <ADC_StartCalibration>
    2aac:	40040493          	addi	s1,s0,1024 # 40012400 <_eusrstack+0x2000d400>
    2ab0:	8526                	mv	a0,s1
    2ab2:	8c3fd0ef          	jal	ra,374 <ADC_GetCalibrationStatus>
    2ab6:	fd6d                	bnez	a0,2ab0 <battery_voltage_init+0xa6>
    2ab8:	02c00613          	li	a2,44
    2abc:	4581                	li	a1,0
    2abe:	1848                	addi	a0,sp,52
    2ac0:	ee0fd0ef          	jal	ra,1a0 <memset>
    2ac4:	4585                	li	a1,1
    2ac6:	4505                	li	a0,1
    2ac8:	e05fd0ef          	jal	ra,8cc <RCC_AHBPeriphClockCmd>
    2acc:	400204b7          	lui	s1,0x40020
    2ad0:	00848513          	addi	a0,s1,8 # 40020008 <_eusrstack+0x2001b008>
    2ad4:	979fd0ef          	jal	ra,44c <DMA_DeInit>
    2ad8:	44c40793          	addi	a5,s0,1100
    2adc:	da3e                	sw	a5,52(sp)
    2ade:	88818793          	addi	a5,gp,-1912 # 200000f8 <battery>
    2ae2:	dc3e                	sw	a5,56(sp)
    2ae4:	4785                	li	a5,1
    2ae6:	c0be                	sw	a5,64(sp)
    2ae8:	10000793          	li	a5,256
    2aec:	c6be                	sw	a5,76(sp)
    2aee:	40000793          	li	a5,1024
    2af2:	c8be                	sw	a5,80(sp)
    2af4:	02000793          	li	a5,32
    2af8:	cabe                	sw	a5,84(sp)
    2afa:	184c                	addi	a1,sp,52
    2afc:	678d                	lui	a5,0x3
    2afe:	00848513          	addi	a0,s1,8
    2b02:	ccbe                	sw	a5,88(sp)
    2b04:	de02                	sw	zero,60(sp)
    2b06:	c282                	sw	zero,68(sp)
    2b08:	c482                	sw	zero,72(sp)
    2b0a:	ce82                	sw	zero,92(sp)
    2b0c:	9ddfd0ef          	jal	ra,4e8 <DMA_Init>
    2b10:	00848513          	addi	a0,s1,8
    2b14:	4585                	li	a1,1
    2b16:	a0bfd0ef          	jal	ra,520 <DMA_Cmd>
    2b1a:	469d                	li	a3,7
    2b1c:	4605                	li	a2,1
    2b1e:	40040513          	addi	a0,s0,1024
    2b22:	4585                	li	a1,1
    2b24:	871fd0ef          	jal	ra,394 <ADC_RegularChannelConfig>
    2b28:	4585                	li	a1,1
    2b2a:	40040513          	addi	a0,s0,1024
    2b2e:	84ffd0ef          	jal	ra,37c <ADC_SoftwareStartConvCmd>
    2b32:	6125                	addi	sp,sp,96
    2b34:	e60fd06f          	j	194 <__riscv_restore_0>

00002b38 <system_delay>:
    2b38:	02b50633          	mul	a2,a0,a1
    2b3c:	e000f7b7          	lui	a5,0xe000f
    2b40:	43d8                	lw	a4,4(a5)
    2b42:	9b79                	andi	a4,a4,-2
    2b44:	c3d8                	sw	a4,4(a5)
    2b46:	02b536b3          	mulhu	a3,a0,a1
    2b4a:	cb90                	sw	a2,16(a5)
    2b4c:	cbd4                	sw	a3,20(a5)
    2b4e:	4398                	lw	a4,0(a5)
    2b50:	01076713          	ori	a4,a4,16
    2b54:	c398                	sw	a4,0(a5)
    2b56:	4398                	lw	a4,0(a5)
    2b58:	02176713          	ori	a4,a4,33
    2b5c:	c398                	sw	a4,0(a5)
    2b5e:	43d8                	lw	a4,4(a5)
    2b60:	8b05                	andi	a4,a4,1
    2b62:	df75                	beqz	a4,2b5e <system_delay+0x26>
    2b64:	4398                	lw	a4,0(a5)
    2b66:	9b79                	andi	a4,a4,-2
    2b68:	c398                	sw	a4,0(a5)
    2b6a:	8082                	ret

00002b6c <iwdg_init>:
    2b6c:	e04fd2ef          	jal	t0,170 <__riscv_save_0>
    2b70:	842a                	mv	s0,a0
    2b72:	6515                	lui	a0,0x5
    2b74:	55550513          	addi	a0,a0,1365 # 5555 <sbrk_aligned+0x2f>
    2b78:	c57fd0ef          	jal	ra,7ce <IWDG_WriteAccessCmd>
    2b7c:	4501                	li	a0,0
    2b7e:	c59fd0ef          	jal	ra,7d6 <IWDG_SetPrescaler>
    2b82:	8522                	mv	a0,s0
    2b84:	c5bfd0ef          	jal	ra,7de <IWDG_SetReload>
    2b88:	c5ffd0ef          	jal	ra,7e6 <IWDG_ReloadCounter>
    2b8c:	c69fd0ef          	jal	ra,7f4 <IWDG_Enable>
    2b90:	e04fd06f          	j	194 <__riscv_restore_0>

00002b94 <led_run_toggle>:
    2b94:	400117b7          	lui	a5,0x40011
    2b98:	c0078793          	addi	a5,a5,-1024 # 40010c00 <_eusrstack+0x2000bc00>
    2b9c:	47d8                	lw	a4,12(a5)
    2b9e:	20074713          	xori	a4,a4,512
    2ba2:	c7d8                	sw	a4,12(a5)
    2ba4:	8082                	ret

00002ba6 <led_err_toggle>:
    2ba6:	400117b7          	lui	a5,0x40011
    2baa:	c0078793          	addi	a5,a5,-1024 # 40010c00 <_eusrstack+0x2000bc00>
    2bae:	47d8                	lw	a4,12(a5)
    2bb0:	10074713          	xori	a4,a4,256
    2bb4:	c7d8                	sw	a4,12(a5)
    2bb6:	8082                	ret

00002bb8 <led_control>:
    2bb8:	db8fd2ef          	jal	t0,170 <__riscv_save_0>
    2bbc:	88c1a783          	lw	a5,-1908(gp) # 200000fc <time_count.0>
    2bc0:	0785                	addi	a5,a5,1
    2bc2:	88f1a623          	sw	a5,-1908(gp) # 200000fc <time_count.0>
    2bc6:	8a81c603          	lbu	a2,-1880(gp) # 20000118 <motor>
    2bca:	4711                	li	a4,4
    2bcc:	04e60b63          	beq	a2,a4,2c22 <led_control+0x6a>
    2bd0:	0ff67693          	zext.b	a3,a2
    2bd4:	00d76f63          	bltu	a4,a3,2bf2 <led_control+0x3a>
    2bd8:	40011737          	lui	a4,0x40011
    2bdc:	c0070713          	addi	a4,a4,-1024 # 40010c00 <_eusrstack+0x2000bc00>
    2be0:	c69d                	beqz	a3,2c0e <led_control+0x56>
    2be2:	20000793          	li	a5,512
    2be6:	cb5c                	sw	a5,20(a4)
    2be8:	10000793          	li	a5,256
    2bec:	cb1c                	sw	a5,16(a4)
    2bee:	da6fd06f          	j	194 <__riscv_restore_0>
    2bf2:	4799                	li	a5,6
    2bf4:	fef69de3          	bne	a3,a5,2bee <led_control+0x36>
    2bf8:	400117b7          	lui	a5,0x40011
    2bfc:	c0078793          	addi	a5,a5,-1024 # 40010c00 <_eusrstack+0x2000bc00>
    2c00:	20000713          	li	a4,512
    2c04:	cb98                	sw	a4,16(a5)
    2c06:	10000713          	li	a4,256
    2c0a:	cbd8                	sw	a4,20(a5)
    2c0c:	b7cd                	j	2bee <led_control+0x36>
    2c0e:	10000693          	li	a3,256
    2c12:	cb14                	sw	a3,16(a4)
    2c14:	7d000713          	li	a4,2000
    2c18:	02e7f7b3          	remu	a5,a5,a4
    2c1c:	fbe9                	bnez	a5,2bee <led_control+0x36>
    2c1e:	3f9d                	jal	2b94 <led_run_toggle>
    2c20:	b7f9                	j	2bee <led_control+0x36>
    2c22:	40011737          	lui	a4,0x40011
    2c26:	c0070713          	addi	a4,a4,-1024 # 40010c00 <_eusrstack+0x2000bc00>
    2c2a:	20000693          	li	a3,512
    2c2e:	cb14                	sw	a3,16(a4)
    2c30:	7d000713          	li	a4,2000
    2c34:	02e7f7b3          	remu	a5,a5,a4
    2c38:	fbdd                	bnez	a5,2bee <led_control+0x36>
    2c3a:	37b5                	jal	2ba6 <led_err_toggle>
    2c3c:	bf4d                	j	2bee <led_control+0x36>

00002c3e <led_init>:
    2c3e:	d18fd2ef          	jal	t0,156 <__riscv_save_4>
    2c42:	1141                	addi	sp,sp,-16
    2c44:	4585                	li	a1,1
    2c46:	4535                	li	a0,13
    2c48:	ca3fd0ef          	jal	ra,8ea <RCC_APB2PeriphClockCmd>
    2c4c:	40011437          	lui	s0,0x40011
    2c50:	20000913          	li	s2,512
    2c54:	498d                	li	s3,3
    2c56:	4a41                	li	s4,16
    2c58:	004c                	addi	a1,sp,4
    2c5a:	c0040513          	addi	a0,s0,-1024 # 40010c00 <_eusrstack+0x2000bc00>
    2c5e:	c24a                	sw	s2,4(sp)
    2c60:	c44e                	sw	s3,8(sp)
    2c62:	c652                	sw	s4,12(sp)
    2c64:	93ffd0ef          	jal	ra,5a2 <GPIO_Init>
    2c68:	10000493          	li	s1,256
    2c6c:	004c                	addi	a1,sp,4
    2c6e:	c0040513          	addi	a0,s0,-1024
    2c72:	c0040413          	addi	s0,s0,-1024
    2c76:	8264                	sh	s1,4(sp)
    2c78:	c652                	sw	s4,12(sp)
    2c7a:	c44e                	sw	s3,8(sp)
    2c7c:	927fd0ef          	jal	ra,5a2 <GPIO_Init>
    2c80:	01242a23          	sw	s2,20(s0)
    2c84:	c804                	sw	s1,16(s0)
    2c86:	0141                	addi	sp,sp,16
    2c88:	d02fd06f          	j	18a <__riscv_restore_4>

00002c8c <usart_init>:
    2c8c:	ce4fd2ef          	jal	t0,170 <__riscv_save_0>
    2c90:	842a                	mv	s0,a0
    2c92:	6511                	lui	a0,0x4
    2c94:	1101                	addi	sp,sp,-32
    2c96:	4585                	li	a1,1
    2c98:	0525                	addi	a0,a0,9 # 4009 <__lesf2+0x45>
    2c9a:	c51fd0ef          	jal	ra,8ea <RCC_APB2PeriphClockCmd>
    2c9e:	4585                	li	a1,1
    2ca0:	4511                	li	a0,4
    2ca2:	9effd0ef          	jal	ra,690 <GPIO_PinRemapConfig>
    2ca6:	04000793          	li	a5,64
    2caa:	827c                	sh	a5,4(sp)
    2cac:	40011537          	lui	a0,0x40011
    2cb0:	478d                	li	a5,3
    2cb2:	c43e                	sw	a5,8(sp)
    2cb4:	004c                	addi	a1,sp,4
    2cb6:	47e1                	li	a5,24
    2cb8:	c0050513          	addi	a0,a0,-1024 # 40010c00 <_eusrstack+0x2000bc00>
    2cbc:	c63e                	sw	a5,12(sp)
    2cbe:	8e5fd0ef          	jal	ra,5a2 <GPIO_Init>
    2cc2:	c822                	sw	s0,16(sp)
    2cc4:	40014437          	lui	s0,0x40014
    2cc8:	000807b7          	lui	a5,0x80
    2ccc:	080c                	addi	a1,sp,16
    2cce:	80040513          	addi	a0,s0,-2048 # 40013800 <_eusrstack+0x2000e800>
    2cd2:	cc3e                	sw	a5,24(sp)
    2cd4:	ca02                	sw	zero,20(sp)
    2cd6:	00011e23          	sh	zero,28(sp)
    2cda:	bf4fe0ef          	jal	ra,10ce <USART_Init>
    2cde:	4585                	li	a1,1
    2ce0:	80040513          	addi	a0,s0,-2048
    2ce4:	c9efe0ef          	jal	ra,1182 <USART_Cmd>
    2ce8:	6105                	addi	sp,sp,32
    2cea:	caafd06f          	j	194 <__riscv_restore_0>

00002cee <uart_write_byte>:
    2cee:	40014737          	lui	a4,0x40014
    2cf2:	80075783          	lhu	a5,-2048(a4) # 40013800 <_eusrstack+0x2000e800>
    2cf6:	0807f793          	andi	a5,a5,128
    2cfa:	dfe5                	beqz	a5,2cf2 <uart_write_byte+0x4>
    2cfc:	80a71223          	sh	a0,-2044(a4)
    2d00:	8082                	ret

00002d02 <uart_write_buffer>:
    2d02:	c6efd2ef          	jal	t0,170 <__riscv_save_0>
    2d06:	842a                	mv	s0,a0
    2d08:	00b504b3          	add	s1,a0,a1
    2d0c:	00941463          	bne	s0,s1,2d14 <uart_write_buffer+0x12>
    2d10:	c84fd06f          	j	194 <__riscv_restore_0>
    2d14:	2008                	lbu	a0,0(s0)
    2d16:	0405                	addi	s0,s0,1
    2d18:	3fd9                	jal	2cee <uart_write_byte>
    2d1a:	bfcd                	j	2d0c <uart_write_buffer+0xa>

00002d1c <__divdf3>:
    2d1c:	7179                	addi	sp,sp,-48
    2d1e:	0145d793          	srli	a5,a1,0x14
    2d22:	d422                	sw	s0,40(sp)
    2d24:	d226                	sw	s1,36(sp)
    2d26:	d04a                	sw	s2,32(sp)
    2d28:	ca56                	sw	s5,20(sp)
    2d2a:	c65e                	sw	s7,12(sp)
    2d2c:	00c59493          	slli	s1,a1,0xc
    2d30:	d606                	sw	ra,44(sp)
    2d32:	ce4e                	sw	s3,28(sp)
    2d34:	cc52                	sw	s4,24(sp)
    2d36:	c85a                	sw	s6,16(sp)
    2d38:	c462                	sw	s8,8(sp)
    2d3a:	7ff7f793          	andi	a5,a5,2047
    2d3e:	842a                	mv	s0,a0
    2d40:	8bb2                	mv	s7,a2
    2d42:	8936                	mv	s2,a3
    2d44:	80b1                	srli	s1,s1,0xc
    2d46:	01f5da93          	srli	s5,a1,0x1f
    2d4a:	10078c63          	beqz	a5,2e62 <__divdf3+0x146>
    2d4e:	7ff00713          	li	a4,2047
    2d52:	14e78763          	beq	a5,a4,2ea0 <__divdf3+0x184>
    2d56:	048e                	slli	s1,s1,0x3
    2d58:	01d55b13          	srli	s6,a0,0x1d
    2d5c:	009b6b33          	or	s6,s6,s1
    2d60:	00800737          	lui	a4,0x800
    2d64:	00eb6b33          	or	s6,s6,a4
    2d68:	00351a13          	slli	s4,a0,0x3
    2d6c:	c0178993          	addi	s3,a5,-1023 # 7fc01 <_data_lma+0x797c9>
    2d70:	4481                	li	s1,0
    2d72:	4c01                	li	s8,0
    2d74:	01495793          	srli	a5,s2,0x14
    2d78:	00c91413          	slli	s0,s2,0xc
    2d7c:	7ff7f793          	andi	a5,a5,2047
    2d80:	8031                	srli	s0,s0,0xc
    2d82:	01f95913          	srli	s2,s2,0x1f
    2d86:	c3d5                	beqz	a5,2e2a <__divdf3+0x10e>
    2d88:	7ff00713          	li	a4,2047
    2d8c:	08e78463          	beq	a5,a4,2e14 <__divdf3+0xf8>
    2d90:	040e                	slli	s0,s0,0x3
    2d92:	01dbd713          	srli	a4,s7,0x1d
    2d96:	8f41                	or	a4,a4,s0
    2d98:	c0178793          	addi	a5,a5,-1023
    2d9c:	00800437          	lui	s0,0x800
    2da0:	8c59                	or	s0,s0,a4
    2da2:	003b9893          	slli	a7,s7,0x3
    2da6:	40f989b3          	sub	s3,s3,a5
    2daa:	4601                	li	a2,0
    2dac:	473d                	li	a4,15
    2dae:	012ac6b3          	xor	a3,s5,s2
    2db2:	18976863          	bltu	a4,s1,2f42 <__divdf3+0x226>
    2db6:	00003717          	auipc	a4,0x3
    2dba:	2da70713          	addi	a4,a4,730 # 6090 <_exit+0x72>
    2dbe:	048a                	slli	s1,s1,0x2
    2dc0:	94ba                	add	s1,s1,a4
    2dc2:	409c                	lw	a5,0(s1)
    2dc4:	97ba                	add	a5,a5,a4
    2dc6:	8782                	jr	a5
    2dc8:	8f1d                	sub	a4,a4,a5
    2dca:	03800613          	li	a2,56
    2dce:	40e65c63          	bge	a2,a4,31e6 <__divdf3+0x4ca>
    2dd2:	4781                	li	a5,0
    2dd4:	4601                	li	a2,0
    2dd6:	4701                	li	a4,0
    2dd8:	50b2                	lw	ra,44(sp)
    2dda:	5422                	lw	s0,40(sp)
    2ddc:	07d2                	slli	a5,a5,0x14
    2dde:	8fd1                	or	a5,a5,a2
    2de0:	06fe                	slli	a3,a3,0x1f
    2de2:	8fd5                	or	a5,a5,a3
    2de4:	5492                	lw	s1,36(sp)
    2de6:	5902                	lw	s2,32(sp)
    2de8:	49f2                	lw	s3,28(sp)
    2dea:	4a62                	lw	s4,24(sp)
    2dec:	4ad2                	lw	s5,20(sp)
    2dee:	4b42                	lw	s6,16(sp)
    2df0:	4bb2                	lw	s7,12(sp)
    2df2:	4c22                	lw	s8,8(sp)
    2df4:	853a                	mv	a0,a4
    2df6:	85be                	mv	a1,a5
    2df8:	6145                	addi	sp,sp,48
    2dfa:	8082                	ret
    2dfc:	7ff00793          	li	a5,2047
    2e00:	4601                	li	a2,0
    2e02:	4701                	li	a4,0
    2e04:	bfd1                	j	2dd8 <__divdf3+0xbc>
    2e06:	4681                	li	a3,0
    2e08:	7ff00793          	li	a5,2047
    2e0c:	00080637          	lui	a2,0x80
    2e10:	4701                	li	a4,0
    2e12:	b7d9                	j	2dd8 <__divdf3+0xbc>
    2e14:	017468b3          	or	a7,s0,s7
    2e18:	80198993          	addi	s3,s3,-2047
    2e1c:	10089963          	bnez	a7,2f2e <__divdf3+0x212>
    2e20:	0024e493          	ori	s1,s1,2
    2e24:	4401                	li	s0,0
    2e26:	4609                	li	a2,2
    2e28:	b751                	j	2dac <__divdf3+0x90>
    2e2a:	017468b3          	or	a7,s0,s7
    2e2e:	0e088b63          	beqz	a7,2f24 <__divdf3+0x208>
    2e32:	36040663          	beqz	s0,319e <__divdf3+0x482>
    2e36:	8522                	mv	a0,s0
    2e38:	487010ef          	jal	ra,4abe <__clzsi2>
    2e3c:	87aa                	mv	a5,a0
    2e3e:	ff550693          	addi	a3,a0,-11
    2e42:	4775                	li	a4,29
    2e44:	ff878893          	addi	a7,a5,-8
    2e48:	8f15                	sub	a4,a4,a3
    2e4a:	01141433          	sll	s0,s0,a7
    2e4e:	00ebd733          	srl	a4,s7,a4
    2e52:	8c59                	or	s0,s0,a4
    2e54:	011b98b3          	sll	a7,s7,a7
    2e58:	97ce                	add	a5,a5,s3
    2e5a:	3f378993          	addi	s3,a5,1011
    2e5e:	4601                	li	a2,0
    2e60:	b7b1                	j	2dac <__divdf3+0x90>
    2e62:	00a4eb33          	or	s6,s1,a0
    2e66:	0c0b0963          	beqz	s6,2f38 <__divdf3+0x21c>
    2e6a:	30048b63          	beqz	s1,3180 <__divdf3+0x464>
    2e6e:	8526                	mv	a0,s1
    2e70:	44f010ef          	jal	ra,4abe <__clzsi2>
    2e74:	872a                	mv	a4,a0
    2e76:	ff550693          	addi	a3,a0,-11
    2e7a:	47f5                	li	a5,29
    2e7c:	ff870a13          	addi	s4,a4,-8
    2e80:	8f95                	sub	a5,a5,a3
    2e82:	014494b3          	sll	s1,s1,s4
    2e86:	00f457b3          	srl	a5,s0,a5
    2e8a:	0097eb33          	or	s6,a5,s1
    2e8e:	01441a33          	sll	s4,s0,s4
    2e92:	c0d00793          	li	a5,-1011
    2e96:	40e789b3          	sub	s3,a5,a4
    2e9a:	4481                	li	s1,0
    2e9c:	4c01                	li	s8,0
    2e9e:	bdd9                	j	2d74 <__divdf3+0x58>
    2ea0:	00a4eb33          	or	s6,s1,a0
    2ea4:	060b1963          	bnez	s6,2f16 <__divdf3+0x1fa>
    2ea8:	4a01                	li	s4,0
    2eaa:	44a1                	li	s1,8
    2eac:	7ff00993          	li	s3,2047
    2eb0:	4c09                	li	s8,2
    2eb2:	b5c9                	j	2d74 <__divdf3+0x58>
    2eb4:	8c32                	mv	s8,a2
    2eb6:	4789                	li	a5,2
    2eb8:	3efc0263          	beq	s8,a5,329c <__divdf3+0x580>
    2ebc:	478d                	li	a5,3
    2ebe:	f4fc04e3          	beq	s8,a5,2e06 <__divdf3+0xea>
    2ec2:	4785                	li	a5,1
    2ec4:	86ca                	mv	a3,s2
    2ec6:	f0fc06e3          	beq	s8,a5,2dd2 <__divdf3+0xb6>
    2eca:	3ff98793          	addi	a5,s3,1023
    2ece:	22f05063          	blez	a5,30ee <__divdf3+0x3d2>
    2ed2:	0078f713          	andi	a4,a7,7
    2ed6:	3a071963          	bnez	a4,3288 <__divdf3+0x56c>
    2eda:	01000737          	lui	a4,0x1000
    2ede:	8f61                	and	a4,a4,s0
    2ee0:	c719                	beqz	a4,2eee <__divdf3+0x1d2>
    2ee2:	ff0007b7          	lui	a5,0xff000
    2ee6:	17fd                	addi	a5,a5,-1 # feffffff <_eusrstack+0xdeffafff>
    2ee8:	8c7d                	and	s0,s0,a5
    2eea:	40098793          	addi	a5,s3,1024
    2eee:	7fe00713          	li	a4,2046
    2ef2:	f0f745e3          	blt	a4,a5,2dfc <__divdf3+0xe0>
    2ef6:	0038d893          	srli	a7,a7,0x3
    2efa:	01d41713          	slli	a4,s0,0x1d
    2efe:	00941613          	slli	a2,s0,0x9
    2f02:	01176733          	or	a4,a4,a7
    2f06:	8231                	srli	a2,a2,0xc
    2f08:	7ff7f793          	andi	a5,a5,2047
    2f0c:	b5f1                	j	2dd8 <__divdf3+0xbc>
    2f0e:	8956                	mv	s2,s5
    2f10:	845a                	mv	s0,s6
    2f12:	88d2                	mv	a7,s4
    2f14:	b74d                	j	2eb6 <__divdf3+0x19a>
    2f16:	8b26                	mv	s6,s1
    2f18:	8a2a                	mv	s4,a0
    2f1a:	44b1                	li	s1,12
    2f1c:	7ff00993          	li	s3,2047
    2f20:	4c0d                	li	s8,3
    2f22:	bd89                	j	2d74 <__divdf3+0x58>
    2f24:	0014e493          	ori	s1,s1,1
    2f28:	4401                	li	s0,0
    2f2a:	4605                	li	a2,1
    2f2c:	b541                	j	2dac <__divdf3+0x90>
    2f2e:	0034e493          	ori	s1,s1,3
    2f32:	88de                	mv	a7,s7
    2f34:	460d                	li	a2,3
    2f36:	bd9d                	j	2dac <__divdf3+0x90>
    2f38:	4a01                	li	s4,0
    2f3a:	4491                	li	s1,4
    2f3c:	4981                	li	s3,0
    2f3e:	4c05                	li	s8,1
    2f40:	bd15                	j	2d74 <__divdf3+0x58>
    2f42:	23646563          	bltu	s0,s6,316c <__divdf3+0x450>
    2f46:	228b0163          	beq	s6,s0,3168 <__divdf3+0x44c>
    2f4a:	8352                	mv	t1,s4
    2f4c:	19fd                	addi	s3,s3,-1
    2f4e:	87da                	mv	a5,s6
    2f50:	4a01                	li	s4,0
    2f52:	00841713          	slli	a4,s0,0x8
    2f56:	01075513          	srli	a0,a4,0x10
    2f5a:	02a7d433          	divu	s0,a5,a0
    2f5e:	0188d613          	srli	a2,a7,0x18
    2f62:	8e59                	or	a2,a2,a4
    2f64:	01061813          	slli	a6,a2,0x10
    2f68:	01085813          	srli	a6,a6,0x10
    2f6c:	00889593          	slli	a1,a7,0x8
    2f70:	01035713          	srli	a4,t1,0x10
    2f74:	02a7f7b3          	remu	a5,a5,a0
    2f78:	028808b3          	mul	a7,a6,s0
    2f7c:	07c2                	slli	a5,a5,0x10
    2f7e:	8fd9                	or	a5,a5,a4
    2f80:	0117f863          	bgeu	a5,a7,2f90 <__divdf3+0x274>
    2f84:	97b2                	add	a5,a5,a2
    2f86:	fff40713          	addi	a4,s0,-1 # 7fffff <_data_lma+0x7f9bc7>
    2f8a:	24c7f963          	bgeu	a5,a2,31dc <__divdf3+0x4c0>
    2f8e:	843a                	mv	s0,a4
    2f90:	411787b3          	sub	a5,a5,a7
    2f94:	02a7d8b3          	divu	a7,a5,a0
    2f98:	01031713          	slli	a4,t1,0x10
    2f9c:	8341                	srli	a4,a4,0x10
    2f9e:	02a7f7b3          	remu	a5,a5,a0
    2fa2:	03180fb3          	mul	t6,a6,a7
    2fa6:	07c2                	slli	a5,a5,0x10
    2fa8:	8f5d                	or	a4,a4,a5
    2faa:	01f77863          	bgeu	a4,t6,2fba <__divdf3+0x29e>
    2fae:	9732                	add	a4,a4,a2
    2fb0:	fff88793          	addi	a5,a7,-1
    2fb4:	20c77f63          	bgeu	a4,a2,31d2 <__divdf3+0x4b6>
    2fb8:	88be                	mv	a7,a5
    2fba:	0442                	slli	s0,s0,0x10
    2fbc:	62c1                	lui	t0,0x10
    2fbe:	01146433          	or	s0,s0,a7
    2fc2:	fff28313          	addi	t1,t0,-1 # ffff <_data_lma+0x9bc7>
    2fc6:	006478b3          	and	a7,s0,t1
    2fca:	01045e93          	srli	t4,s0,0x10
    2fce:	0105de13          	srli	t3,a1,0x10
    2fd2:	0065f333          	and	t1,a1,t1
    2fd6:	03130f33          	mul	t5,t1,a7
    2fda:	41f70733          	sub	a4,a4,t6
    2fde:	031e08b3          	mul	a7,t3,a7
    2fe2:	010f5793          	srli	a5,t5,0x10
    2fe6:	026e8fb3          	mul	t6,t4,t1
    2fea:	98fe                	add	a7,a7,t6
    2fec:	97c6                	add	a5,a5,a7
    2fee:	03ce8eb3          	mul	t4,t4,t3
    2ff2:	01f7f363          	bgeu	a5,t6,2ff8 <__divdf3+0x2dc>
    2ff6:	9e96                	add	t4,t4,t0
    2ff8:	6fc1                	lui	t6,0x10
    2ffa:	1ffd                	addi	t6,t6,-1 # ffff <_data_lma+0x9bc7>
    2ffc:	0107d893          	srli	a7,a5,0x10
    3000:	01f7f7b3          	and	a5,a5,t6
    3004:	07c2                	slli	a5,a5,0x10
    3006:	01ff7f33          	and	t5,t5,t6
    300a:	98f6                	add	a7,a7,t4
    300c:	97fa                	add	a5,a5,t5
    300e:	13176b63          	bltu	a4,a7,3144 <__divdf3+0x428>
    3012:	13170763          	beq	a4,a7,3140 <__divdf3+0x424>
    3016:	40fa07b3          	sub	a5,s4,a5
    301a:	41170733          	sub	a4,a4,a7
    301e:	00fa3a33          	sltu	s4,s4,a5
    3022:	41470733          	sub	a4,a4,s4
    3026:	24e60363          	beq	a2,a4,326c <__divdf3+0x550>
    302a:	02a758b3          	divu	a7,a4,a0
    302e:	0107de93          	srli	t4,a5,0x10
    3032:	02a77733          	remu	a4,a4,a0
    3036:	03180f33          	mul	t5,a6,a7
    303a:	0742                	slli	a4,a4,0x10
    303c:	00eee733          	or	a4,t4,a4
    3040:	01e77b63          	bgeu	a4,t5,3056 <__divdf3+0x33a>
    3044:	9732                	add	a4,a4,a2
    3046:	fff88e93          	addi	t4,a7,-1
    304a:	24c76763          	bltu	a4,a2,3298 <__divdf3+0x57c>
    304e:	25e77563          	bgeu	a4,t5,3298 <__divdf3+0x57c>
    3052:	18f9                	addi	a7,a7,-2
    3054:	9732                	add	a4,a4,a2
    3056:	41e70733          	sub	a4,a4,t5
    305a:	02a75eb3          	divu	t4,a4,a0
    305e:	07c2                	slli	a5,a5,0x10
    3060:	83c1                	srli	a5,a5,0x10
    3062:	02a77733          	remu	a4,a4,a0
    3066:	03d80833          	mul	a6,a6,t4
    306a:	0742                	slli	a4,a4,0x10
    306c:	8fd9                	or	a5,a5,a4
    306e:	0107fb63          	bgeu	a5,a6,3084 <__divdf3+0x368>
    3072:	97b2                	add	a5,a5,a2
    3074:	fffe8713          	addi	a4,t4,-1
    3078:	20c7ee63          	bltu	a5,a2,3294 <__divdf3+0x578>
    307c:	2107fc63          	bgeu	a5,a6,3294 <__divdf3+0x578>
    3080:	1ef9                	addi	t4,t4,-2
    3082:	97b2                	add	a5,a5,a2
    3084:	08c2                	slli	a7,a7,0x10
    3086:	01d8e8b3          	or	a7,a7,t4
    308a:	01089513          	slli	a0,a7,0x10
    308e:	0108df13          	srli	t5,a7,0x10
    3092:	8141                	srli	a0,a0,0x10
    3094:	02650eb3          	mul	t4,a0,t1
    3098:	410787b3          	sub	a5,a5,a6
    309c:	02ae0533          	mul	a0,t3,a0
    30a0:	010ed713          	srli	a4,t4,0x10
    30a4:	026f0333          	mul	t1,t5,t1
    30a8:	951a                	add	a0,a0,t1
    30aa:	972a                	add	a4,a4,a0
    30ac:	03ee0e33          	mul	t3,t3,t5
    30b0:	00677463          	bgeu	a4,t1,30b8 <__divdf3+0x39c>
    30b4:	6541                	lui	a0,0x10
    30b6:	9e2a                	add	t3,t3,a0
    30b8:	6841                	lui	a6,0x10
    30ba:	187d                	addi	a6,a6,-1 # ffff <_data_lma+0x9bc7>
    30bc:	01075513          	srli	a0,a4,0x10
    30c0:	01077733          	and	a4,a4,a6
    30c4:	0742                	slli	a4,a4,0x10
    30c6:	010efeb3          	and	t4,t4,a6
    30ca:	9572                	add	a0,a0,t3
    30cc:	9776                	add	a4,a4,t4
    30ce:	0ea7f763          	bgeu	a5,a0,31bc <__divdf3+0x4a0>
    30d2:	97b2                	add	a5,a5,a2
    30d4:	fff88313          	addi	t1,a7,-1
    30d8:	883e                	mv	a6,a5
    30da:	16c7e763          	bltu	a5,a2,3248 <__divdf3+0x52c>
    30de:	1ca7e563          	bltu	a5,a0,32a8 <__divdf3+0x58c>
    30e2:	1ca78e63          	beq	a5,a0,32be <__divdf3+0x5a2>
    30e6:	889a                	mv	a7,t1
    30e8:	0018e893          	ori	a7,a7,1
    30ec:	bbf9                	j	2eca <__divdf3+0x1ae>
    30ee:	4705                	li	a4,1
    30f0:	cc079ce3          	bnez	a5,2dc8 <__divdf3+0xac>
    30f4:	41e98793          	addi	a5,s3,1054
    30f8:	00f89633          	sll	a2,a7,a5
    30fc:	00c03633          	snez	a2,a2
    3100:	00f417b3          	sll	a5,s0,a5
    3104:	8fd1                	or	a5,a5,a2
    3106:	00e8d8b3          	srl	a7,a7,a4
    310a:	00f8e8b3          	or	a7,a7,a5
    310e:	0078f793          	andi	a5,a7,7
    3112:	00e45433          	srl	s0,s0,a4
    3116:	cf81                	beqz	a5,312e <__divdf3+0x412>
    3118:	00f8f793          	andi	a5,a7,15
    311c:	4711                	li	a4,4
    311e:	00e78863          	beq	a5,a4,312e <__divdf3+0x412>
    3122:	00488793          	addi	a5,a7,4
    3126:	0117b8b3          	sltu	a7,a5,a7
    312a:	9446                	add	s0,s0,a7
    312c:	88be                	mv	a7,a5
    312e:	008005b7          	lui	a1,0x800
    3132:	8de1                	and	a1,a1,s0
    3134:	4785                	li	a5,1
    3136:	4601                	li	a2,0
    3138:	4701                	li	a4,0
    313a:	c8059fe3          	bnez	a1,2dd8 <__divdf3+0xbc>
    313e:	a8d5                	j	3232 <__divdf3+0x516>
    3140:	ecfa7be3          	bgeu	s4,a5,3016 <__divdf3+0x2fa>
    3144:	00ba0eb3          	add	t4,s4,a1
    3148:	014ebf33          	sltu	t5,t4,s4
    314c:	00cf0fb3          	add	t6,t5,a2
    3150:	977e                	add	a4,a4,t6
    3152:	8a76                	mv	s4,t4
    3154:	fff40f93          	addi	t6,s0,-1
    3158:	06e67763          	bgeu	a2,a4,31c6 <__divdf3+0x4aa>
    315c:	11176063          	bltu	a4,a7,325c <__divdf3+0x540>
    3160:	0ee88c63          	beq	a7,a4,3258 <__divdf3+0x53c>
    3164:	847e                	mv	s0,t6
    3166:	bd45                	j	3016 <__divdf3+0x2fa>
    3168:	df1a61e3          	bltu	s4,a7,2f4a <__divdf3+0x22e>
    316c:	001a5713          	srli	a4,s4,0x1
    3170:	01fb1313          	slli	t1,s6,0x1f
    3174:	001b5793          	srli	a5,s6,0x1
    3178:	00e36333          	or	t1,t1,a4
    317c:	0a7e                	slli	s4,s4,0x1f
    317e:	bbd1                	j	2f52 <__divdf3+0x236>
    3180:	13f010ef          	jal	ra,4abe <__clzsi2>
    3184:	01550693          	addi	a3,a0,21 # 10015 <_data_lma+0x9bdd>
    3188:	47f1                	li	a5,28
    318a:	02050713          	addi	a4,a0,32
    318e:	ced7d6e3          	bge	a5,a3,2e7a <__divdf3+0x15e>
    3192:	ff850793          	addi	a5,a0,-8
    3196:	00f41b33          	sll	s6,s0,a5
    319a:	4a01                	li	s4,0
    319c:	b9dd                	j	2e92 <__divdf3+0x176>
    319e:	855e                	mv	a0,s7
    31a0:	11f010ef          	jal	ra,4abe <__clzsi2>
    31a4:	01550693          	addi	a3,a0,21
    31a8:	4771                	li	a4,28
    31aa:	02050793          	addi	a5,a0,32
    31ae:	c8d75ae3          	bge	a4,a3,2e42 <__divdf3+0x126>
    31b2:	1561                	addi	a0,a0,-8
    31b4:	4881                	li	a7,0
    31b6:	00ab9433          	sll	s0,s7,a0
    31ba:	b979                	j	2e58 <__divdf3+0x13c>
    31bc:	f2a796e3          	bne	a5,a0,30e8 <__divdf3+0x3cc>
    31c0:	d00705e3          	beqz	a4,2eca <__divdf3+0x1ae>
    31c4:	b739                	j	30d2 <__divdf3+0x3b6>
    31c6:	f8e61fe3          	bne	a2,a4,3164 <__divdf3+0x448>
    31ca:	f80f09e3          	beqz	t5,315c <__divdf3+0x440>
    31ce:	847e                	mv	s0,t6
    31d0:	b599                	j	3016 <__divdf3+0x2fa>
    31d2:	dff773e3          	bgeu	a4,t6,2fb8 <__divdf3+0x29c>
    31d6:	18f9                	addi	a7,a7,-2
    31d8:	9732                	add	a4,a4,a2
    31da:	b3c5                	j	2fba <__divdf3+0x29e>
    31dc:	db17f9e3          	bgeu	a5,a7,2f8e <__divdf3+0x272>
    31e0:	1479                	addi	s0,s0,-2
    31e2:	97b2                	add	a5,a5,a2
    31e4:	b375                	j	2f90 <__divdf3+0x274>
    31e6:	467d                	li	a2,31
    31e8:	f0e656e3          	bge	a2,a4,30f4 <__divdf3+0x3d8>
    31ec:	5605                	li	a2,-31
    31ee:	8e1d                	sub	a2,a2,a5
    31f0:	02000793          	li	a5,32
    31f4:	00c45633          	srl	a2,s0,a2
    31f8:	00f70863          	beq	a4,a5,3208 <__divdf3+0x4ec>
    31fc:	43e98793          	addi	a5,s3,1086
    3200:	00f417b3          	sll	a5,s0,a5
    3204:	00f8e8b3          	or	a7,a7,a5
    3208:	011038b3          	snez	a7,a7
    320c:	00c8e8b3          	or	a7,a7,a2
    3210:	0078f713          	andi	a4,a7,7
    3214:	4601                	li	a2,0
    3216:	c31d                	beqz	a4,323c <__divdf3+0x520>
    3218:	00f8f793          	andi	a5,a7,15
    321c:	4711                	li	a4,4
    321e:	4401                	li	s0,0
    3220:	00e78963          	beq	a5,a4,3232 <__divdf3+0x516>
    3224:	00488793          	addi	a5,a7,4
    3228:	0117b8b3          	sltu	a7,a5,a7
    322c:	01103433          	snez	s0,a7
    3230:	88be                	mv	a7,a5
    3232:	00941613          	slli	a2,s0,0x9
    3236:	01d41713          	slli	a4,s0,0x1d
    323a:	8231                	srli	a2,a2,0xc
    323c:	0038d893          	srli	a7,a7,0x3
    3240:	00e8e733          	or	a4,a7,a4
    3244:	4781                	li	a5,0
    3246:	be49                	j	2dd8 <__divdf3+0xbc>
    3248:	889a                	mv	a7,t1
    324a:	e8a81fe3          	bne	a6,a0,30e8 <__divdf3+0x3cc>
    324e:	c6b70ee3          	beq	a4,a1,2eca <__divdf3+0x1ae>
    3252:	0018e893          	ori	a7,a7,1
    3256:	b995                	j	2eca <__divdf3+0x1ae>
    3258:	f0fef6e3          	bgeu	t4,a5,3164 <__divdf3+0x448>
    325c:	9eae                	add	t4,t4,a1
    325e:	00bebf33          	sltu	t5,t4,a1
    3262:	9f32                	add	t5,t5,a2
    3264:	1479                	addi	s0,s0,-2
    3266:	8a76                	mv	s4,t4
    3268:	977a                	add	a4,a4,t5
    326a:	b375                	j	3016 <__divdf3+0x2fa>
    326c:	c0200713          	li	a4,-1022
    3270:	3ff98793          	addi	a5,s3,1023
    3274:	58fd                	li	a7,-1
    3276:	e6e9cce3          	blt	s3,a4,30ee <__divdf3+0x3d2>
    327a:	00488713          	addi	a4,a7,4
    327e:	011738b3          	sltu	a7,a4,a7
    3282:	9446                	add	s0,s0,a7
    3284:	88ba                	mv	a7,a4
    3286:	b991                	j	2eda <__divdf3+0x1be>
    3288:	00f8f713          	andi	a4,a7,15
    328c:	4611                	li	a2,4
    328e:	c4c706e3          	beq	a4,a2,2eda <__divdf3+0x1be>
    3292:	b7e5                	j	327a <__divdf3+0x55e>
    3294:	8eba                	mv	t4,a4
    3296:	b3fd                	j	3084 <__divdf3+0x368>
    3298:	88f6                	mv	a7,t4
    329a:	bb75                	j	3056 <__divdf3+0x33a>
    329c:	86ca                	mv	a3,s2
    329e:	7ff00793          	li	a5,2047
    32a2:	4601                	li	a2,0
    32a4:	4701                	li	a4,0
    32a6:	be0d                	j	2dd8 <__divdf3+0xbc>
    32a8:	00159313          	slli	t1,a1,0x1
    32ac:	00b33833          	sltu	a6,t1,a1
    32b0:	9832                	add	a6,a6,a2
    32b2:	983e                	add	a6,a6,a5
    32b4:	18f9                	addi	a7,a7,-2
    32b6:	859a                	mv	a1,t1
    32b8:	f8a80be3          	beq	a6,a0,324e <__divdf3+0x532>
    32bc:	b535                	j	30e8 <__divdf3+0x3cc>
    32be:	fee5e5e3          	bltu	a1,a4,32a8 <__divdf3+0x58c>
    32c2:	889a                	mv	a7,t1
    32c4:	f8b717e3          	bne	a4,a1,3252 <__divdf3+0x536>
    32c8:	b109                	j	2eca <__divdf3+0x1ae>

000032ca <__muldf3>:
    32ca:	7139                	addi	sp,sp,-64
    32cc:	0145d793          	srli	a5,a1,0x14
    32d0:	dc22                	sw	s0,56(sp)
    32d2:	da26                	sw	s1,52(sp)
    32d4:	d64e                	sw	s3,44(sp)
    32d6:	cc62                	sw	s8,24(sp)
    32d8:	00c59493          	slli	s1,a1,0xc
    32dc:	de06                	sw	ra,60(sp)
    32de:	d84a                	sw	s2,48(sp)
    32e0:	d452                	sw	s4,40(sp)
    32e2:	d256                	sw	s5,36(sp)
    32e4:	d05a                	sw	s6,32(sp)
    32e6:	ce5e                	sw	s7,28(sp)
    32e8:	7ff7f793          	andi	a5,a5,2047
    32ec:	842a                	mv	s0,a0
    32ee:	8c32                	mv	s8,a2
    32f0:	80b1                	srli	s1,s1,0xc
    32f2:	01f5d993          	srli	s3,a1,0x1f
    32f6:	16078663          	beqz	a5,3462 <__muldf3+0x198>
    32fa:	7ff00813          	li	a6,2047
    32fe:	1b078263          	beq	a5,a6,34a2 <__muldf3+0x1d8>
    3302:	048e                	slli	s1,s1,0x3
    3304:	01d55593          	srli	a1,a0,0x1d
    3308:	8dc5                	or	a1,a1,s1
    330a:	008004b7          	lui	s1,0x800
    330e:	8ccd                	or	s1,s1,a1
    3310:	00351a13          	slli	s4,a0,0x3
    3314:	c0178b93          	addi	s7,a5,-1023
    3318:	4b01                	li	s6,0
    331a:	4a81                	li	s5,0
    331c:	0146d793          	srli	a5,a3,0x14
    3320:	00c69813          	slli	a6,a3,0xc
    3324:	7ff7f793          	andi	a5,a5,2047
    3328:	8ee2                	mv	t4,s8
    332a:	00c85413          	srli	s0,a6,0xc
    332e:	01f6d913          	srli	s2,a3,0x1f
    3332:	c7f5                	beqz	a5,341e <__muldf3+0x154>
    3334:	7ff00813          	li	a6,2047
    3338:	07078e63          	beq	a5,a6,33b4 <__muldf3+0xea>
    333c:	00341693          	slli	a3,s0,0x3
    3340:	c0178793          	addi	a5,a5,-1023
    3344:	01dc5593          	srli	a1,s8,0x1d
    3348:	8dd5                	or	a1,a1,a3
    334a:	01778e33          	add	t3,a5,s7
    334e:	008006b7          	lui	a3,0x800
    3352:	47a9                	li	a5,10
    3354:	00d5e433          	or	s0,a1,a3
    3358:	003c1e93          	slli	t4,s8,0x3
    335c:	4501                	li	a0,0
    335e:	001e0313          	addi	t1,t3,1
    3362:	1967c663          	blt	a5,s6,34ee <__muldf3+0x224>
    3366:	0129c833          	xor	a6,s3,s2
    336a:	86c2                	mv	a3,a6
    336c:	4609                	li	a2,2
    336e:	07664763          	blt	a2,s6,33dc <__muldf3+0x112>
    3372:	fffb0893          	addi	a7,s6,-1
    3376:	4585                	li	a1,1
    3378:	1b15eb63          	bltu	a1,a7,352e <__muldf3+0x264>
    337c:	12c50d63          	beq	a0,a2,34b6 <__muldf3+0x1ec>
    3380:	4785                	li	a5,1
    3382:	8836                	mv	a6,a3
    3384:	06f51f63          	bne	a0,a5,3402 <__muldf3+0x138>
    3388:	4781                	li	a5,0
    338a:	4681                	li	a3,0
    338c:	4701                	li	a4,0
    338e:	50f2                	lw	ra,60(sp)
    3390:	5462                	lw	s0,56(sp)
    3392:	07d2                	slli	a5,a5,0x14
    3394:	8fd5                	or	a5,a5,a3
    3396:	087e                	slli	a6,a6,0x1f
    3398:	0107e7b3          	or	a5,a5,a6
    339c:	54d2                	lw	s1,52(sp)
    339e:	5942                	lw	s2,48(sp)
    33a0:	59b2                	lw	s3,44(sp)
    33a2:	5a22                	lw	s4,40(sp)
    33a4:	5a92                	lw	s5,36(sp)
    33a6:	5b02                	lw	s6,32(sp)
    33a8:	4bf2                	lw	s7,28(sp)
    33aa:	4c62                	lw	s8,24(sp)
    33ac:	853a                	mv	a0,a4
    33ae:	85be                	mv	a1,a5
    33b0:	6121                	addi	sp,sp,64
    33b2:	8082                	ret
    33b4:	01846733          	or	a4,s0,s8
    33b8:	7ffb8e13          	addi	t3,s7,2047
    33bc:	10070963          	beqz	a4,34ce <__muldf3+0x204>
    33c0:	6705                	lui	a4,0x1
    33c2:	0129c833          	xor	a6,s3,s2
    33c6:	80070713          	addi	a4,a4,-2048 # 800 <__stack_size>
    33ca:	003b6b13          	ori	s6,s6,3
    33ce:	4629                	li	a2,10
    33d0:	86c2                	mv	a3,a6
    33d2:	00eb8333          	add	t1,s7,a4
    33d6:	43664363          	blt	a2,s6,37fc <__muldf3+0x532>
    33da:	450d                	li	a0,3
    33dc:	4605                	li	a2,1
    33de:	01661633          	sll	a2,a2,s6
    33e2:	53067713          	andi	a4,a2,1328
    33e6:	c305                	beqz	a4,3406 <__muldf3+0x13c>
    33e8:	4789                	li	a5,2
    33ea:	0cfa8663          	beq	s5,a5,34b6 <__muldf3+0x1ec>
    33ee:	478d                	li	a5,3
    33f0:	12fa8863          	beq	s5,a5,3520 <__muldf3+0x256>
    33f4:	8556                	mv	a0,s5
    33f6:	4785                	li	a5,1
    33f8:	8426                	mv	s0,s1
    33fa:	8ed2                	mv	t4,s4
    33fc:	8836                	mv	a6,a3
    33fe:	f8f505e3          	beq	a0,a5,3388 <__muldf3+0xbe>
    3402:	8e1a                	mv	t3,t1
    3404:	a479                	j	3692 <__muldf3+0x3c8>
    3406:	24067793          	andi	a5,a2,576
    340a:	efc5                	bnez	a5,34c2 <__muldf3+0x1f8>
    340c:	08867613          	andi	a2,a2,136
    3410:	10060f63          	beqz	a2,352e <__muldf3+0x264>
    3414:	86ca                	mv	a3,s2
    3416:	84a2                	mv	s1,s0
    3418:	8a76                	mv	s4,t4
    341a:	8aaa                	mv	s5,a0
    341c:	b7f1                	j	33e8 <__muldf3+0x11e>
    341e:	018467b3          	or	a5,s0,s8
    3422:	c3fd                	beqz	a5,3508 <__muldf3+0x23e>
    3424:	32040b63          	beqz	s0,375a <__muldf3+0x490>
    3428:	8522                	mv	a0,s0
    342a:	694010ef          	jal	ra,4abe <__clzsi2>
    342e:	8e2a                	mv	t3,a0
    3430:	ff550713          	addi	a4,a0,-11
    3434:	47f5                	li	a5,29
    3436:	ff8e0e93          	addi	t4,t3,-8
    343a:	8f99                	sub	a5,a5,a4
    343c:	01d416b3          	sll	a3,s0,t4
    3440:	00fc57b3          	srl	a5,s8,a5
    3444:	00d7e433          	or	s0,a5,a3
    3448:	01dc1eb3          	sll	t4,s8,t4
    344c:	41cb8e33          	sub	t3,s7,t3
    3450:	c0de0e13          	addi	t3,t3,-1011
    3454:	47a9                	li	a5,10
    3456:	4501                	li	a0,0
    3458:	001e0313          	addi	t1,t3,1
    345c:	f167d5e3          	bge	a5,s6,3366 <__muldf3+0x9c>
    3460:	a079                	j	34ee <__muldf3+0x224>
    3462:	00a4ea33          	or	s4,s1,a0
    3466:	080a0c63          	beqz	s4,34fe <__muldf3+0x234>
    346a:	c636                	sw	a3,12(sp)
    346c:	2c048863          	beqz	s1,373c <__muldf3+0x472>
    3470:	8526                	mv	a0,s1
    3472:	64c010ef          	jal	ra,4abe <__clzsi2>
    3476:	46b2                	lw	a3,12(sp)
    3478:	872a                	mv	a4,a0
    347a:	ff550613          	addi	a2,a0,-11
    347e:	47f5                	li	a5,29
    3480:	ff870a13          	addi	s4,a4,-8
    3484:	8f91                	sub	a5,a5,a2
    3486:	014494b3          	sll	s1,s1,s4
    348a:	00f457b3          	srl	a5,s0,a5
    348e:	8cdd                	or	s1,s1,a5
    3490:	01441a33          	sll	s4,s0,s4
    3494:	c0d00793          	li	a5,-1011
    3498:	40e78bb3          	sub	s7,a5,a4
    349c:	4b01                	li	s6,0
    349e:	4a81                	li	s5,0
    34a0:	bdb5                	j	331c <__muldf3+0x52>
    34a2:	00a4ea33          	or	s4,s1,a0
    34a6:	040a1663          	bnez	s4,34f2 <__muldf3+0x228>
    34aa:	4481                	li	s1,0
    34ac:	4b21                	li	s6,8
    34ae:	7ff00b93          	li	s7,2047
    34b2:	4a89                	li	s5,2
    34b4:	b5a5                	j	331c <__muldf3+0x52>
    34b6:	8836                	mv	a6,a3
    34b8:	7ff00793          	li	a5,2047
    34bc:	4681                	li	a3,0
    34be:	4701                	li	a4,0
    34c0:	b5f9                	j	338e <__muldf3+0xc4>
    34c2:	4801                	li	a6,0
    34c4:	7ff00793          	li	a5,2047
    34c8:	000806b7          	lui	a3,0x80
    34cc:	b5c9                	j	338e <__muldf3+0xc4>
    34ce:	6785                	lui	a5,0x1
    34d0:	80078793          	addi	a5,a5,-2048 # 800 <__stack_size>
    34d4:	002b6b13          	ori	s6,s6,2
    34d8:	46a9                	li	a3,10
    34da:	00fb8333          	add	t1,s7,a5
    34de:	2b66d263          	bge	a3,s6,3782 <__muldf3+0x4b8>
    34e2:	4e81                	li	t4,0
    34e4:	47b9                	li	a5,14
    34e6:	4509                	li	a0,2
    34e8:	46ad                	li	a3,11
    34ea:	30d78763          	beq	a5,a3,37f8 <__muldf3+0x52e>
    34ee:	86ce                	mv	a3,s3
    34f0:	bde5                	j	33e8 <__muldf3+0x11e>
    34f2:	8a2a                	mv	s4,a0
    34f4:	4b31                	li	s6,12
    34f6:	7ff00b93          	li	s7,2047
    34fa:	4a8d                	li	s5,3
    34fc:	b505                	j	331c <__muldf3+0x52>
    34fe:	4481                	li	s1,0
    3500:	4b11                	li	s6,4
    3502:	4b81                	li	s7,0
    3504:	4a85                	li	s5,1
    3506:	bd19                	j	331c <__muldf3+0x52>
    3508:	8e5e                	mv	t3,s7
    350a:	001b6b13          	ori	s6,s6,1
    350e:	47a9                	li	a5,10
    3510:	4401                	li	s0,0
    3512:	4e81                	li	t4,0
    3514:	4505                	li	a0,1
    3516:	001e0313          	addi	t1,t3,1
    351a:	e567d6e3          	bge	a5,s6,3366 <__muldf3+0x9c>
    351e:	bfc1                	j	34ee <__muldf3+0x224>
    3520:	4801                	li	a6,0
    3522:	7ff00793          	li	a5,2047
    3526:	000806b7          	lui	a3,0x80
    352a:	4701                	li	a4,0
    352c:	b58d                	j	338e <__muldf3+0xc4>
    352e:	65c1                	lui	a1,0x10
    3530:	fff58713          	addi	a4,a1,-1 # ffff <_data_lma+0x9bc7>
    3534:	010a5793          	srli	a5,s4,0x10
    3538:	010ed893          	srli	a7,t4,0x10
    353c:	00ea7a33          	and	s4,s4,a4
    3540:	00eefeb3          	and	t4,t4,a4
    3544:	03da0733          	mul	a4,s4,t4
    3548:	03d78633          	mul	a2,a5,t4
    354c:	01075513          	srli	a0,a4,0x10
    3550:	034886b3          	mul	a3,a7,s4
    3554:	96b2                	add	a3,a3,a2
    3556:	9536                	add	a0,a0,a3
    3558:	03178f33          	mul	t5,a5,a7
    355c:	00c57363          	bgeu	a0,a2,3562 <__muldf3+0x298>
    3560:	9f2e                	add	t5,t5,a1
    3562:	63c1                	lui	t2,0x10
    3564:	fff38613          	addi	a2,t2,-1 # ffff <_data_lma+0x9bc7>
    3568:	00c575b3          	and	a1,a0,a2
    356c:	00c476b3          	and	a3,s0,a2
    3570:	8f71                	and	a4,a4,a2
    3572:	01045f93          	srli	t6,s0,0x10
    3576:	05c2                	slli	a1,a1,0x10
    3578:	02da02b3          	mul	t0,s4,a3
    357c:	95ba                	add	a1,a1,a4
    357e:	8141                	srli	a0,a0,0x10
    3580:	02d78733          	mul	a4,a5,a3
    3584:	0102d613          	srli	a2,t0,0x10
    3588:	034f8a33          	mul	s4,t6,s4
    358c:	9a3a                	add	s4,s4,a4
    358e:	9652                	add	a2,a2,s4
    3590:	03f787b3          	mul	a5,a5,t6
    3594:	00e67363          	bgeu	a2,a4,359a <__muldf3+0x2d0>
    3598:	979e                	add	a5,a5,t2
    359a:	6941                	lui	s2,0x10
    359c:	fff90413          	addi	s0,s2,-1 # ffff <_data_lma+0x9bc7>
    35a0:	00867733          	and	a4,a2,s0
    35a4:	0104d393          	srli	t2,s1,0x10
    35a8:	0082f2b3          	and	t0,t0,s0
    35ac:	8ce1                	and	s1,s1,s0
    35ae:	0742                	slli	a4,a4,0x10
    35b0:	029e8433          	mul	s0,t4,s1
    35b4:	9716                	add	a4,a4,t0
    35b6:	8241                	srli	a2,a2,0x10
    35b8:	963e                	add	a2,a2,a5
    35ba:	953a                	add	a0,a0,a4
    35bc:	029882b3          	mul	t0,a7,s1
    35c0:	01045793          	srli	a5,s0,0x10
    35c4:	03d38eb3          	mul	t4,t2,t4
    35c8:	92f6                	add	t0,t0,t4
    35ca:	9796                	add	a5,a5,t0
    35cc:	027888b3          	mul	a7,a7,t2
    35d0:	01d7f363          	bgeu	a5,t4,35d6 <__muldf3+0x30c>
    35d4:	98ca                	add	a7,a7,s2
    35d6:	6941                	lui	s2,0x10
    35d8:	fff90e93          	addi	t4,s2,-1 # ffff <_data_lma+0x9bc7>
    35dc:	01d7f2b3          	and	t0,a5,t4
    35e0:	01d47eb3          	and	t4,s0,t4
    35e4:	02c2                	slli	t0,t0,0x10
    35e6:	83c1                	srli	a5,a5,0x10
    35e8:	97c6                	add	a5,a5,a7
    35ea:	02968433          	mul	s0,a3,s1
    35ee:	01d288b3          	add	a7,t0,t4
    35f2:	02d386b3          	mul	a3,t2,a3
    35f6:	01045293          	srli	t0,s0,0x10
    35fa:	029f84b3          	mul	s1,t6,s1
    35fe:	94b6                	add	s1,s1,a3
    3600:	92a6                	add	t0,t0,s1
    3602:	027f8eb3          	mul	t4,t6,t2
    3606:	00d2f363          	bgeu	t0,a3,360c <__muldf3+0x342>
    360a:	9eca                	add	t4,t4,s2
    360c:	6fc1                	lui	t6,0x10
    360e:	1ffd                	addi	t6,t6,-1 # ffff <_data_lma+0x9bc7>
    3610:	01f2f6b3          	and	a3,t0,t6
    3614:	01f47433          	and	s0,s0,t6
    3618:	06c2                	slli	a3,a3,0x10
    361a:	957a                	add	a0,a0,t5
    361c:	96a2                	add	a3,a3,s0
    361e:	9636                	add	a2,a2,a3
    3620:	00e53733          	sltu	a4,a0,a4
    3624:	9732                	add	a4,a4,a2
    3626:	98aa                	add	a7,a7,a0
    3628:	97ba                	add	a5,a5,a4
    362a:	00a8b533          	sltu	a0,a7,a0
    362e:	953e                	add	a0,a0,a5
    3630:	00d636b3          	sltu	a3,a2,a3
    3634:	00c73633          	sltu	a2,a4,a2
    3638:	8ed1                	or	a3,a3,a2
    363a:	00e7b733          	sltu	a4,a5,a4
    363e:	0102d613          	srli	a2,t0,0x10
    3642:	00f537b3          	sltu	a5,a0,a5
    3646:	8f5d                	or	a4,a4,a5
    3648:	96b2                	add	a3,a3,a2
    364a:	9736                	add	a4,a4,a3
    364c:	9776                	add	a4,a4,t4
    364e:	00989e93          	slli	t4,a7,0x9
    3652:	01755793          	srli	a5,a0,0x17
    3656:	0726                	slli	a4,a4,0x9
    3658:	00beeeb3          	or	t4,t4,a1
    365c:	00f76433          	or	s0,a4,a5
    3660:	01d03eb3          	snez	t4,t4
    3664:	0178d793          	srli	a5,a7,0x17
    3668:	00feeeb3          	or	t4,t4,a5
    366c:	010007b7          	lui	a5,0x1000
    3670:	0526                	slli	a0,a0,0x9
    3672:	8fe1                	and	a5,a5,s0
    3674:	00aeeeb3          	or	t4,t4,a0
    3678:	cf89                	beqz	a5,3692 <__muldf3+0x3c8>
    367a:	001ed793          	srli	a5,t4,0x1
    367e:	001efe93          	andi	t4,t4,1
    3682:	01f41713          	slli	a4,s0,0x1f
    3686:	01d7e7b3          	or	a5,a5,t4
    368a:	00e7eeb3          	or	t4,a5,a4
    368e:	8005                	srli	s0,s0,0x1
    3690:	8e1a                	mv	t3,t1
    3692:	3ffe0793          	addi	a5,t3,1023
    3696:	04f05a63          	blez	a5,36ea <__muldf3+0x420>
    369a:	007ef713          	andi	a4,t4,7
    369e:	cf01                	beqz	a4,36b6 <__muldf3+0x3ec>
    36a0:	00fef713          	andi	a4,t4,15
    36a4:	4691                	li	a3,4
    36a6:	00d70863          	beq	a4,a3,36b6 <__muldf3+0x3ec>
    36aa:	004e8713          	addi	a4,t4,4
    36ae:	01d73eb3          	sltu	t4,a4,t4
    36b2:	9476                	add	s0,s0,t4
    36b4:	8eba                	mv	t4,a4
    36b6:	01000737          	lui	a4,0x1000
    36ba:	8f61                	and	a4,a4,s0
    36bc:	c719                	beqz	a4,36ca <__muldf3+0x400>
    36be:	ff0007b7          	lui	a5,0xff000
    36c2:	17fd                	addi	a5,a5,-1 # feffffff <_eusrstack+0xdeffafff>
    36c4:	8c7d                	and	s0,s0,a5
    36c6:	400e0793          	addi	a5,t3,1024
    36ca:	7fe00713          	li	a4,2046
    36ce:	0af74563          	blt	a4,a5,3778 <__muldf3+0x4ae>
    36d2:	003ede93          	srli	t4,t4,0x3
    36d6:	01d41713          	slli	a4,s0,0x1d
    36da:	00941693          	slli	a3,s0,0x9
    36de:	01d76733          	or	a4,a4,t4
    36e2:	82b1                	srli	a3,a3,0xc
    36e4:	7ff7f793          	andi	a5,a5,2047
    36e8:	b15d                	j	338e <__muldf3+0xc4>
    36ea:	4705                	li	a4,1
    36ec:	e3d5                	bnez	a5,3790 <__muldf3+0x4c6>
    36ee:	41ee0e13          	addi	t3,t3,1054
    36f2:	01ce9633          	sll	a2,t4,t3
    36f6:	00c03633          	snez	a2,a2
    36fa:	01c41e33          	sll	t3,s0,t3
    36fe:	00eedeb3          	srl	t4,t4,a4
    3702:	01c66633          	or	a2,a2,t3
    3706:	01d66633          	or	a2,a2,t4
    370a:	00767793          	andi	a5,a2,7
    370e:	00e455b3          	srl	a1,s0,a4
    3712:	cf81                	beqz	a5,372a <__muldf3+0x460>
    3714:	00f67793          	andi	a5,a2,15
    3718:	4711                	li	a4,4
    371a:	00e78863          	beq	a5,a4,372a <__muldf3+0x460>
    371e:	00460793          	addi	a5,a2,4 # 80004 <_data_lma+0x79bcc>
    3722:	00c7b633          	sltu	a2,a5,a2
    3726:	95b2                	add	a1,a1,a2
    3728:	863e                	mv	a2,a5
    372a:	00800537          	lui	a0,0x800
    372e:	8d6d                	and	a0,a0,a1
    3730:	4785                	li	a5,1
    3732:	4681                	li	a3,0
    3734:	4701                	li	a4,0
    3736:	c4051ce3          	bnez	a0,338e <__muldf3+0xc4>
    373a:	a075                	j	37e6 <__muldf3+0x51c>
    373c:	382010ef          	jal	ra,4abe <__clzsi2>
    3740:	01550613          	addi	a2,a0,21 # 800015 <_data_lma+0x7f9bdd>
    3744:	47f1                	li	a5,28
    3746:	46b2                	lw	a3,12(sp)
    3748:	02050713          	addi	a4,a0,32
    374c:	d2c7d9e3          	bge	a5,a2,347e <__muldf3+0x1b4>
    3750:	1561                	addi	a0,a0,-8
    3752:	4a01                	li	s4,0
    3754:	00a414b3          	sll	s1,s0,a0
    3758:	bb35                	j	3494 <__muldf3+0x1ca>
    375a:	8562                	mv	a0,s8
    375c:	362010ef          	jal	ra,4abe <__clzsi2>
    3760:	01550713          	addi	a4,a0,21
    3764:	47f1                	li	a5,28
    3766:	02050e13          	addi	t3,a0,32
    376a:	cce7d5e3          	bge	a5,a4,3434 <__muldf3+0x16a>
    376e:	1561                	addi	a0,a0,-8
    3770:	4e81                	li	t4,0
    3772:	00ac1433          	sll	s0,s8,a0
    3776:	b9d9                	j	344c <__muldf3+0x182>
    3778:	7ff00793          	li	a5,2047
    377c:	4681                	li	a3,0
    377e:	4701                	li	a4,0
    3780:	b139                	j	338e <__muldf3+0xc4>
    3782:	0129c833          	xor	a6,s3,s2
    3786:	86c2                	mv	a3,a6
    3788:	4401                	li	s0,0
    378a:	4e81                	li	t4,0
    378c:	4509                	li	a0,2
    378e:	bef9                	j	336c <__muldf3+0xa2>
    3790:	8f1d                	sub	a4,a4,a5
    3792:	03800693          	li	a3,56
    3796:	bee6c9e3          	blt	a3,a4,3388 <__muldf3+0xbe>
    379a:	46fd                	li	a3,31
    379c:	f4e6d9e3          	bge	a3,a4,36ee <__muldf3+0x424>
    37a0:	5685                	li	a3,-31
    37a2:	40f687b3          	sub	a5,a3,a5
    37a6:	02000693          	li	a3,32
    37aa:	00f457b3          	srl	a5,s0,a5
    37ae:	00d70863          	beq	a4,a3,37be <__muldf3+0x4f4>
    37b2:	43ee0e13          	addi	t3,t3,1086
    37b6:	01c41e33          	sll	t3,s0,t3
    37ba:	01ceeeb3          	or	t4,t4,t3
    37be:	01d03633          	snez	a2,t4
    37c2:	8e5d                	or	a2,a2,a5
    37c4:	00767713          	andi	a4,a2,7
    37c8:	4681                	li	a3,0
    37ca:	c31d                	beqz	a4,37f0 <__muldf3+0x526>
    37cc:	00f67793          	andi	a5,a2,15
    37d0:	4711                	li	a4,4
    37d2:	4581                	li	a1,0
    37d4:	00e78963          	beq	a5,a4,37e6 <__muldf3+0x51c>
    37d8:	00460793          	addi	a5,a2,4
    37dc:	00c7b633          	sltu	a2,a5,a2
    37e0:	00c035b3          	snez	a1,a2
    37e4:	863e                	mv	a2,a5
    37e6:	00959693          	slli	a3,a1,0x9
    37ea:	01d59713          	slli	a4,a1,0x1d
    37ee:	82b1                	srli	a3,a3,0xc
    37f0:	820d                	srli	a2,a2,0x3
    37f2:	8f51                	or	a4,a4,a2
    37f4:	4781                	li	a5,0
    37f6:	be61                	j	338e <__muldf3+0xc4>
    37f8:	843a                	mv	s0,a4
    37fa:	b929                	j	3414 <__muldf3+0x14a>
    37fc:	473d                	li	a4,15
    37fe:	00eb1763          	bne	s6,a4,380c <__muldf3+0x542>
    3802:	4801                	li	a6,0
    3804:	000806b7          	lui	a3,0x80
    3808:	4701                	li	a4,0
    380a:	b651                	j	338e <__muldf3+0xc4>
    380c:	8722                	mv	a4,s0
    380e:	47ad                	li	a5,11
    3810:	450d                	li	a0,3
    3812:	b9d9                	j	34e8 <__muldf3+0x21e>

00003814 <__fixunsdfsi>:
    3814:	0145d793          	srli	a5,a1,0x14
    3818:	00100637          	lui	a2,0x100
    381c:	fff60713          	addi	a4,a2,-1 # fffff <_data_lma+0xf9bc7>
    3820:	7ff7f793          	andi	a5,a5,2047
    3824:	3fe00813          	li	a6,1022
    3828:	86aa                	mv	a3,a0
    382a:	8f6d                	and	a4,a4,a1
    382c:	4501                	li	a0,0
    382e:	81fd                	srli	a1,a1,0x1f
    3830:	00f85363          	bge	a6,a5,3836 <__fixunsdfsi+0x22>
    3834:	c191                	beqz	a1,3838 <__fixunsdfsi+0x24>
    3836:	8082                	ret
    3838:	41e00593          	li	a1,1054
    383c:	557d                	li	a0,-1
    383e:	fef5cce3          	blt	a1,a5,3836 <__fixunsdfsi+0x22>
    3842:	43300593          	li	a1,1075
    3846:	8d9d                	sub	a1,a1,a5
    3848:	457d                	li	a0,31
    384a:	8f51                	or	a4,a4,a2
    384c:	00b54a63          	blt	a0,a1,3860 <__fixunsdfsi+0x4c>
    3850:	bed78793          	addi	a5,a5,-1043
    3854:	00f71733          	sll	a4,a4,a5
    3858:	00b6d533          	srl	a0,a3,a1
    385c:	8d59                	or	a0,a0,a4
    385e:	8082                	ret
    3860:	41300513          	li	a0,1043
    3864:	8d1d                	sub	a0,a0,a5
    3866:	00a75533          	srl	a0,a4,a0
    386a:	8082                	ret

0000386c <__floatunsidf>:
    386c:	1141                	addi	sp,sp,-16
    386e:	c422                	sw	s0,8(sp)
    3870:	c606                	sw	ra,12(sp)
    3872:	842a                	mv	s0,a0
    3874:	cd05                	beqz	a0,38ac <__floatunsidf+0x40>
    3876:	248010ef          	jal	ra,4abe <__clzsi2>
    387a:	41e00793          	li	a5,1054
    387e:	8f89                	sub	a5,a5,a0
    3880:	4729                	li	a4,10
    3882:	7ff7f793          	andi	a5,a5,2047
    3886:	02a74d63          	blt	a4,a0,38c0 <__floatunsidf+0x54>
    388a:	472d                	li	a4,11
    388c:	8f09                	sub	a4,a4,a0
    388e:	0555                	addi	a0,a0,21
    3890:	00e45733          	srl	a4,s0,a4
    3894:	00a41433          	sll	s0,s0,a0
    3898:	40b2                	lw	ra,12(sp)
    389a:	8522                	mv	a0,s0
    389c:	0732                	slli	a4,a4,0xc
    389e:	4422                	lw	s0,8(sp)
    38a0:	8331                	srli	a4,a4,0xc
    38a2:	07d2                	slli	a5,a5,0x14
    38a4:	8fd9                	or	a5,a5,a4
    38a6:	85be                	mv	a1,a5
    38a8:	0141                	addi	sp,sp,16
    38aa:	8082                	ret
    38ac:	40b2                	lw	ra,12(sp)
    38ae:	8522                	mv	a0,s0
    38b0:	4781                	li	a5,0
    38b2:	4422                	lw	s0,8(sp)
    38b4:	4701                	li	a4,0
    38b6:	07d2                	slli	a5,a5,0x14
    38b8:	8fd9                	or	a5,a5,a4
    38ba:	85be                	mv	a1,a5
    38bc:	0141                	addi	sp,sp,16
    38be:	8082                	ret
    38c0:	1555                	addi	a0,a0,-11
    38c2:	00a41733          	sll	a4,s0,a0
    38c6:	4401                	li	s0,0
    38c8:	40b2                	lw	ra,12(sp)
    38ca:	8522                	mv	a0,s0
    38cc:	0732                	slli	a4,a4,0xc
    38ce:	4422                	lw	s0,8(sp)
    38d0:	8331                	srli	a4,a4,0xc
    38d2:	07d2                	slli	a5,a5,0x14
    38d4:	8fd9                	or	a5,a5,a4
    38d6:	85be                	mv	a1,a5
    38d8:	0141                	addi	sp,sp,16
    38da:	8082                	ret

000038dc <__addsf3>:
    38dc:	00800737          	lui	a4,0x800
    38e0:	1141                	addi	sp,sp,-16
    38e2:	177d                	addi	a4,a4,-1 # 7fffff <_data_lma+0x7f9bc7>
    38e4:	01755693          	srli	a3,a0,0x17
    38e8:	0175d613          	srli	a2,a1,0x17
    38ec:	00a777b3          	and	a5,a4,a0
    38f0:	c226                	sw	s1,4(sp)
    38f2:	8f6d                	and	a4,a4,a1
    38f4:	c04a                	sw	s2,0(sp)
    38f6:	0ff67613          	zext.b	a2,a2
    38fa:	0ff6f913          	zext.b	s2,a3
    38fe:	c606                	sw	ra,12(sp)
    3900:	c422                	sw	s0,8(sp)
    3902:	01f55493          	srli	s1,a0,0x1f
    3906:	81fd                	srli	a1,a1,0x1f
    3908:	078e                	slli	a5,a5,0x3
    390a:	070e                	slli	a4,a4,0x3
    390c:	40c906b3          	sub	a3,s2,a2
    3910:	04b48163          	beq	s1,a1,3952 <__addsf3+0x76>
    3914:	00d05f63          	blez	a3,3932 <__addsf3+0x56>
    3918:	ee31                	bnez	a2,3974 <__addsf3+0x98>
    391a:	12070163          	beqz	a4,3a3c <__addsf3+0x160>
    391e:	fff68613          	addi	a2,a3,-1 # 7ffff <_data_lma+0x79bc7>
    3922:	2a060e63          	beqz	a2,3bde <__addsf3+0x302>
    3926:	0ff00593          	li	a1,255
    392a:	16b68b63          	beq	a3,a1,3aa0 <__addsf3+0x1c4>
    392e:	86b2                	mv	a3,a2
    3930:	a889                	j	3982 <__addsf3+0xa6>
    3932:	c2f1                	beqz	a3,39f6 <__addsf3+0x11a>
    3934:	412606b3          	sub	a3,a2,s2
    3938:	1c091c63          	bnez	s2,3b10 <__addsf3+0x234>
    393c:	cff5                	beqz	a5,3a38 <__addsf3+0x15c>
    393e:	fff68513          	addi	a0,a3,-1
    3942:	2c050963          	beqz	a0,3c14 <__addsf3+0x338>
    3946:	0ff00813          	li	a6,255
    394a:	15068963          	beq	a3,a6,3a9c <__addsf3+0x1c0>
    394e:	86aa                	mv	a3,a0
    3950:	a2f9                	j	3b1e <__addsf3+0x242>
    3952:	8826                	mv	a6,s1
    3954:	14d05863          	blez	a3,3aa4 <__addsf3+0x1c8>
    3958:	c669                	beqz	a2,3a22 <__addsf3+0x146>
    395a:	0ff00613          	li	a2,255
    395e:	14c90163          	beq	s2,a2,3aa0 <__addsf3+0x1c4>
    3962:	04000637          	lui	a2,0x4000
    3966:	8f51                	or	a4,a4,a2
    3968:	466d                	li	a2,27
    396a:	1ed65963          	bge	a2,a3,3b5c <__addsf3+0x280>
    396e:	0785                	addi	a5,a5,1
    3970:	86ca                	mv	a3,s2
    3972:	a089                	j	39b4 <__addsf3+0xd8>
    3974:	0ff00613          	li	a2,255
    3978:	12c90463          	beq	s2,a2,3aa0 <__addsf3+0x1c4>
    397c:	04000637          	lui	a2,0x4000
    3980:	8f51                	or	a4,a4,a2
    3982:	45ed                	li	a1,27
    3984:	4605                	li	a2,1
    3986:	00d5cd63          	blt	a1,a3,39a0 <__addsf3+0xc4>
    398a:	02000613          	li	a2,32
    398e:	8e15                	sub	a2,a2,a3
    3990:	00c71633          	sll	a2,a4,a2
    3994:	00d756b3          	srl	a3,a4,a3
    3998:	00c03733          	snez	a4,a2
    399c:	00e6e633          	or	a2,a3,a4
    39a0:	8f91                	sub	a5,a5,a2
    39a2:	04000737          	lui	a4,0x4000
    39a6:	00e7f6b3          	and	a3,a5,a4
    39aa:	eacd                	bnez	a3,3a5c <__addsf3+0x180>
    39ac:	0077f713          	andi	a4,a5,7
    39b0:	86ca                	mv	a3,s2
    39b2:	c749                	beqz	a4,3a3c <__addsf3+0x160>
    39b4:	00f7f713          	andi	a4,a5,15
    39b8:	4611                	li	a2,4
    39ba:	00c70363          	beq	a4,a2,39c0 <__addsf3+0xe4>
    39be:	0791                	addi	a5,a5,4
    39c0:	04000737          	lui	a4,0x4000
    39c4:	8f7d                	and	a4,a4,a5
    39c6:	cb3d                	beqz	a4,3a3c <__addsf3+0x160>
    39c8:	00168513          	addi	a0,a3,1
    39cc:	0ff00713          	li	a4,255
    39d0:	8826                	mv	a6,s1
    39d2:	08e50163          	beq	a0,a4,3a54 <__addsf3+0x178>
    39d6:	00679713          	slli	a4,a5,0x6
    39da:	0ff57513          	zext.b	a0,a0
    39de:	8325                	srli	a4,a4,0x9
    39e0:	40b2                	lw	ra,12(sp)
    39e2:	4422                	lw	s0,8(sp)
    39e4:	055e                	slli	a0,a0,0x17
    39e6:	8d59                	or	a0,a0,a4
    39e8:	01f81793          	slli	a5,a6,0x1f
    39ec:	4492                	lw	s1,4(sp)
    39ee:	4902                	lw	s2,0(sp)
    39f0:	8d5d                	or	a0,a0,a5
    39f2:	0141                	addi	sp,sp,16
    39f4:	8082                	ret
    39f6:	00190613          	addi	a2,s2,1
    39fa:	0fe67613          	andi	a2,a2,254
    39fe:	14061463          	bnez	a2,3b46 <__addsf3+0x26a>
    3a02:	08091a63          	bnez	s2,3a96 <__addsf3+0x1ba>
    3a06:	20078363          	beqz	a5,3c0c <__addsf3+0x330>
    3a0a:	cb75                	beqz	a4,3afe <__addsf3+0x222>
    3a0c:	40e78533          	sub	a0,a5,a4
    3a10:	04000637          	lui	a2,0x4000
    3a14:	8e69                	and	a2,a2,a0
    3a16:	22060363          	beqz	a2,3c3c <__addsf3+0x360>
    3a1a:	40f707b3          	sub	a5,a4,a5
    3a1e:	84ae                	mv	s1,a1
    3a20:	a0bd                	j	3a8e <__addsf3+0x1b2>
    3a22:	cf09                	beqz	a4,3a3c <__addsf3+0x160>
    3a24:	fff68613          	addi	a2,a3,-1
    3a28:	1a060363          	beqz	a2,3bce <__addsf3+0x2f2>
    3a2c:	0ff00593          	li	a1,255
    3a30:	06b68863          	beq	a3,a1,3aa0 <__addsf3+0x1c4>
    3a34:	86b2                	mv	a3,a2
    3a36:	bf0d                	j	3968 <__addsf3+0x8c>
    3a38:	84ae                	mv	s1,a1
    3a3a:	87ba                	mv	a5,a4
    3a3c:	0ff00713          	li	a4,255
    3a40:	838d                	srli	a5,a5,0x3
    3a42:	0ce69063          	bne	a3,a4,3b02 <__addsf3+0x226>
    3a46:	cfc1                	beqz	a5,3ade <__addsf3+0x202>
    3a48:	4801                	li	a6,0
    3a4a:	0ff00513          	li	a0,255
    3a4e:	00400737          	lui	a4,0x400
    3a52:	b779                	j	39e0 <__addsf3+0x104>
    3a54:	0ff00513          	li	a0,255
    3a58:	4701                	li	a4,0
    3a5a:	b759                	j	39e0 <__addsf3+0x104>
    3a5c:	177d                	addi	a4,a4,-1 # 3fffff <_data_lma+0x3f9bc7>
    3a5e:	00e7f433          	and	s0,a5,a4
    3a62:	8522                	mv	a0,s0
    3a64:	05a010ef          	jal	ra,4abe <__clzsi2>
    3a68:	156d                	addi	a0,a0,-5
    3a6a:	00a41433          	sll	s0,s0,a0
    3a6e:	07254163          	blt	a0,s2,3ad0 <__addsf3+0x1f4>
    3a72:	412506b3          	sub	a3,a0,s2
    3a76:	0685                	addi	a3,a3,1
    3a78:	02000793          	li	a5,32
    3a7c:	8f95                	sub	a5,a5,a3
    3a7e:	00f417b3          	sll	a5,s0,a5
    3a82:	00f037b3          	snez	a5,a5
    3a86:	00d45433          	srl	s0,s0,a3
    3a8a:	8fc1                	or	a5,a5,s0
    3a8c:	4681                	li	a3,0
    3a8e:	0077f713          	andi	a4,a5,7
    3a92:	f30d                	bnez	a4,39b4 <__addsf3+0xd8>
    3a94:	b735                	j	39c0 <__addsf3+0xe4>
    3a96:	14079963          	bnez	a5,3be8 <__addsf3+0x30c>
    3a9a:	d75d                	beqz	a4,3a48 <__addsf3+0x16c>
    3a9c:	84ae                	mv	s1,a1
    3a9e:	87ba                	mv	a5,a4
    3aa0:	838d                	srli	a5,a5,0x3
    3aa2:	b755                	j	3a46 <__addsf3+0x16a>
    3aa4:	c2b1                	beqz	a3,3ae8 <__addsf3+0x20c>
    3aa6:	412606b3          	sub	a3,a2,s2
    3aaa:	0e091963          	bnez	s2,3b9c <__addsf3+0x2c0>
    3aae:	d7d1                	beqz	a5,3a3a <__addsf3+0x15e>
    3ab0:	fff68593          	addi	a1,a3,-1
    3ab4:	10058d63          	beqz	a1,3bce <__addsf3+0x2f2>
    3ab8:	0ff00513          	li	a0,255
    3abc:	fea681e3          	beq	a3,a0,3a9e <__addsf3+0x1c2>
    3ac0:	86ae                	mv	a3,a1
    3ac2:	45ed                	li	a1,27
    3ac4:	12d5d663          	bge	a1,a3,3bf0 <__addsf3+0x314>
    3ac8:	00170793          	addi	a5,a4,1
    3acc:	86b2                	mv	a3,a2
    3ace:	b5dd                	j	39b4 <__addsf3+0xd8>
    3ad0:	fc0007b7          	lui	a5,0xfc000
    3ad4:	17fd                	addi	a5,a5,-1 # fbffffff <_eusrstack+0xdbffafff>
    3ad6:	40a906b3          	sub	a3,s2,a0
    3ada:	8fe1                	and	a5,a5,s0
    3adc:	bf4d                	j	3a8e <__addsf3+0x1b2>
    3ade:	8826                	mv	a6,s1
    3ae0:	0ff00513          	li	a0,255
    3ae4:	4701                	li	a4,0
    3ae6:	bded                	j	39e0 <__addsf3+0x104>
    3ae8:	00190693          	addi	a3,s2,1
    3aec:	0fe6f613          	andi	a2,a3,254
    3af0:	ee55                	bnez	a2,3bac <__addsf3+0x2d0>
    3af2:	0e091963          	bnez	s2,3be4 <__addsf3+0x308>
    3af6:	12078463          	beqz	a5,3c1e <__addsf3+0x342>
    3afa:	12071463          	bnez	a4,3c22 <__addsf3+0x346>
    3afe:	838d                	srli	a5,a5,0x3
    3b00:	4681                	li	a3,0
    3b02:	07a6                	slli	a5,a5,0x9
    3b04:	0097d713          	srli	a4,a5,0x9
    3b08:	0ff6f513          	zext.b	a0,a3
    3b0c:	8826                	mv	a6,s1
    3b0e:	bdc9                	j	39e0 <__addsf3+0x104>
    3b10:	0ff00513          	li	a0,255
    3b14:	f8a604e3          	beq	a2,a0,3a9c <__addsf3+0x1c0>
    3b18:	04000537          	lui	a0,0x4000
    3b1c:	8fc9                	or	a5,a5,a0
    3b1e:	486d                	li	a6,27
    3b20:	4505                	li	a0,1
    3b22:	00d84d63          	blt	a6,a3,3b3c <__addsf3+0x260>
    3b26:	02000513          	li	a0,32
    3b2a:	8d15                	sub	a0,a0,a3
    3b2c:	00a79533          	sll	a0,a5,a0
    3b30:	00d7d6b3          	srl	a3,a5,a3
    3b34:	00a037b3          	snez	a5,a0
    3b38:	00f6e533          	or	a0,a3,a5
    3b3c:	40a707b3          	sub	a5,a4,a0
    3b40:	8932                	mv	s2,a2
    3b42:	84ae                	mv	s1,a1
    3b44:	bdb9                	j	39a2 <__addsf3+0xc6>
    3b46:	40e78433          	sub	s0,a5,a4
    3b4a:	040006b7          	lui	a3,0x4000
    3b4e:	8ee1                	and	a3,a3,s0
    3b50:	eabd                	bnez	a3,3bc6 <__addsf3+0x2ea>
    3b52:	f801                	bnez	s0,3a62 <__addsf3+0x186>
    3b54:	4801                	li	a6,0
    3b56:	4501                	li	a0,0
    3b58:	4701                	li	a4,0
    3b5a:	b559                	j	39e0 <__addsf3+0x104>
    3b5c:	02000613          	li	a2,32
    3b60:	8e15                	sub	a2,a2,a3
    3b62:	00c71633          	sll	a2,a4,a2
    3b66:	00d75733          	srl	a4,a4,a3
    3b6a:	00c036b3          	snez	a3,a2
    3b6e:	8f55                	or	a4,a4,a3
    3b70:	97ba                	add	a5,a5,a4
    3b72:	04000737          	lui	a4,0x4000
    3b76:	8f7d                	and	a4,a4,a5
    3b78:	e2070ae3          	beqz	a4,39ac <__addsf3+0xd0>
    3b7c:	00190693          	addi	a3,s2,1
    3b80:	0ff00513          	li	a0,255
    3b84:	4701                	li	a4,0
    3b86:	e4a68de3          	beq	a3,a0,39e0 <__addsf3+0x104>
    3b8a:	7e000637          	lui	a2,0x7e000
    3b8e:	0017d713          	srli	a4,a5,0x1
    3b92:	167d                	addi	a2,a2,-1 # 7dffffff <_eusrstack+0x5dffafff>
    3b94:	8b85                	andi	a5,a5,1
    3b96:	8f71                	and	a4,a4,a2
    3b98:	8fd9                	or	a5,a5,a4
    3b9a:	bdd5                	j	3a8e <__addsf3+0x1b2>
    3b9c:	0ff00593          	li	a1,255
    3ba0:	eeb60fe3          	beq	a2,a1,3a9e <__addsf3+0x1c2>
    3ba4:	040005b7          	lui	a1,0x4000
    3ba8:	8fcd                	or	a5,a5,a1
    3baa:	bf21                	j	3ac2 <__addsf3+0x1e6>
    3bac:	0ff00613          	li	a2,255
    3bb0:	eac682e3          	beq	a3,a2,3a54 <__addsf3+0x178>
    3bb4:	973e                	add	a4,a4,a5
    3bb6:	00175793          	srli	a5,a4,0x1
    3bba:	0077f613          	andi	a2,a5,7
    3bbe:	de061be3          	bnez	a2,39b4 <__addsf3+0xd8>
    3bc2:	838d                	srli	a5,a5,0x3
    3bc4:	bf3d                	j	3b02 <__addsf3+0x226>
    3bc6:	40f70433          	sub	s0,a4,a5
    3bca:	84ae                	mv	s1,a1
    3bcc:	bd59                	j	3a62 <__addsf3+0x186>
    3bce:	97ba                	add	a5,a5,a4
    3bd0:	04000737          	lui	a4,0x4000
    3bd4:	8f7d                	and	a4,a4,a5
    3bd6:	4689                	li	a3,2
    3bd8:	4905                	li	s2,1
    3bda:	fb45                	bnez	a4,3b8a <__addsf3+0x2ae>
    3bdc:	bbc1                	j	39ac <__addsf3+0xd0>
    3bde:	8f99                	sub	a5,a5,a4
    3be0:	4905                	li	s2,1
    3be2:	b3c1                	j	39a2 <__addsf3+0xc6>
    3be4:	ea078de3          	beqz	a5,3a9e <__addsf3+0x1c2>
    3be8:	e60710e3          	bnez	a4,3a48 <__addsf3+0x16c>
    3bec:	838d                	srli	a5,a5,0x3
    3bee:	bda1                	j	3a46 <__addsf3+0x16a>
    3bf0:	02000593          	li	a1,32
    3bf4:	8d95                	sub	a1,a1,a3
    3bf6:	00b795b3          	sll	a1,a5,a1
    3bfa:	00d7d6b3          	srl	a3,a5,a3
    3bfe:	00b037b3          	snez	a5,a1
    3c02:	8edd                	or	a3,a3,a5
    3c04:	00e687b3          	add	a5,a3,a4
    3c08:	8932                	mv	s2,a2
    3c0a:	b7a5                	j	3b72 <__addsf3+0x296>
    3c0c:	d721                	beqz	a4,3b54 <__addsf3+0x278>
    3c0e:	84ae                	mv	s1,a1
    3c10:	87ba                	mv	a5,a4
    3c12:	b5f5                	j	3afe <__addsf3+0x222>
    3c14:	40f707b3          	sub	a5,a4,a5
    3c18:	84ae                	mv	s1,a1
    3c1a:	4905                	li	s2,1
    3c1c:	b359                	j	39a2 <__addsf3+0xc6>
    3c1e:	87ba                	mv	a5,a4
    3c20:	bdf9                	j	3afe <__addsf3+0x222>
    3c22:	97ba                	add	a5,a5,a4
    3c24:	04000637          	lui	a2,0x4000
    3c28:	8e7d                	and	a2,a2,a5
    3c2a:	4681                	li	a3,0
    3c2c:	da59                	beqz	a2,3bc2 <__addsf3+0x2e6>
    3c2e:	fc000737          	lui	a4,0xfc000
    3c32:	177d                	addi	a4,a4,-1 # fbffffff <_eusrstack+0xdbffafff>
    3c34:	8ff9                	and	a5,a5,a4
    3c36:	4685                	li	a3,1
    3c38:	838d                	srli	a5,a5,0x3
    3c3a:	b5e1                	j	3b02 <__addsf3+0x226>
    3c3c:	87aa                	mv	a5,a0
    3c3e:	d919                	beqz	a0,3b54 <__addsf3+0x278>
    3c40:	838d                	srli	a5,a5,0x3
    3c42:	b5c1                	j	3b02 <__addsf3+0x226>

00003c44 <__divsf3>:
    3c44:	7179                	addi	sp,sp,-48
    3c46:	01755793          	srli	a5,a0,0x17
    3c4a:	d04a                	sw	s2,32(sp)
    3c4c:	ce4e                	sw	s3,28(sp)
    3c4e:	d606                	sw	ra,44(sp)
    3c50:	00951993          	slli	s3,a0,0x9
    3c54:	d422                	sw	s0,40(sp)
    3c56:	d226                	sw	s1,36(sp)
    3c58:	cc52                	sw	s4,24(sp)
    3c5a:	ca56                	sw	s5,20(sp)
    3c5c:	c85a                	sw	s6,16(sp)
    3c5e:	0ff7f793          	zext.b	a5,a5
    3c62:	0099d993          	srli	s3,s3,0x9
    3c66:	01f55913          	srli	s2,a0,0x1f
    3c6a:	cff1                	beqz	a5,3d46 <__divsf3+0x102>
    3c6c:	0ff00713          	li	a4,255
    3c70:	0ee78163          	beq	a5,a4,3d52 <__divsf3+0x10e>
    3c74:	098e                	slli	s3,s3,0x3
    3c76:	04000737          	lui	a4,0x4000
    3c7a:	00e9e9b3          	or	s3,s3,a4
    3c7e:	f8178a93          	addi	s5,a5,-127
    3c82:	4401                	li	s0,0
    3c84:	4b01                	li	s6,0
    3c86:	0175d793          	srli	a5,a1,0x17
    3c8a:	00959a13          	slli	s4,a1,0x9
    3c8e:	0ff7f793          	zext.b	a5,a5
    3c92:	009a5a13          	srli	s4,s4,0x9
    3c96:	01f5d493          	srli	s1,a1,0x1f
    3c9a:	c7c1                	beqz	a5,3d22 <__divsf3+0xde>
    3c9c:	0ff00713          	li	a4,255
    3ca0:	0ce78063          	beq	a5,a4,3d60 <__divsf3+0x11c>
    3ca4:	0a0e                	slli	s4,s4,0x3
    3ca6:	04000737          	lui	a4,0x4000
    3caa:	00ea6a33          	or	s4,s4,a4
    3cae:	f8178793          	addi	a5,a5,-127
    3cb2:	4601                	li	a2,0
    3cb4:	46bd                	li	a3,15
    3cb6:	00994733          	xor	a4,s2,s1
    3cba:	40fa8ab3          	sub	s5,s5,a5
    3cbe:	1a86eb63          	bltu	a3,s0,3e74 <__divsf3+0x230>
    3cc2:	00002697          	auipc	a3,0x2
    3cc6:	40e68693          	addi	a3,a3,1038 # 60d0 <_exit+0xb2>
    3cca:	040a                	slli	s0,s0,0x2
    3ccc:	9436                	add	s0,s0,a3
    3cce:	401c                	lw	a5,0(s0)
    3cd0:	97b6                	add	a5,a5,a3
    3cd2:	8782                	jr	a5
    3cd4:	0ff00793          	li	a5,255
    3cd8:	4681                	li	a3,0
    3cda:	50b2                	lw	ra,44(sp)
    3cdc:	5422                	lw	s0,40(sp)
    3cde:	01779513          	slli	a0,a5,0x17
    3ce2:	8d55                	or	a0,a0,a3
    3ce4:	077e                	slli	a4,a4,0x1f
    3ce6:	5492                	lw	s1,36(sp)
    3ce8:	5902                	lw	s2,32(sp)
    3cea:	49f2                	lw	s3,28(sp)
    3cec:	4a62                	lw	s4,24(sp)
    3cee:	4ad2                	lw	s5,20(sp)
    3cf0:	4b42                	lw	s6,16(sp)
    3cf2:	8d59                	or	a0,a0,a4
    3cf4:	6145                	addi	sp,sp,48
    3cf6:	8082                	ret
    3cf8:	478d                	li	a5,3
    3cfa:	00fb0e63          	beq	s6,a5,3d16 <__divsf3+0xd2>
    3cfe:	4785                	li	a5,1
    3d00:	0efb1563          	bne	s6,a5,3dea <__divsf3+0x1a6>
    3d04:	872a                	mv	a4,a0
    3d06:	4781                	li	a5,0
    3d08:	4681                	li	a3,0
    3d0a:	bfc1                	j	3cda <__divsf3+0x96>
    3d0c:	478d                	li	a5,3
    3d0e:	8526                	mv	a0,s1
    3d10:	89d2                	mv	s3,s4
    3d12:	0cf61c63          	bne	a2,a5,3dea <__divsf3+0x1a6>
    3d16:	4701                	li	a4,0
    3d18:	0ff00793          	li	a5,255
    3d1c:	004006b7          	lui	a3,0x400
    3d20:	bf6d                	j	3cda <__divsf3+0x96>
    3d22:	080a1d63          	bnez	s4,3dbc <__divsf3+0x178>
    3d26:	00146413          	ori	s0,s0,1
    3d2a:	47b5                	li	a5,13
    3d2c:	00994733          	xor	a4,s2,s1
    3d30:	fa87e2e3          	bltu	a5,s0,3cd4 <__divsf3+0x90>
    3d34:	00002697          	auipc	a3,0x2
    3d38:	3dc68693          	addi	a3,a3,988 # 6110 <_exit+0xf2>
    3d3c:	040a                	slli	s0,s0,0x2
    3d3e:	9436                	add	s0,s0,a3
    3d40:	401c                	lw	a5,0(s0)
    3d42:	97b6                	add	a5,a5,a3
    3d44:	8782                	jr	a5
    3d46:	04099b63          	bnez	s3,3d9c <__divsf3+0x158>
    3d4a:	4411                	li	s0,4
    3d4c:	4a81                	li	s5,0
    3d4e:	4b05                	li	s6,1
    3d50:	bf1d                	j	3c86 <__divsf3+0x42>
    3d52:	04099063          	bnez	s3,3d92 <__divsf3+0x14e>
    3d56:	4421                	li	s0,8
    3d58:	0ff00a93          	li	s5,255
    3d5c:	4b09                	li	s6,2
    3d5e:	b725                	j	3c86 <__divsf3+0x42>
    3d60:	020a1363          	bnez	s4,3d86 <__divsf3+0x142>
    3d64:	00246413          	ori	s0,s0,2
    3d68:	1475                	addi	s0,s0,-3
    3d6a:	46ad                	li	a3,11
    3d6c:	00994733          	xor	a4,s2,s1
    3d70:	f886ebe3          	bltu	a3,s0,3d06 <__divsf3+0xc2>
    3d74:	00002617          	auipc	a2,0x2
    3d78:	3d460613          	addi	a2,a2,980 # 6148 <_exit+0x12a>
    3d7c:	040a                	slli	s0,s0,0x2
    3d7e:	9432                	add	s0,s0,a2
    3d80:	4014                	lw	a3,0(s0)
    3d82:	96b2                	add	a3,a3,a2
    3d84:	8682                	jr	a3
    3d86:	00346413          	ori	s0,s0,3
    3d8a:	0ff00793          	li	a5,255
    3d8e:	460d                	li	a2,3
    3d90:	b715                	j	3cb4 <__divsf3+0x70>
    3d92:	4431                	li	s0,12
    3d94:	0ff00a93          	li	s5,255
    3d98:	4b0d                	li	s6,3
    3d9a:	b5f5                	j	3c86 <__divsf3+0x42>
    3d9c:	854e                	mv	a0,s3
    3d9e:	c62e                	sw	a1,12(sp)
    3da0:	51f000ef          	jal	ra,4abe <__clzsi2>
    3da4:	ffb50793          	addi	a5,a0,-5 # 3fffffb <_data_lma+0x3ff9bc3>
    3da8:	00f999b3          	sll	s3,s3,a5
    3dac:	f8a00793          	li	a5,-118
    3db0:	45b2                	lw	a1,12(sp)
    3db2:	40a78ab3          	sub	s5,a5,a0
    3db6:	4401                	li	s0,0
    3db8:	4b01                	li	s6,0
    3dba:	b5f1                	j	3c86 <__divsf3+0x42>
    3dbc:	8552                	mv	a0,s4
    3dbe:	501000ef          	jal	ra,4abe <__clzsi2>
    3dc2:	ffb50793          	addi	a5,a0,-5
    3dc6:	00fa1a33          	sll	s4,s4,a5
    3dca:	f8a00793          	li	a5,-118
    3dce:	8f89                	sub	a5,a5,a0
    3dd0:	4601                	li	a2,0
    3dd2:	b5cd                	j	3cb4 <__divsf3+0x70>
    3dd4:	f01a8a93          	addi	s5,s5,-255
    3dd8:	4789                	li	a5,2
    3dda:	854a                	mv	a0,s2
    3ddc:	f0fb1ee3          	bne	s6,a5,3cf8 <__divsf3+0xb4>
    3de0:	872a                	mv	a4,a0
    3de2:	0ff00793          	li	a5,255
    3de6:	4681                	li	a3,0
    3de8:	bdcd                	j	3cda <__divsf3+0x96>
    3dea:	872a                	mv	a4,a0
    3dec:	07fa8793          	addi	a5,s5,127
    3df0:	04f05163          	blez	a5,3e32 <__divsf3+0x1ee>
    3df4:	0079f693          	andi	a3,s3,7
    3df8:	c699                	beqz	a3,3e06 <__divsf3+0x1c2>
    3dfa:	00f9f693          	andi	a3,s3,15
    3dfe:	4611                	li	a2,4
    3e00:	00c68363          	beq	a3,a2,3e06 <__divsf3+0x1c2>
    3e04:	0991                	addi	s3,s3,4
    3e06:	080006b7          	lui	a3,0x8000
    3e0a:	00d9f6b3          	and	a3,s3,a3
    3e0e:	ca81                	beqz	a3,3e1e <__divsf3+0x1da>
    3e10:	f80007b7          	lui	a5,0xf8000
    3e14:	17fd                	addi	a5,a5,-1 # f7ffffff <_eusrstack+0xd7ffafff>
    3e16:	00f9f9b3          	and	s3,s3,a5
    3e1a:	080a8793          	addi	a5,s5,128
    3e1e:	0fe00693          	li	a3,254
    3e22:	eaf6c9e3          	blt	a3,a5,3cd4 <__divsf3+0x90>
    3e26:	00699693          	slli	a3,s3,0x6
    3e2a:	82a5                	srli	a3,a3,0x9
    3e2c:	0ff7f793          	zext.b	a5,a5
    3e30:	b56d                	j	3cda <__divsf3+0x96>
    3e32:	4605                	li	a2,1
    3e34:	c799                	beqz	a5,3e42 <__divsf3+0x1fe>
    3e36:	8e1d                	sub	a2,a2,a5
    3e38:	45ed                	li	a1,27
    3e3a:	4781                	li	a5,0
    3e3c:	4681                	li	a3,0
    3e3e:	e8c5cee3          	blt	a1,a2,3cda <__divsf3+0x96>
    3e42:	09ea8693          	addi	a3,s5,158
    3e46:	00d996b3          	sll	a3,s3,a3
    3e4a:	00d036b3          	snez	a3,a3
    3e4e:	00c9d7b3          	srl	a5,s3,a2
    3e52:	8fd5                	or	a5,a5,a3
    3e54:	0077f693          	andi	a3,a5,7
    3e58:	c699                	beqz	a3,3e66 <__divsf3+0x222>
    3e5a:	00f7f693          	andi	a3,a5,15
    3e5e:	4611                	li	a2,4
    3e60:	00c68363          	beq	a3,a2,3e66 <__divsf3+0x222>
    3e64:	0791                	addi	a5,a5,4
    3e66:	040006b7          	lui	a3,0x4000
    3e6a:	8efd                	and	a3,a3,a5
    3e6c:	cad5                	beqz	a3,3f20 <__divsf3+0x2dc>
    3e6e:	4785                	li	a5,1
    3e70:	4681                	li	a3,0
    3e72:	b5a5                	j	3cda <__divsf3+0x96>
    3e74:	66c1                	lui	a3,0x10
    3e76:	005a1813          	slli	a6,s4,0x5
    3e7a:	16fd                	addi	a3,a3,-1 # ffff <_data_lma+0x9bc7>
    3e7c:	01085593          	srli	a1,a6,0x10
    3e80:	00d876b3          	and	a3,a6,a3
    3e84:	0749f863          	bgeu	s3,s4,3ef4 <__divsf3+0x2b0>
    3e88:	02b9d633          	divu	a2,s3,a1
    3e8c:	87ce                	mv	a5,s3
    3e8e:	1afd                	addi	s5,s5,-1
    3e90:	4981                	li	s3,0
    3e92:	02d60533          	mul	a0,a2,a3
    3e96:	02b7f7b3          	remu	a5,a5,a1
    3e9a:	07c2                	slli	a5,a5,0x10
    3e9c:	0137e7b3          	or	a5,a5,s3
    3ea0:	00a7f863          	bgeu	a5,a0,3eb0 <__divsf3+0x26c>
    3ea4:	97c2                	add	a5,a5,a6
    3ea6:	fff60893          	addi	a7,a2,-1
    3eaa:	0707f663          	bgeu	a5,a6,3f16 <__divsf3+0x2d2>
    3eae:	8646                	mv	a2,a7
    3eb0:	8f89                	sub	a5,a5,a0
    3eb2:	02b7d533          	divu	a0,a5,a1
    3eb6:	02b7f7b3          	remu	a5,a5,a1
    3eba:	02d506b3          	mul	a3,a0,a3
    3ebe:	07c2                	slli	a5,a5,0x10
    3ec0:	02d7f263          	bgeu	a5,a3,3ee4 <__divsf3+0x2a0>
    3ec4:	010785b3          	add	a1,a5,a6
    3ec8:	00f5b8b3          	sltu	a7,a1,a5
    3ecc:	fff50313          	addi	t1,a0,-1
    3ed0:	87ae                	mv	a5,a1
    3ed2:	00089863          	bnez	a7,3ee2 <__divsf3+0x29e>
    3ed6:	00d5f663          	bgeu	a1,a3,3ee2 <__divsf3+0x29e>
    3eda:	1579                	addi	a0,a0,-2
    3edc:	010587b3          	add	a5,a1,a6
    3ee0:	a011                	j	3ee4 <__divsf3+0x2a0>
    3ee2:	851a                	mv	a0,t1
    3ee4:	0642                	slli	a2,a2,0x10
    3ee6:	8f95                	sub	a5,a5,a3
    3ee8:	8e49                	or	a2,a2,a0
    3eea:	00f037b3          	snez	a5,a5
    3eee:	00f669b3          	or	s3,a2,a5
    3ef2:	bded                	j	3dec <__divsf3+0x1a8>
    3ef4:	0019d793          	srli	a5,s3,0x1
    3ef8:	02b7d633          	divu	a2,a5,a1
    3efc:	09fe                	slli	s3,s3,0x1f
    3efe:	0109d993          	srli	s3,s3,0x10
    3f02:	02d60533          	mul	a0,a2,a3
    3f06:	bf41                	j	3e96 <__divsf3+0x252>
    3f08:	8526                	mv	a0,s1
    3f0a:	872a                	mv	a4,a0
    3f0c:	bbed                	j	3d06 <__divsf3+0xc2>
    3f0e:	4701                	li	a4,0
    3f10:	004006b7          	lui	a3,0x400
    3f14:	b3d9                	j	3cda <__divsf3+0x96>
    3f16:	f8a7fce3          	bgeu	a5,a0,3eae <__divsf3+0x26a>
    3f1a:	1679                	addi	a2,a2,-2
    3f1c:	97c2                	add	a5,a5,a6
    3f1e:	bf49                	j	3eb0 <__divsf3+0x26c>
    3f20:	079a                	slli	a5,a5,0x6
    3f22:	0097d693          	srli	a3,a5,0x9
    3f26:	4781                	li	a5,0
    3f28:	bb4d                	j	3cda <__divsf3+0x96>
    3f2a:	8526                	mv	a0,s1
    3f2c:	bd55                	j	3de0 <__divsf3+0x19c>

00003f2e <__gesf2>:
    3f2e:	01755613          	srli	a2,a0,0x17
    3f32:	00800737          	lui	a4,0x800
    3f36:	177d                	addi	a4,a4,-1 # 7fffff <_data_lma+0x7f9bc7>
    3f38:	0175d693          	srli	a3,a1,0x17
    3f3c:	0ff67613          	zext.b	a2,a2
    3f40:	0ff00813          	li	a6,255
    3f44:	00a778b3          	and	a7,a4,a0
    3f48:	01f55793          	srli	a5,a0,0x1f
    3f4c:	8f6d                	and	a4,a4,a1
    3f4e:	0ff6f513          	zext.b	a0,a3
    3f52:	81fd                	srli	a1,a1,0x1f
    3f54:	03060563          	beq	a2,a6,3f7e <__gesf2+0x50>
    3f58:	01050a63          	beq	a0,a6,3f6c <__gesf2+0x3e>
    3f5c:	ea05                	bnez	a2,3f8c <__gesf2+0x5e>
    3f5e:	e909                	bnez	a0,3f70 <__gesf2+0x42>
    3f60:	c339                	beqz	a4,3fa6 <__gesf2+0x78>
    3f62:	04089e63          	bnez	a7,3fbe <__gesf2+0x90>
    3f66:	c9a1                	beqz	a1,3fb6 <__gesf2+0x88>
    3f68:	852e                	mv	a0,a1
    3f6a:	8082                	ret
    3f6c:	e739                	bnez	a4,3fba <__gesf2+0x8c>
    3f6e:	e219                	bnez	a2,3f74 <__gesf2+0x46>
    3f70:	fe088be3          	beqz	a7,3f66 <__gesf2+0x38>
    3f74:	00b79963          	bne	a5,a1,3f86 <__gesf2+0x58>
    3f78:	cf9d                	beqz	a5,3fb6 <__gesf2+0x88>
    3f7a:	853e                	mv	a0,a5
    3f7c:	8082                	ret
    3f7e:	02089e63          	bnez	a7,3fba <__gesf2+0x8c>
    3f82:	02c50563          	beq	a0,a2,3fac <__gesf2+0x7e>
    3f86:	4505                	li	a0,1
    3f88:	e79d                	bnez	a5,3fb6 <__gesf2+0x88>
    3f8a:	8082                	ret
    3f8c:	dd6d                	beqz	a0,3f86 <__gesf2+0x58>
    3f8e:	feb79ce3          	bne	a5,a1,3f86 <__gesf2+0x58>
    3f92:	fec54ae3          	blt	a0,a2,3f86 <__gesf2+0x58>
    3f96:	fea641e3          	blt	a2,a0,3f78 <__gesf2+0x4a>
    3f9a:	ff1766e3          	bltu	a4,a7,3f86 <__gesf2+0x58>
    3f9e:	4501                	li	a0,0
    3fa0:	fce8ece3          	bltu	a7,a4,3f78 <__gesf2+0x4a>
    3fa4:	8082                	ret
    3fa6:	fe0890e3          	bnez	a7,3f86 <__gesf2+0x58>
    3faa:	8082                	ret
    3fac:	e719                	bnez	a4,3fba <__gesf2+0x8c>
    3fae:	fcb79ce3          	bne	a5,a1,3f86 <__gesf2+0x58>
    3fb2:	4501                	li	a0,0
    3fb4:	8082                	ret
    3fb6:	557d                	li	a0,-1
    3fb8:	8082                	ret
    3fba:	5579                	li	a0,-2
    3fbc:	8082                	ret
    3fbe:	fcb78ee3          	beq	a5,a1,3f9a <__gesf2+0x6c>
    3fc2:	b7d1                	j	3f86 <__gesf2+0x58>

00003fc4 <__lesf2>:
    3fc4:	01755613          	srli	a2,a0,0x17
    3fc8:	00800737          	lui	a4,0x800
    3fcc:	177d                	addi	a4,a4,-1 # 7fffff <_data_lma+0x7f9bc7>
    3fce:	0175d693          	srli	a3,a1,0x17
    3fd2:	0ff67613          	zext.b	a2,a2
    3fd6:	0ff00813          	li	a6,255
    3fda:	00a778b3          	and	a7,a4,a0
    3fde:	01f55793          	srli	a5,a0,0x1f
    3fe2:	8f6d                	and	a4,a4,a1
    3fe4:	0ff6f513          	zext.b	a0,a3
    3fe8:	81fd                	srli	a1,a1,0x1f
    3fea:	03060663          	beq	a2,a6,4016 <__lesf2+0x52>
    3fee:	01050a63          	beq	a0,a6,4002 <__lesf2+0x3e>
    3ff2:	ee05                	bnez	a2,402a <__lesf2+0x66>
    3ff4:	e911                	bnez	a0,4008 <__lesf2+0x44>
    3ff6:	cb29                	beqz	a4,4048 <__lesf2+0x84>
    3ff8:	04089f63          	bnez	a7,4056 <__lesf2+0x92>
    3ffc:	c9b9                	beqz	a1,4052 <__lesf2+0x8e>
    3ffe:	852e                	mv	a0,a1
    4000:	8082                	ret
    4002:	4509                	li	a0,2
    4004:	eb01                	bnez	a4,4014 <__lesf2+0x50>
    4006:	e219                	bnez	a2,400c <__lesf2+0x48>
    4008:	fe088ae3          	beqz	a7,3ffc <__lesf2+0x38>
    400c:	02b78b63          	beq	a5,a1,4042 <__lesf2+0x7e>
    4010:	4505                	li	a0,1
    4012:	e3a1                	bnez	a5,4052 <__lesf2+0x8e>
    4014:	8082                	ret
    4016:	02089c63          	bnez	a7,404e <__lesf2+0x8a>
    401a:	fec51be3          	bne	a0,a2,4010 <__lesf2+0x4c>
    401e:	4509                	li	a0,2
    4020:	fb75                	bnez	a4,4014 <__lesf2+0x50>
    4022:	feb797e3          	bne	a5,a1,4010 <__lesf2+0x4c>
    4026:	4501                	li	a0,0
    4028:	8082                	ret
    402a:	d17d                	beqz	a0,4010 <__lesf2+0x4c>
    402c:	feb792e3          	bne	a5,a1,4010 <__lesf2+0x4c>
    4030:	fec540e3          	blt	a0,a2,4010 <__lesf2+0x4c>
    4034:	00a64763          	blt	a2,a0,4042 <__lesf2+0x7e>
    4038:	fd176ce3          	bltu	a4,a7,4010 <__lesf2+0x4c>
    403c:	4501                	li	a0,0
    403e:	fce8fbe3          	bgeu	a7,a4,4014 <__lesf2+0x50>
    4042:	cb81                	beqz	a5,4052 <__lesf2+0x8e>
    4044:	853e                	mv	a0,a5
    4046:	8082                	ret
    4048:	fc0894e3          	bnez	a7,4010 <__lesf2+0x4c>
    404c:	8082                	ret
    404e:	4509                	li	a0,2
    4050:	8082                	ret
    4052:	557d                	li	a0,-1
    4054:	8082                	ret
    4056:	feb781e3          	beq	a5,a1,4038 <__lesf2+0x74>
    405a:	bf5d                	j	4010 <__lesf2+0x4c>

0000405c <__mulsf3>:
    405c:	7179                	addi	sp,sp,-48
    405e:	01755793          	srli	a5,a0,0x17
    4062:	cc52                	sw	s4,24(sp)
    4064:	ca56                	sw	s5,20(sp)
    4066:	00951713          	slli	a4,a0,0x9
    406a:	d606                	sw	ra,44(sp)
    406c:	d422                	sw	s0,40(sp)
    406e:	d226                	sw	s1,36(sp)
    4070:	d04a                	sw	s2,32(sp)
    4072:	ce4e                	sw	s3,28(sp)
    4074:	c85a                	sw	s6,16(sp)
    4076:	0ff7f793          	zext.b	a5,a5
    407a:	00975a93          	srli	s5,a4,0x9
    407e:	01f55a13          	srli	s4,a0,0x1f
    4082:	10078b63          	beqz	a5,4198 <__mulsf3+0x13c>
    4086:	0ff00713          	li	a4,255
    408a:	10e78d63          	beq	a5,a4,41a4 <__mulsf3+0x148>
    408e:	003a9713          	slli	a4,s5,0x3
    4092:	040006b7          	lui	a3,0x4000
    4096:	00d76ab3          	or	s5,a4,a3
    409a:	f8178493          	addi	s1,a5,-127
    409e:	4901                	li	s2,0
    40a0:	4b01                	li	s6,0
    40a2:	0175d793          	srli	a5,a1,0x17
    40a6:	00959413          	slli	s0,a1,0x9
    40aa:	0ff7f793          	zext.b	a5,a5
    40ae:	8025                	srli	s0,s0,0x9
    40b0:	01f5d993          	srli	s3,a1,0x1f
    40b4:	c7f9                	beqz	a5,4182 <__mulsf3+0x126>
    40b6:	0ff00713          	li	a4,255
    40ba:	06e78263          	beq	a5,a4,411e <__mulsf3+0xc2>
    40be:	f8178793          	addi	a5,a5,-127
    40c2:	00978533          	add	a0,a5,s1
    40c6:	040e                	slli	s0,s0,0x3
    40c8:	04000737          	lui	a4,0x4000
    40cc:	47a9                	li	a5,10
    40ce:	8c59                	or	s0,s0,a4
    40d0:	4681                	li	a3,0
    40d2:	00150493          	addi	s1,a0,1
    40d6:	0f27cf63          	blt	a5,s2,41d4 <__mulsf3+0x178>
    40da:	013a45b3          	xor	a1,s4,s3
    40de:	4709                	li	a4,2
    40e0:	882e                	mv	a6,a1
    40e2:	05274c63          	blt	a4,s2,413a <__mulsf3+0xde>
    40e6:	197d                	addi	s2,s2,-1
    40e8:	4605                	li	a2,1
    40ea:	13266e63          	bltu	a2,s2,4226 <__mulsf3+0x1ca>
    40ee:	0ce68263          	beq	a3,a4,41b2 <__mulsf3+0x156>
    40f2:	4785                	li	a5,1
    40f4:	85c2                	mv	a1,a6
    40f6:	06f69463          	bne	a3,a5,415e <__mulsf3+0x102>
    40fa:	4781                	li	a5,0
    40fc:	4701                	li	a4,0
    40fe:	50b2                	lw	ra,44(sp)
    4100:	5422                	lw	s0,40(sp)
    4102:	01779513          	slli	a0,a5,0x17
    4106:	8d59                	or	a0,a0,a4
    4108:	01f59793          	slli	a5,a1,0x1f
    410c:	5492                	lw	s1,36(sp)
    410e:	5902                	lw	s2,32(sp)
    4110:	49f2                	lw	s3,28(sp)
    4112:	4a62                	lw	s4,24(sp)
    4114:	4ad2                	lw	s5,20(sp)
    4116:	4b42                	lw	s6,16(sp)
    4118:	8d5d                	or	a0,a0,a5
    411a:	6145                	addi	sp,sp,48
    411c:	8082                	ret
    411e:	0ff48513          	addi	a0,s1,255 # 8000ff <_data_lma+0x7f9cc7>
    4122:	cc49                	beqz	s0,41bc <__mulsf3+0x160>
    4124:	013a45b3          	xor	a1,s4,s3
    4128:	00396913          	ori	s2,s2,3
    412c:	4729                	li	a4,10
    412e:	882e                	mv	a6,a1
    4130:	10048493          	addi	s1,s1,256
    4134:	1f274963          	blt	a4,s2,4326 <__mulsf3+0x2ca>
    4138:	468d                	li	a3,3
    413a:	4705                	li	a4,1
    413c:	01271733          	sll	a4,a4,s2
    4140:	53077613          	andi	a2,a4,1328
    4144:	ce19                	beqz	a2,4162 <__mulsf3+0x106>
    4146:	4789                	li	a5,2
    4148:	06fb0563          	beq	s6,a5,41b2 <__mulsf3+0x156>
    414c:	478d                	li	a5,3
    414e:	02fb0463          	beq	s6,a5,4176 <__mulsf3+0x11a>
    4152:	86da                	mv	a3,s6
    4154:	4785                	li	a5,1
    4156:	8456                	mv	s0,s5
    4158:	85c2                	mv	a1,a6
    415a:	faf680e3          	beq	a3,a5,40fa <__mulsf3+0x9e>
    415e:	8526                	mv	a0,s1
    4160:	aa05                	j	4290 <__mulsf3+0x234>
    4162:	24077793          	andi	a5,a4,576
    4166:	eb81                	bnez	a5,4176 <__mulsf3+0x11a>
    4168:	08877713          	andi	a4,a4,136
    416c:	cf4d                	beqz	a4,4226 <__mulsf3+0x1ca>
    416e:	884e                	mv	a6,s3
    4170:	8aa2                	mv	s5,s0
    4172:	8b36                	mv	s6,a3
    4174:	bfc9                	j	4146 <__mulsf3+0xea>
    4176:	4581                	li	a1,0
    4178:	0ff00793          	li	a5,255
    417c:	00400737          	lui	a4,0x400
    4180:	bfbd                	j	40fe <__mulsf3+0xa2>
    4182:	e041                	bnez	s0,4202 <__mulsf3+0x1a6>
    4184:	8526                	mv	a0,s1
    4186:	00196913          	ori	s2,s2,1
    418a:	47a9                	li	a5,10
    418c:	4685                	li	a3,1
    418e:	00150493          	addi	s1,a0,1
    4192:	f527d4e3          	bge	a5,s2,40da <__mulsf3+0x7e>
    4196:	a83d                	j	41d4 <__mulsf3+0x178>
    4198:	040a9563          	bnez	s5,41e2 <__mulsf3+0x186>
    419c:	4911                	li	s2,4
    419e:	4481                	li	s1,0
    41a0:	4b05                	li	s6,1
    41a2:	b701                	j	40a2 <__mulsf3+0x46>
    41a4:	020a9a63          	bnez	s5,41d8 <__mulsf3+0x17c>
    41a8:	4921                	li	s2,8
    41aa:	0ff00493          	li	s1,255
    41ae:	4b09                	li	s6,2
    41b0:	bdcd                	j	40a2 <__mulsf3+0x46>
    41b2:	85c2                	mv	a1,a6
    41b4:	0ff00793          	li	a5,255
    41b8:	4701                	li	a4,0
    41ba:	b791                	j	40fe <__mulsf3+0xa2>
    41bc:	00296913          	ori	s2,s2,2
    41c0:	47a9                	li	a5,10
    41c2:	10048493          	addi	s1,s1,256
    41c6:	4739                	li	a4,14
    41c8:	4689                	li	a3,2
    41ca:	f127d8e3          	bge	a5,s2,40da <__mulsf3+0x7e>
    41ce:	47ad                	li	a5,11
    41d0:	f8f70fe3          	beq	a4,a5,416e <__mulsf3+0x112>
    41d4:	8852                	mv	a6,s4
    41d6:	bf85                	j	4146 <__mulsf3+0xea>
    41d8:	4931                	li	s2,12
    41da:	0ff00493          	li	s1,255
    41de:	4b0d                	li	s6,3
    41e0:	b5c9                	j	40a2 <__mulsf3+0x46>
    41e2:	8556                	mv	a0,s5
    41e4:	c62e                	sw	a1,12(sp)
    41e6:	0d9000ef          	jal	ra,4abe <__clzsi2>
    41ea:	ffb50793          	addi	a5,a0,-5
    41ee:	00fa9ab3          	sll	s5,s5,a5
    41f2:	f8a00793          	li	a5,-118
    41f6:	45b2                	lw	a1,12(sp)
    41f8:	40a784b3          	sub	s1,a5,a0
    41fc:	4901                	li	s2,0
    41fe:	4b01                	li	s6,0
    4200:	b54d                	j	40a2 <__mulsf3+0x46>
    4202:	8522                	mv	a0,s0
    4204:	0bb000ef          	jal	ra,4abe <__clzsi2>
    4208:	40a487b3          	sub	a5,s1,a0
    420c:	ffb50713          	addi	a4,a0,-5
    4210:	f8a78513          	addi	a0,a5,-118
    4214:	47a9                	li	a5,10
    4216:	00e41433          	sll	s0,s0,a4
    421a:	4681                	li	a3,0
    421c:	00150493          	addi	s1,a0,1
    4220:	eb27dde3          	bge	a5,s2,40da <__mulsf3+0x7e>
    4224:	bf45                	j	41d4 <__mulsf3+0x178>
    4226:	68c1                	lui	a7,0x10
    4228:	fff88793          	addi	a5,a7,-1 # ffff <_data_lma+0x9bc7>
    422c:	010ad613          	srli	a2,s5,0x10
    4230:	01045813          	srli	a6,s0,0x10
    4234:	00fafab3          	and	s5,s5,a5
    4238:	8fe1                	and	a5,a5,s0
    423a:	035786b3          	mul	a3,a5,s5
    423e:	02f607b3          	mul	a5,a2,a5
    4242:	0106d713          	srli	a4,a3,0x10
    4246:	03580ab3          	mul	s5,a6,s5
    424a:	9abe                	add	s5,s5,a5
    424c:	9756                	add	a4,a4,s5
    424e:	03060633          	mul	a2,a2,a6
    4252:	00f77363          	bgeu	a4,a5,4258 <__mulsf3+0x1fc>
    4256:	9646                	add	a2,a2,a7
    4258:	6841                	lui	a6,0x10
    425a:	187d                	addi	a6,a6,-1 # ffff <_data_lma+0x9bc7>
    425c:	010777b3          	and	a5,a4,a6
    4260:	0106f6b3          	and	a3,a3,a6
    4264:	07c2                	slli	a5,a5,0x10
    4266:	97b6                	add	a5,a5,a3
    4268:	00679693          	slli	a3,a5,0x6
    426c:	01075413          	srli	s0,a4,0x10
    4270:	83e9                	srli	a5,a5,0x1a
    4272:	00d03733          	snez	a4,a3
    4276:	9432                	add	s0,s0,a2
    4278:	8fd9                	or	a5,a5,a4
    427a:	041a                	slli	s0,s0,0x6
    427c:	8c5d                	or	s0,s0,a5
    427e:	080007b7          	lui	a5,0x8000
    4282:	8fe1                	and	a5,a5,s0
    4284:	c791                	beqz	a5,4290 <__mulsf3+0x234>
    4286:	00145793          	srli	a5,s0,0x1
    428a:	8805                	andi	s0,s0,1
    428c:	8c5d                	or	s0,s0,a5
    428e:	8526                	mv	a0,s1
    4290:	07f50793          	addi	a5,a0,127
    4294:	02f05f63          	blez	a5,42d2 <__mulsf3+0x276>
    4298:	00747713          	andi	a4,s0,7
    429c:	c719                	beqz	a4,42aa <__mulsf3+0x24e>
    429e:	00f47713          	andi	a4,s0,15
    42a2:	4691                	li	a3,4
    42a4:	00d70363          	beq	a4,a3,42aa <__mulsf3+0x24e>
    42a8:	0411                	addi	s0,s0,4
    42aa:	08000737          	lui	a4,0x8000
    42ae:	8f61                	and	a4,a4,s0
    42b0:	c719                	beqz	a4,42be <__mulsf3+0x262>
    42b2:	f80007b7          	lui	a5,0xf8000
    42b6:	17fd                	addi	a5,a5,-1 # f7ffffff <_eusrstack+0xd7ffafff>
    42b8:	8c7d                	and	s0,s0,a5
    42ba:	08050793          	addi	a5,a0,128
    42be:	0fe00713          	li	a4,254
    42c2:	04f74963          	blt	a4,a5,4314 <__mulsf3+0x2b8>
    42c6:	00641713          	slli	a4,s0,0x6
    42ca:	8325                	srli	a4,a4,0x9
    42cc:	0ff7f793          	zext.b	a5,a5
    42d0:	b53d                	j	40fe <__mulsf3+0xa2>
    42d2:	4685                	li	a3,1
    42d4:	c799                	beqz	a5,42e2 <__mulsf3+0x286>
    42d6:	8e9d                	sub	a3,a3,a5
    42d8:	466d                	li	a2,27
    42da:	4781                	li	a5,0
    42dc:	4701                	li	a4,0
    42de:	e2d640e3          	blt	a2,a3,40fe <__mulsf3+0xa2>
    42e2:	09e50713          	addi	a4,a0,158
    42e6:	00e41733          	sll	a4,s0,a4
    42ea:	00e03733          	snez	a4,a4
    42ee:	00d457b3          	srl	a5,s0,a3
    42f2:	8fd9                	or	a5,a5,a4
    42f4:	0077f713          	andi	a4,a5,7
    42f8:	c719                	beqz	a4,4306 <__mulsf3+0x2aa>
    42fa:	00f7f713          	andi	a4,a5,15
    42fe:	4691                	li	a3,4
    4300:	00d70363          	beq	a4,a3,4306 <__mulsf3+0x2aa>
    4304:	0791                	addi	a5,a5,4
    4306:	04000737          	lui	a4,0x4000
    430a:	8f7d                	and	a4,a4,a5
    430c:	cb01                	beqz	a4,431c <__mulsf3+0x2c0>
    430e:	4785                	li	a5,1
    4310:	4701                	li	a4,0
    4312:	b3f5                	j	40fe <__mulsf3+0xa2>
    4314:	0ff00793          	li	a5,255
    4318:	4701                	li	a4,0
    431a:	b3d5                	j	40fe <__mulsf3+0xa2>
    431c:	079a                	slli	a5,a5,0x6
    431e:	0097d713          	srli	a4,a5,0x9
    4322:	4781                	li	a5,0
    4324:	bbe9                	j	40fe <__mulsf3+0xa2>
    4326:	46bd                	li	a3,15
    4328:	4581                	li	a1,0
    432a:	00400737          	lui	a4,0x400
    432e:	dcd908e3          	beq	s2,a3,40fe <__mulsf3+0xa2>
    4332:	472d                	li	a4,11
    4334:	468d                	li	a3,3
    4336:	bd61                	j	41ce <__mulsf3+0x172>

00004338 <__subsf3>:
    4338:	008007b7          	lui	a5,0x800
    433c:	1141                	addi	sp,sp,-16
    433e:	17fd                	addi	a5,a5,-1 # 7fffff <_data_lma+0x7f9bc7>
    4340:	0175d613          	srli	a2,a1,0x17
    4344:	00a7f733          	and	a4,a5,a0
    4348:	01755693          	srli	a3,a0,0x17
    434c:	8fed                	and	a5,a5,a1
    434e:	c226                	sw	s1,4(sp)
    4350:	c04a                	sw	s2,0(sp)
    4352:	01f55493          	srli	s1,a0,0x1f
    4356:	c606                	sw	ra,12(sp)
    4358:	c422                	sw	s0,8(sp)
    435a:	0ff67613          	zext.b	a2,a2
    435e:	0ff00513          	li	a0,255
    4362:	0ff6f913          	zext.b	s2,a3
    4366:	8826                	mv	a6,s1
    4368:	070e                	slli	a4,a4,0x3
    436a:	81fd                	srli	a1,a1,0x1f
    436c:	00379693          	slli	a3,a5,0x3
    4370:	04a60363          	beq	a2,a0,43b6 <__subsf3+0x7e>
    4374:	0015c593          	xori	a1,a1,1
    4378:	40c907b3          	sub	a5,s2,a2
    437c:	00b48f63          	beq	s1,a1,439a <__subsf3+0x62>
    4380:	30f05a63          	blez	a5,4694 <__subsf3+0x35c>
    4384:	e235                	bnez	a2,43e8 <__subsf3+0xb0>
    4386:	14068f63          	beqz	a3,44e4 <__subsf3+0x1ac>
    438a:	fff78613          	addi	a2,a5,-1
    438e:	2a060263          	beqz	a2,4632 <__subsf3+0x2fa>
    4392:	02a78f63          	beq	a5,a0,43d0 <__subsf3+0x98>
    4396:	87b2                	mv	a5,a2
    4398:	a8a9                	j	43f2 <__subsf3+0xba>
    439a:	30f05963          	blez	a5,46ac <__subsf3+0x374>
    439e:	ca7d                	beqz	a2,4494 <__subsf3+0x15c>
    43a0:	02a90863          	beq	s2,a0,43d0 <__subsf3+0x98>
    43a4:	04000637          	lui	a2,0x4000
    43a8:	8ed1                	or	a3,a3,a2
    43aa:	466d                	li	a2,27
    43ac:	14f65263          	bge	a2,a5,44f0 <__subsf3+0x1b8>
    43b0:	0705                	addi	a4,a4,1 # 400001 <_data_lma+0x3f9bc9>
    43b2:	87ca                	mv	a5,s2
    43b4:	a88d                	j	4426 <__subsf3+0xee>
    43b6:	f0190793          	addi	a5,s2,-255
    43ba:	e6d5                	bnez	a3,4466 <__subsf3+0x12e>
    43bc:	0015c593          	xori	a1,a1,1
    43c0:	0eb48363          	beq	s1,a1,44a6 <__subsf3+0x16e>
    43c4:	18078d63          	beqz	a5,455e <__subsf3+0x226>
    43c8:	10090963          	beqz	s2,44da <__subsf3+0x1a2>
    43cc:	84ae                	mv	s1,a1
    43ce:	8736                	mv	a4,a3
    43d0:	830d                	srli	a4,a4,0x3
    43d2:	0014f813          	andi	a6,s1,1
    43d6:	0ff00513          	li	a0,255
    43da:	cb3d                	beqz	a4,4450 <__subsf3+0x118>
    43dc:	4801                	li	a6,0
    43de:	0ff00513          	li	a0,255
    43e2:	00400737          	lui	a4,0x400
    43e6:	a0ad                	j	4450 <__subsf3+0x118>
    43e8:	fea904e3          	beq	s2,a0,43d0 <__subsf3+0x98>
    43ec:	04000637          	lui	a2,0x4000
    43f0:	8ed1                	or	a3,a3,a2
    43f2:	45ed                	li	a1,27
    43f4:	4605                	li	a2,1
    43f6:	00f5cd63          	blt	a1,a5,4410 <__subsf3+0xd8>
    43fa:	02000613          	li	a2,32
    43fe:	8e1d                	sub	a2,a2,a5
    4400:	00c69633          	sll	a2,a3,a2
    4404:	00f6d6b3          	srl	a3,a3,a5
    4408:	00c037b3          	snez	a5,a2
    440c:	00f6e633          	or	a2,a3,a5
    4410:	8f11                	sub	a4,a4,a2
    4412:	040007b7          	lui	a5,0x4000
    4416:	00f776b3          	and	a3,a4,a5
    441a:	10069463          	bnez	a3,4522 <__subsf3+0x1ea>
    441e:	00777693          	andi	a3,a4,7
    4422:	87ca                	mv	a5,s2
    4424:	c2e1                	beqz	a3,44e4 <__subsf3+0x1ac>
    4426:	00f77693          	andi	a3,a4,15
    442a:	4611                	li	a2,4
    442c:	00c68363          	beq	a3,a2,4432 <__subsf3+0xfa>
    4430:	0711                	addi	a4,a4,4 # 400004 <_data_lma+0x3f9bcc>
    4432:	040006b7          	lui	a3,0x4000
    4436:	8ef9                	and	a3,a3,a4
    4438:	c6d5                	beqz	a3,44e4 <__subsf3+0x1ac>
    443a:	0785                	addi	a5,a5,1 # 4000001 <_data_lma+0x3ff9bc9>
    443c:	0ff00693          	li	a3,255
    4440:	0014f813          	andi	a6,s1,1
    4444:	0cd78b63          	beq	a5,a3,451a <__subsf3+0x1e2>
    4448:	071a                	slli	a4,a4,0x6
    444a:	0ff7f513          	zext.b	a0,a5
    444e:	8325                	srli	a4,a4,0x9
    4450:	40b2                	lw	ra,12(sp)
    4452:	4422                	lw	s0,8(sp)
    4454:	055e                	slli	a0,a0,0x17
    4456:	8d59                	or	a0,a0,a4
    4458:	01f81793          	slli	a5,a6,0x1f
    445c:	4492                	lw	s1,4(sp)
    445e:	4902                	lw	s2,0(sp)
    4460:	8d5d                	or	a0,a0,a5
    4462:	0141                	addi	sp,sp,16
    4464:	8082                	ret
    4466:	f4b49fe3          	bne	s1,a1,43c4 <__subsf3+0x8c>
    446a:	c3b9                	beqz	a5,44b0 <__subsf3+0x178>
    446c:	1c091163          	bnez	s2,462e <__subsf3+0x2f6>
    4470:	0ff00793          	li	a5,255
    4474:	c73d                	beqz	a4,44e2 <__subsf3+0x1aa>
    4476:	fff78593          	addi	a1,a5,-1
    447a:	12058963          	beqz	a1,45ac <__subsf3+0x274>
    447e:	0ff00513          	li	a0,255
    4482:	1aa78663          	beq	a5,a0,462e <__subsf3+0x2f6>
    4486:	47ed                	li	a5,27
    4488:	1ab7db63          	bge	a5,a1,463e <__subsf3+0x306>
    448c:	00168713          	addi	a4,a3,1 # 4000001 <_data_lma+0x3ff9bc9>
    4490:	87b2                	mv	a5,a2
    4492:	bf51                	j	4426 <__subsf3+0xee>
    4494:	caa1                	beqz	a3,44e4 <__subsf3+0x1ac>
    4496:	fff78613          	addi	a2,a5,-1
    449a:	10060963          	beqz	a2,45ac <__subsf3+0x274>
    449e:	f2a789e3          	beq	a5,a0,43d0 <__subsf3+0x98>
    44a2:	87b2                	mv	a5,a2
    44a4:	b719                	j	43aa <__subsf3+0x72>
    44a6:	c789                	beqz	a5,44b0 <__subsf3+0x178>
    44a8:	fc0904e3          	beqz	s2,4470 <__subsf3+0x138>
    44ac:	4701                	li	a4,0
    44ae:	b70d                	j	43d0 <__subsf3+0x98>
    44b0:	00190793          	addi	a5,s2,1
    44b4:	0fe7f613          	andi	a2,a5,254
    44b8:	14061563          	bnez	a2,4602 <__subsf3+0x2ca>
    44bc:	16091863          	bnez	s2,462c <__subsf3+0x2f4>
    44c0:	1a070663          	beqz	a4,466c <__subsf3+0x334>
    44c4:	1a069663          	bnez	a3,4670 <__subsf3+0x338>
    44c8:	830d                	srli	a4,a4,0x3
    44ca:	4781                	li	a5,0
    44cc:	0726                	slli	a4,a4,0x9
    44ce:	8325                	srli	a4,a4,0x9
    44d0:	0ff7f513          	zext.b	a0,a5
    44d4:	0014f813          	andi	a6,s1,1
    44d8:	bfa5                	j	4450 <__subsf3+0x118>
    44da:	0ff00793          	li	a5,255
    44de:	eb65                	bnez	a4,45ce <__subsf3+0x296>
    44e0:	84ae                	mv	s1,a1
    44e2:	8736                	mv	a4,a3
    44e4:	0ff00693          	li	a3,255
    44e8:	830d                	srli	a4,a4,0x3
    44ea:	eed784e3          	beq	a5,a3,43d2 <__subsf3+0x9a>
    44ee:	bff9                	j	44cc <__subsf3+0x194>
    44f0:	02000613          	li	a2,32
    44f4:	8e1d                	sub	a2,a2,a5
    44f6:	00c69633          	sll	a2,a3,a2
    44fa:	00c03633          	snez	a2,a2
    44fe:	00f6d6b3          	srl	a3,a3,a5
    4502:	8ed1                	or	a3,a3,a2
    4504:	9736                	add	a4,a4,a3
    4506:	040007b7          	lui	a5,0x4000
    450a:	8ff9                	and	a5,a5,a4
    450c:	db89                	beqz	a5,441e <__subsf3+0xe6>
    450e:	00190793          	addi	a5,s2,1
    4512:	0ff00693          	li	a3,255
    4516:	0ad79363          	bne	a5,a3,45bc <__subsf3+0x284>
    451a:	0ff00513          	li	a0,255
    451e:	4701                	li	a4,0
    4520:	bf05                	j	4450 <__subsf3+0x118>
    4522:	17fd                	addi	a5,a5,-1 # 3ffffff <_data_lma+0x3ff9bc7>
    4524:	00f77433          	and	s0,a4,a5
    4528:	8522                	mv	a0,s0
    452a:	2b51                	jal	4abe <__clzsi2>
    452c:	ffb50793          	addi	a5,a0,-5
    4530:	00f41433          	sll	s0,s0,a5
    4534:	0527ca63          	blt	a5,s2,4588 <__subsf3+0x250>
    4538:	412787b3          	sub	a5,a5,s2
    453c:	0785                	addi	a5,a5,1
    453e:	02000713          	li	a4,32
    4542:	8f1d                	sub	a4,a4,a5
    4544:	00e41733          	sll	a4,s0,a4
    4548:	00e03733          	snez	a4,a4
    454c:	00f45433          	srl	s0,s0,a5
    4550:	8f41                	or	a4,a4,s0
    4552:	4781                	li	a5,0
    4554:	00777693          	andi	a3,a4,7
    4558:	ec0697e3          	bnez	a3,4426 <__subsf3+0xee>
    455c:	bdd9                	j	4432 <__subsf3+0xfa>
    455e:	00190793          	addi	a5,s2,1
    4562:	0fe7f793          	andi	a5,a5,254
    4566:	eb85                	bnez	a5,4596 <__subsf3+0x25e>
    4568:	0a091a63          	bnez	s2,461c <__subsf3+0x2e4>
    456c:	cf65                	beqz	a4,4664 <__subsf3+0x32c>
    456e:	dea9                	beqz	a3,44c8 <__subsf3+0x190>
    4570:	40d707b3          	sub	a5,a4,a3
    4574:	04000637          	lui	a2,0x4000
    4578:	8e7d                	and	a2,a2,a5
    457a:	10060863          	beqz	a2,468a <__subsf3+0x352>
    457e:	40e68733          	sub	a4,a3,a4
    4582:	4781                	li	a5,0
    4584:	84ae                	mv	s1,a1
    4586:	b7f9                	j	4554 <__subsf3+0x21c>
    4588:	fc000737          	lui	a4,0xfc000
    458c:	177d                	addi	a4,a4,-1 # fbffffff <_eusrstack+0xdbffafff>
    458e:	40f907b3          	sub	a5,s2,a5
    4592:	8f61                	and	a4,a4,s0
    4594:	b7c1                	j	4554 <__subsf3+0x21c>
    4596:	40d70433          	sub	s0,a4,a3
    459a:	040007b7          	lui	a5,0x4000
    459e:	8fe1                	and	a5,a5,s0
    45a0:	e3d1                	bnez	a5,4624 <__subsf3+0x2ec>
    45a2:	f059                	bnez	s0,4528 <__subsf3+0x1f0>
    45a4:	4801                	li	a6,0
    45a6:	4501                	li	a0,0
    45a8:	4701                	li	a4,0
    45aa:	b55d                	j	4450 <__subsf3+0x118>
    45ac:	9736                	add	a4,a4,a3
    45ae:	040006b7          	lui	a3,0x4000
    45b2:	8ef9                	and	a3,a3,a4
    45b4:	4789                	li	a5,2
    45b6:	4905                	li	s2,1
    45b8:	e60683e3          	beqz	a3,441e <__subsf3+0xe6>
    45bc:	7e000637          	lui	a2,0x7e000
    45c0:	00175693          	srli	a3,a4,0x1
    45c4:	167d                	addi	a2,a2,-1 # 7dffffff <_eusrstack+0x5dffafff>
    45c6:	8b05                	andi	a4,a4,1
    45c8:	8ef1                	and	a3,a3,a2
    45ca:	8f55                	or	a4,a4,a3
    45cc:	b761                	j	4554 <__subsf3+0x21c>
    45ce:	fff78513          	addi	a0,a5,-1 # 3ffffff <_data_lma+0x3ff9bc7>
    45d2:	c541                	beqz	a0,465a <__subsf3+0x322>
    45d4:	0ff00813          	li	a6,255
    45d8:	84ae                	mv	s1,a1
    45da:	05078a63          	beq	a5,a6,462e <__subsf3+0x2f6>
    45de:	45ed                	li	a1,27
    45e0:	4785                	li	a5,1
    45e2:	00a5cc63          	blt	a1,a0,45fa <__subsf3+0x2c2>
    45e6:	02000793          	li	a5,32
    45ea:	8f89                	sub	a5,a5,a0
    45ec:	00f717b3          	sll	a5,a4,a5
    45f0:	00a75533          	srl	a0,a4,a0
    45f4:	00f037b3          	snez	a5,a5
    45f8:	8fc9                	or	a5,a5,a0
    45fa:	40f68733          	sub	a4,a3,a5
    45fe:	8932                	mv	s2,a2
    4600:	bd09                	j	4412 <__subsf3+0xda>
    4602:	0ff00613          	li	a2,255
    4606:	f0c78ae3          	beq	a5,a2,451a <__subsf3+0x1e2>
    460a:	96ba                	add	a3,a3,a4
    460c:	0016d713          	srli	a4,a3,0x1
    4610:	00777613          	andi	a2,a4,7
    4614:	e00619e3          	bnez	a2,4426 <__subsf3+0xee>
    4618:	830d                	srli	a4,a4,0x3
    461a:	bd4d                	j	44cc <__subsf3+0x194>
    461c:	ef11                	bnez	a4,4638 <__subsf3+0x300>
    461e:	da068fe3          	beqz	a3,43dc <__subsf3+0xa4>
    4622:	b36d                	j	43cc <__subsf3+0x94>
    4624:	40e68433          	sub	s0,a3,a4
    4628:	84ae                	mv	s1,a1
    462a:	bdfd                	j	4528 <__subsf3+0x1f0>
    462c:	e711                	bnez	a4,4638 <__subsf3+0x300>
    462e:	8736                	mv	a4,a3
    4630:	b345                	j	43d0 <__subsf3+0x98>
    4632:	8f15                	sub	a4,a4,a3
    4634:	4905                	li	s2,1
    4636:	bbf1                	j	4412 <__subsf3+0xda>
    4638:	d8068ce3          	beqz	a3,43d0 <__subsf3+0x98>
    463c:	b345                	j	43dc <__subsf3+0xa4>
    463e:	02000793          	li	a5,32
    4642:	8f8d                	sub	a5,a5,a1
    4644:	00f717b3          	sll	a5,a4,a5
    4648:	00b755b3          	srl	a1,a4,a1
    464c:	00f037b3          	snez	a5,a5
    4650:	8ddd                	or	a1,a1,a5
    4652:	00d58733          	add	a4,a1,a3
    4656:	8932                	mv	s2,a2
    4658:	b57d                	j	4506 <__subsf3+0x1ce>
    465a:	40e68733          	sub	a4,a3,a4
    465e:	84ae                	mv	s1,a1
    4660:	4905                	li	s2,1
    4662:	bb45                	j	4412 <__subsf3+0xda>
    4664:	d2a1                	beqz	a3,45a4 <__subsf3+0x26c>
    4666:	84ae                	mv	s1,a1
    4668:	8736                	mv	a4,a3
    466a:	bdb9                	j	44c8 <__subsf3+0x190>
    466c:	8736                	mv	a4,a3
    466e:	bda9                	j	44c8 <__subsf3+0x190>
    4670:	9736                	add	a4,a4,a3
    4672:	04000637          	lui	a2,0x4000
    4676:	8e79                	and	a2,a2,a4
    4678:	4781                	li	a5,0
    467a:	de59                	beqz	a2,4618 <__subsf3+0x2e0>
    467c:	fc0007b7          	lui	a5,0xfc000
    4680:	17fd                	addi	a5,a5,-1 # fbffffff <_eusrstack+0xdbffafff>
    4682:	8f7d                	and	a4,a4,a5
    4684:	830d                	srli	a4,a4,0x3
    4686:	4785                	li	a5,1
    4688:	b591                	j	44cc <__subsf3+0x194>
    468a:	df89                	beqz	a5,45a4 <__subsf3+0x26c>
    468c:	873e                	mv	a4,a5
    468e:	830d                	srli	a4,a4,0x3
    4690:	4781                	li	a5,0
    4692:	bd2d                	j	44cc <__subsf3+0x194>
    4694:	ec0785e3          	beqz	a5,455e <__subsf3+0x226>
    4698:	41260533          	sub	a0,a2,s2
    469c:	87aa                	mv	a5,a0
    469e:	e40900e3          	beqz	s2,44de <__subsf3+0x1a6>
    46a2:	040007b7          	lui	a5,0x4000
    46a6:	8f5d                	or	a4,a4,a5
    46a8:	84ae                	mv	s1,a1
    46aa:	bf15                	j	45de <__subsf3+0x2a6>
    46ac:	e00782e3          	beqz	a5,44b0 <__subsf3+0x178>
    46b0:	412605b3          	sub	a1,a2,s2
    46b4:	00091463          	bnez	s2,46bc <__subsf3+0x384>
    46b8:	87ae                	mv	a5,a1
    46ba:	bb6d                	j	4474 <__subsf3+0x13c>
    46bc:	040007b7          	lui	a5,0x4000
    46c0:	8f5d                	or	a4,a4,a5
    46c2:	b3d1                	j	4486 <__subsf3+0x14e>

000046c4 <__fixsfsi>:
    46c4:	00800637          	lui	a2,0x800
    46c8:	01755713          	srli	a4,a0,0x17
    46cc:	fff60793          	addi	a5,a2,-1 # 7fffff <_data_lma+0x7f9bc7>
    46d0:	0ff77713          	zext.b	a4,a4
    46d4:	07e00593          	li	a1,126
    46d8:	00a7f6b3          	and	a3,a5,a0
    46dc:	01f55793          	srli	a5,a0,0x1f
    46e0:	00e5db63          	bge	a1,a4,46f6 <__fixsfsi+0x32>
    46e4:	09d00593          	li	a1,157
    46e8:	00e5d963          	bge	a1,a4,46fa <__fixsfsi+0x36>
    46ec:	80000537          	lui	a0,0x80000
    46f0:	157d                	addi	a0,a0,-1 # 7fffffff <_eusrstack+0x5fffafff>
    46f2:	953e                	add	a0,a0,a5
    46f4:	8082                	ret
    46f6:	4501                	li	a0,0
    46f8:	8082                	ret
    46fa:	09500593          	li	a1,149
    46fe:	8ed1                	or	a3,a3,a2
    4700:	00e5cd63          	blt	a1,a4,471a <__fixsfsi+0x56>
    4704:	09600613          	li	a2,150
    4708:	40e60733          	sub	a4,a2,a4
    470c:	00e6d6b3          	srl	a3,a3,a4
    4710:	40d00533          	neg	a0,a3
    4714:	f3f5                	bnez	a5,46f8 <__fixsfsi+0x34>
    4716:	8536                	mv	a0,a3
    4718:	8082                	ret
    471a:	f6a70713          	addi	a4,a4,-150
    471e:	00e696b3          	sll	a3,a3,a4
    4722:	b7fd                	j	4710 <__fixsfsi+0x4c>

00004724 <__floatsisf>:
    4724:	1141                	addi	sp,sp,-16
    4726:	c606                	sw	ra,12(sp)
    4728:	c422                	sw	s0,8(sp)
    472a:	c226                	sw	s1,4(sp)
    472c:	cd15                	beqz	a0,4768 <__floatsisf+0x44>
    472e:	41f55713          	srai	a4,a0,0x1f
    4732:	00a74433          	xor	s0,a4,a0
    4736:	8c19                	sub	s0,s0,a4
    4738:	87aa                	mv	a5,a0
    473a:	8522                	mv	a0,s0
    473c:	01f7d493          	srli	s1,a5,0x1f
    4740:	2ebd                	jal	4abe <__clzsi2>
    4742:	09e00713          	li	a4,158
    4746:	40a707b3          	sub	a5,a4,a0
    474a:	09600713          	li	a4,150
    474e:	02f74a63          	blt	a4,a5,4782 <__floatsisf+0x5e>
    4752:	4721                	li	a4,8
    4754:	08e50863          	beq	a0,a4,47e4 <__floatsisf+0xc0>
    4758:	1561                	addi	a0,a0,-8
    475a:	00a41733          	sll	a4,s0,a0
    475e:	0726                	slli	a4,a4,0x9
    4760:	8325                	srli	a4,a4,0x9
    4762:	0ff7f513          	zext.b	a0,a5
    4766:	a021                	j	476e <__floatsisf+0x4a>
    4768:	4481                	li	s1,0
    476a:	4501                	li	a0,0
    476c:	4701                	li	a4,0
    476e:	40b2                	lw	ra,12(sp)
    4770:	4422                	lw	s0,8(sp)
    4772:	055e                	slli	a0,a0,0x17
    4774:	01f49793          	slli	a5,s1,0x1f
    4778:	8d59                	or	a0,a0,a4
    477a:	4492                	lw	s1,4(sp)
    477c:	8d5d                	or	a0,a0,a5
    477e:	0141                	addi	sp,sp,16
    4780:	8082                	ret
    4782:	09900713          	li	a4,153
    4786:	04f74363          	blt	a4,a5,47cc <__floatsisf+0xa8>
    478a:	4715                	li	a4,5
    478c:	ffb50693          	addi	a3,a0,-5
    4790:	00e50463          	beq	a0,a4,4798 <__floatsisf+0x74>
    4794:	00d41433          	sll	s0,s0,a3
    4798:	fc0006b7          	lui	a3,0xfc000
    479c:	16fd                	addi	a3,a3,-1 # fbffffff <_eusrstack+0xdbffafff>
    479e:	00747613          	andi	a2,s0,7
    47a2:	00d47733          	and	a4,s0,a3
    47a6:	ce11                	beqz	a2,47c2 <__floatsisf+0x9e>
    47a8:	883d                	andi	s0,s0,15
    47aa:	4611                	li	a2,4
    47ac:	00c40b63          	beq	s0,a2,47c2 <__floatsisf+0x9e>
    47b0:	0711                	addi	a4,a4,4
    47b2:	04000637          	lui	a2,0x4000
    47b6:	8e79                	and	a2,a2,a4
    47b8:	c609                	beqz	a2,47c2 <__floatsisf+0x9e>
    47ba:	09f00793          	li	a5,159
    47be:	8f75                	and	a4,a4,a3
    47c0:	8f89                	sub	a5,a5,a0
    47c2:	071a                	slli	a4,a4,0x6
    47c4:	8325                	srli	a4,a4,0x9
    47c6:	0ff7f513          	zext.b	a0,a5
    47ca:	b755                	j	476e <__floatsisf+0x4a>
    47cc:	01b50713          	addi	a4,a0,27
    47d0:	4695                	li	a3,5
    47d2:	00e41733          	sll	a4,s0,a4
    47d6:	8e89                	sub	a3,a3,a0
    47d8:	00d45433          	srl	s0,s0,a3
    47dc:	00e03733          	snez	a4,a4
    47e0:	8c59                	or	s0,s0,a4
    47e2:	bf5d                	j	4798 <__floatsisf+0x74>
    47e4:	0426                	slli	s0,s0,0x9
    47e6:	00945713          	srli	a4,s0,0x9
    47ea:	09600513          	li	a0,150
    47ee:	b741                	j	476e <__floatsisf+0x4a>

000047f0 <__floatunsisf>:
    47f0:	cd0d                	beqz	a0,482a <__floatunsisf+0x3a>
    47f2:	1141                	addi	sp,sp,-16
    47f4:	c422                	sw	s0,8(sp)
    47f6:	c606                	sw	ra,12(sp)
    47f8:	842a                	mv	s0,a0
    47fa:	24d1                	jal	4abe <__clzsi2>
    47fc:	09e00793          	li	a5,158
    4800:	8f89                	sub	a5,a5,a0
    4802:	09600713          	li	a4,150
    4806:	02f74763          	blt	a4,a5,4834 <__floatunsisf+0x44>
    480a:	4721                	li	a4,8
    480c:	08e50a63          	beq	a0,a4,48a0 <__floatunsisf+0xb0>
    4810:	1561                	addi	a0,a0,-8
    4812:	00a41733          	sll	a4,s0,a0
    4816:	0726                	slli	a4,a4,0x9
    4818:	8325                	srli	a4,a4,0x9
    481a:	0ff7f513          	zext.b	a0,a5
    481e:	40b2                	lw	ra,12(sp)
    4820:	4422                	lw	s0,8(sp)
    4822:	055e                	slli	a0,a0,0x17
    4824:	8d59                	or	a0,a0,a4
    4826:	0141                	addi	sp,sp,16
    4828:	8082                	ret
    482a:	4501                	li	a0,0
    482c:	4701                	li	a4,0
    482e:	055e                	slli	a0,a0,0x17
    4830:	8d59                	or	a0,a0,a4
    4832:	8082                	ret
    4834:	09900713          	li	a4,153
    4838:	04f74863          	blt	a4,a5,4888 <__floatunsisf+0x98>
    483c:	4715                	li	a4,5
    483e:	ffb50693          	addi	a3,a0,-5
    4842:	00e50463          	beq	a0,a4,484a <__floatunsisf+0x5a>
    4846:	00d41433          	sll	s0,s0,a3
    484a:	fc0006b7          	lui	a3,0xfc000
    484e:	16fd                	addi	a3,a3,-1 # fbffffff <_eusrstack+0xdbffafff>
    4850:	00747613          	andi	a2,s0,7
    4854:	00d47733          	and	a4,s0,a3
    4858:	ce11                	beqz	a2,4874 <__floatunsisf+0x84>
    485a:	883d                	andi	s0,s0,15
    485c:	4611                	li	a2,4
    485e:	00c40b63          	beq	s0,a2,4874 <__floatunsisf+0x84>
    4862:	0711                	addi	a4,a4,4
    4864:	04000637          	lui	a2,0x4000
    4868:	8e79                	and	a2,a2,a4
    486a:	c609                	beqz	a2,4874 <__floatunsisf+0x84>
    486c:	09f00793          	li	a5,159
    4870:	8f75                	and	a4,a4,a3
    4872:	8f89                	sub	a5,a5,a0
    4874:	40b2                	lw	ra,12(sp)
    4876:	4422                	lw	s0,8(sp)
    4878:	071a                	slli	a4,a4,0x6
    487a:	0ff7f513          	zext.b	a0,a5
    487e:	8325                	srli	a4,a4,0x9
    4880:	055e                	slli	a0,a0,0x17
    4882:	8d59                	or	a0,a0,a4
    4884:	0141                	addi	sp,sp,16
    4886:	8082                	ret
    4888:	01b50713          	addi	a4,a0,27
    488c:	4695                	li	a3,5
    488e:	00e41733          	sll	a4,s0,a4
    4892:	8e89                	sub	a3,a3,a0
    4894:	00e03733          	snez	a4,a4
    4898:	00d45433          	srl	s0,s0,a3
    489c:	8c59                	or	s0,s0,a4
    489e:	b775                	j	484a <__floatunsisf+0x5a>
    48a0:	0426                	slli	s0,s0,0x9
    48a2:	00945713          	srli	a4,s0,0x9
    48a6:	09600513          	li	a0,150
    48aa:	bf95                	j	481e <__floatunsisf+0x2e>

000048ac <__extendsfdf2>:
    48ac:	01755793          	srli	a5,a0,0x17
    48b0:	0ff7f793          	zext.b	a5,a5
    48b4:	1141                	addi	sp,sp,-16
    48b6:	00178713          	addi	a4,a5,1 # 4000001 <_data_lma+0x3ff9bc9>
    48ba:	c422                	sw	s0,8(sp)
    48bc:	c226                	sw	s1,4(sp)
    48be:	c606                	sw	ra,12(sp)
    48c0:	00951493          	slli	s1,a0,0x9
    48c4:	0fe77713          	andi	a4,a4,254
    48c8:	80a5                	srli	s1,s1,0x9
    48ca:	01f55413          	srli	s0,a0,0x1f
    48ce:	c315                	beqz	a4,48f2 <__extendsfdf2+0x46>
    48d0:	0034d713          	srli	a4,s1,0x3
    48d4:	38078793          	addi	a5,a5,896
    48d8:	04f6                	slli	s1,s1,0x1d
    48da:	01f41513          	slli	a0,s0,0x1f
    48de:	40b2                	lw	ra,12(sp)
    48e0:	4422                	lw	s0,8(sp)
    48e2:	07d2                	slli	a5,a5,0x14
    48e4:	8fd9                	or	a5,a5,a4
    48e6:	8fc9                	or	a5,a5,a0
    48e8:	85be                	mv	a1,a5
    48ea:	8526                	mv	a0,s1
    48ec:	4492                	lw	s1,4(sp)
    48ee:	0141                	addi	sp,sp,16
    48f0:	8082                	ret
    48f2:	e79d                	bnez	a5,4920 <__extendsfdf2+0x74>
    48f4:	c0b1                	beqz	s1,4938 <__extendsfdf2+0x8c>
    48f6:	8526                	mv	a0,s1
    48f8:	22d9                	jal	4abe <__clzsi2>
    48fa:	47a9                	li	a5,10
    48fc:	04a7c563          	blt	a5,a0,4946 <__extendsfdf2+0x9a>
    4900:	472d                	li	a4,11
    4902:	8f09                	sub	a4,a4,a0
    4904:	01550793          	addi	a5,a0,21
    4908:	00e4d733          	srl	a4,s1,a4
    490c:	00f494b3          	sll	s1,s1,a5
    4910:	38900793          	li	a5,905
    4914:	0732                	slli	a4,a4,0xc
    4916:	8f89                	sub	a5,a5,a0
    4918:	8331                	srli	a4,a4,0xc
    491a:	7ff7f793          	andi	a5,a5,2047
    491e:	bf75                	j	48da <__extendsfdf2+0x2e>
    4920:	cc99                	beqz	s1,493e <__extendsfdf2+0x92>
    4922:	0034d713          	srli	a4,s1,0x3
    4926:	000807b7          	lui	a5,0x80
    492a:	8f5d                	or	a4,a4,a5
    492c:	0732                	slli	a4,a4,0xc
    492e:	04f6                	slli	s1,s1,0x1d
    4930:	8331                	srli	a4,a4,0xc
    4932:	7ff00793          	li	a5,2047
    4936:	b755                	j	48da <__extendsfdf2+0x2e>
    4938:	4781                	li	a5,0
    493a:	4701                	li	a4,0
    493c:	bf79                	j	48da <__extendsfdf2+0x2e>
    493e:	7ff00793          	li	a5,2047
    4942:	4701                	li	a4,0
    4944:	bf59                	j	48da <__extendsfdf2+0x2e>
    4946:	ff550713          	addi	a4,a0,-11
    494a:	00e49733          	sll	a4,s1,a4
    494e:	4481                	li	s1,0
    4950:	b7c1                	j	4910 <__extendsfdf2+0x64>

00004952 <__truncdfsf2>:
    4952:	0145d793          	srli	a5,a1,0x14
    4956:	7ff7f793          	andi	a5,a5,2047
    495a:	00c59693          	slli	a3,a1,0xc
    495e:	00178613          	addi	a2,a5,1 # 80001 <_data_lma+0x79bc9>
    4962:	82a5                	srli	a3,a3,0x9
    4964:	01d55713          	srli	a4,a0,0x1d
    4968:	7fe67613          	andi	a2,a2,2046
    496c:	81fd                	srli	a1,a1,0x1f
    496e:	8ed9                	or	a3,a3,a4
    4970:	00351813          	slli	a6,a0,0x3
    4974:	c205                	beqz	a2,4994 <__truncdfsf2+0x42>
    4976:	c8078613          	addi	a2,a5,-896
    497a:	0fe00713          	li	a4,254
    497e:	04c75463          	bge	a4,a2,49c6 <__truncdfsf2+0x74>
    4982:	0ff00793          	li	a5,255
    4986:	4701                	li	a4,0
    4988:	07de                	slli	a5,a5,0x17
    498a:	00e7e533          	or	a0,a5,a4
    498e:	05fe                	slli	a1,a1,0x1f
    4990:	8d4d                	or	a0,a0,a1
    4992:	8082                	ret
    4994:	0106e733          	or	a4,a3,a6
    4998:	eb89                	bnez	a5,49aa <__truncdfsf2+0x58>
    499a:	4801                	li	a6,0
    499c:	cb2d                	beqz	a4,4a0e <__truncdfsf2+0xbc>
    499e:	0826                	slli	a6,a6,0x9
    49a0:	00985713          	srli	a4,a6,0x9
    49a4:	0ff7f793          	zext.b	a5,a5
    49a8:	b7c5                	j	4988 <__truncdfsf2+0x36>
    49aa:	0ff00793          	li	a5,255
    49ae:	df69                	beqz	a4,4988 <__truncdfsf2+0x36>
    49b0:	0ff00793          	li	a5,255
    49b4:	00400737          	lui	a4,0x400
    49b8:	07de                	slli	a5,a5,0x17
    49ba:	4581                	li	a1,0
    49bc:	00e7e533          	or	a0,a5,a4
    49c0:	05fe                	slli	a1,a1,0x1f
    49c2:	8d4d                	or	a0,a0,a1
    49c4:	8082                	ret
    49c6:	04c05c63          	blez	a2,4a1e <__truncdfsf2+0xcc>
    49ca:	00651713          	slli	a4,a0,0x6
    49ce:	00e03733          	snez	a4,a4
    49d2:	068e                	slli	a3,a3,0x3
    49d4:	01d85813          	srli	a6,a6,0x1d
    49d8:	8f55                	or	a4,a4,a3
    49da:	01076733          	or	a4,a4,a6
    49de:	00777793          	andi	a5,a4,7
    49e2:	cbe9                	beqz	a5,4ab4 <__truncdfsf2+0x162>
    49e4:	00f77793          	andi	a5,a4,15
    49e8:	4691                	li	a3,4
    49ea:	0cd78563          	beq	a5,a3,4ab4 <__truncdfsf2+0x162>
    49ee:	0711                	addi	a4,a4,4 # 400004 <_data_lma+0x3f9bcc>
    49f0:	040007b7          	lui	a5,0x4000
    49f4:	8ff9                	and	a5,a5,a4
    49f6:	c7dd                	beqz	a5,4aa4 <__truncdfsf2+0x152>
    49f8:	00160793          	addi	a5,a2,1 # 4000001 <_data_lma+0x3ff9bc9>
    49fc:	0ff7f793          	zext.b	a5,a5
    4a00:	4701                	li	a4,0
    4a02:	07de                	slli	a5,a5,0x17
    4a04:	00e7e533          	or	a0,a5,a4
    4a08:	05fe                	slli	a1,a1,0x1f
    4a0a:	8d4d                	or	a0,a0,a1
    4a0c:	8082                	ret
    4a0e:	4781                	li	a5,0
    4a10:	4701                	li	a4,0
    4a12:	07de                	slli	a5,a5,0x17
    4a14:	00e7e533          	or	a0,a5,a4
    4a18:	05fe                	slli	a1,a1,0x1f
    4a1a:	8d4d                	or	a0,a0,a1
    4a1c:	8082                	ret
    4a1e:	5725                	li	a4,-23
    4a20:	fee647e3          	blt	a2,a4,4a0e <__truncdfsf2+0xbc>
    4a24:	4579                	li	a0,30
    4a26:	008008b7          	lui	a7,0x800
    4a2a:	8d11                	sub	a0,a0,a2
    4a2c:	477d                	li	a4,31
    4a2e:	0116e6b3          	or	a3,a3,a7
    4a32:	04a75063          	bge	a4,a0,4a72 <__truncdfsf2+0x120>
    4a36:	5779                	li	a4,-2
    4a38:	8f11                	sub	a4,a4,a2
    4a3a:	02000613          	li	a2,32
    4a3e:	00e6d733          	srl	a4,a3,a4
    4a42:	00c50863          	beq	a0,a2,4a52 <__truncdfsf2+0x100>
    4a46:	ca278793          	addi	a5,a5,-862 # 3fffca2 <_data_lma+0x3ff986a>
    4a4a:	00f696b3          	sll	a3,a3,a5
    4a4e:	00d86833          	or	a6,a6,a3
    4a52:	01003833          	snez	a6,a6
    4a56:	00e86833          	or	a6,a6,a4
    4a5a:	00787793          	andi	a5,a6,7
    4a5e:	c7b9                	beqz	a5,4aac <__truncdfsf2+0x15a>
    4a60:	00f87793          	andi	a5,a6,15
    4a64:	4711                	li	a4,4
    4a66:	02e79c63          	bne	a5,a4,4a9e <__truncdfsf2+0x14c>
    4a6a:	00385813          	srli	a6,a6,0x3
    4a6e:	4781                	li	a5,0
    4a70:	b73d                	j	499e <__truncdfsf2+0x4c>
    4a72:	c8278793          	addi	a5,a5,-894
    4a76:	00f81733          	sll	a4,a6,a5
    4a7a:	00f696b3          	sll	a3,a3,a5
    4a7e:	00e03733          	snez	a4,a4
    4a82:	00a85833          	srl	a6,a6,a0
    4a86:	8f55                	or	a4,a4,a3
    4a88:	00e86733          	or	a4,a6,a4
    4a8c:	00777793          	andi	a5,a4,7
    4a90:	4601                	li	a2,0
    4a92:	fba9                	bnez	a5,49e4 <__truncdfsf2+0x92>
    4a94:	830d                	srli	a4,a4,0x3
    4a96:	18fd                	addi	a7,a7,-1 # 7fffff <_data_lma+0x7f9bc7>
    4a98:	01177733          	and	a4,a4,a7
    4a9c:	b5f5                	j	4988 <__truncdfsf2+0x36>
    4a9e:	00480713          	addi	a4,a6,4
    4aa2:	4601                	li	a2,0
    4aa4:	00375813          	srli	a6,a4,0x3
    4aa8:	87b2                	mv	a5,a2
    4aaa:	bdd5                	j	499e <__truncdfsf2+0x4c>
    4aac:	081a                	slli	a6,a6,0x6
    4aae:	00985713          	srli	a4,a6,0x9
    4ab2:	bdd9                	j	4988 <__truncdfsf2+0x36>
    4ab4:	071a                	slli	a4,a4,0x6
    4ab6:	8325                	srli	a4,a4,0x9
    4ab8:	0ff67793          	zext.b	a5,a2
    4abc:	b5f1                	j	4988 <__truncdfsf2+0x36>

00004abe <__clzsi2>:
    4abe:	67c1                	lui	a5,0x10
    4ac0:	02f57563          	bgeu	a0,a5,4aea <__clzsi2+0x2c>
    4ac4:	10053793          	sltiu	a5,a0,256
    4ac8:	0017c793          	xori	a5,a5,1
    4acc:	078e                	slli	a5,a5,0x3
    4ace:	02000713          	li	a4,32
    4ad2:	8f1d                	sub	a4,a4,a5
    4ad4:	00f55533          	srl	a0,a0,a5
    4ad8:	00001797          	auipc	a5,0x1
    4adc:	6a078793          	addi	a5,a5,1696 # 6178 <__clz_tab>
    4ae0:	97aa                	add	a5,a5,a0
    4ae2:	2388                	lbu	a0,0(a5)
    4ae4:	40a70533          	sub	a0,a4,a0
    4ae8:	8082                	ret
    4aea:	010007b7          	lui	a5,0x1000
    4aee:	00f57f63          	bgeu	a0,a5,4b0c <__clzsi2+0x4e>
    4af2:	47c1                	li	a5,16
    4af4:	00f55533          	srl	a0,a0,a5
    4af8:	00001797          	auipc	a5,0x1
    4afc:	68078793          	addi	a5,a5,1664 # 6178 <__clz_tab>
    4b00:	97aa                	add	a5,a5,a0
    4b02:	2388                	lbu	a0,0(a5)
    4b04:	4741                	li	a4,16
    4b06:	40a70533          	sub	a0,a4,a0
    4b0a:	8082                	ret
    4b0c:	47e1                	li	a5,24
    4b0e:	00f55533          	srl	a0,a0,a5
    4b12:	00001797          	auipc	a5,0x1
    4b16:	66678793          	addi	a5,a5,1638 # 6178 <__clz_tab>
    4b1a:	97aa                	add	a5,a5,a0
    4b1c:	2388                	lbu	a0,0(a5)
    4b1e:	4721                	li	a4,8
    4b20:	40a70533          	sub	a0,a4,a0
    4b24:	8082                	ret

00004b26 <iprintf>:
    4b26:	715d                	addi	sp,sp,-80
    4b28:	d422                	sw	s0,40(sp)
    4b2a:	d606                	sw	ra,44(sp)
    4b2c:	842a                	mv	s0,a0
    4b2e:	da2e                	sw	a1,52(sp)
    4b30:	dc32                	sw	a2,56(sp)
    4b32:	de36                	sw	a3,60(sp)
    4b34:	c0ba                	sw	a4,64(sp)
    4b36:	c2be                	sw	a5,68(sp)
    4b38:	c4c2                	sw	a6,72(sp)
    4b3a:	c6c6                	sw	a7,76(sp)
    4b3c:	8101a503          	lw	a0,-2032(gp) # 20000080 <_impure_ptr>
    4b40:	c511                	beqz	a0,4b4c <iprintf+0x26>
    4b42:	4d1c                	lw	a5,24(a0)
    4b44:	e781                	bnez	a5,4b4c <iprintf+0x26>
    4b46:	c62a                	sw	a0,12(sp)
    4b48:	2545                	jal	51e8 <__sinit>
    4b4a:	4532                	lw	a0,12(sp)
    4b4c:	450c                	lw	a1,8(a0)
    4b4e:	1854                	addi	a3,sp,52
    4b50:	8622                	mv	a2,s0
    4b52:	ce36                	sw	a3,28(sp)
    4b54:	39d000ef          	jal	ra,56f0 <_vfiprintf_r>
    4b58:	50b2                	lw	ra,44(sp)
    4b5a:	5422                	lw	s0,40(sp)
    4b5c:	6161                	addi	sp,sp,80
    4b5e:	8082                	ret

00004b60 <_puts_r>:
    4b60:	1101                	addi	sp,sp,-32
    4b62:	ca26                	sw	s1,20(sp)
    4b64:	ce06                	sw	ra,28(sp)
    4b66:	cc22                	sw	s0,24(sp)
    4b68:	c84a                	sw	s2,16(sp)
    4b6a:	c64e                	sw	s3,12(sp)
    4b6c:	c452                	sw	s4,8(sp)
    4b6e:	84aa                	mv	s1,a0
    4b70:	e119                	bnez	a0,4b76 <_puts_r+0x16>
    4b72:	451c                	lw	a5,8(a0)
    4b74:	9002                	ebreak
    4b76:	4d1c                	lw	a5,24(a0)
    4b78:	892e                	mv	s2,a1
    4b7a:	e3bd                	bnez	a5,4be0 <_puts_r+0x80>
    4b7c:	25b5                	jal	51e8 <__sinit>
    4b7e:	4c9c                	lw	a5,24(s1)
    4b80:	4480                	lw	s0,8(s1)
    4b82:	c3ad                	beqz	a5,4be4 <_puts_r+0x84>
    4b84:	00002797          	auipc	a5,0x2
    4b88:	80078793          	addi	a5,a5,-2048 # 6384 <__sf_fake_stdin>
    4b8c:	04f41f63          	bne	s0,a5,4bea <_puts_r+0x8a>
    4b90:	40c0                	lw	s0,4(s1)
    4b92:	507c                	lw	a5,100(s0)
    4b94:	8b85                	andi	a5,a5,1
    4b96:	eb81                	bnez	a5,4ba6 <_puts_r+0x46>
    4b98:	245e                	lhu	a5,12(s0)
    4b9a:	2007f793          	andi	a5,a5,512
    4b9e:	e781                	bnez	a5,4ba6 <_puts_r+0x46>
    4ba0:	4c28                	lw	a0,88(s0)
    4ba2:	7ee000ef          	jal	ra,5390 <__retarget_lock_acquire_recursive>
    4ba6:	245e                	lhu	a5,12(s0)
    4ba8:	8ba1                	andi	a5,a5,8
    4baa:	c399                	beqz	a5,4bb0 <_puts_r+0x50>
    4bac:	481c                	lw	a5,16(s0)
    4bae:	e3dd                	bnez	a5,4c54 <_puts_r+0xf4>
    4bb0:	85a2                	mv	a1,s0
    4bb2:	8526                	mv	a0,s1
    4bb4:	2459                	jal	4e3a <__swsetup_r>
    4bb6:	cd59                	beqz	a0,4c54 <_puts_r+0xf4>
    4bb8:	54fd                	li	s1,-1
    4bba:	507c                	lw	a5,100(s0)
    4bbc:	8b85                	andi	a5,a5,1
    4bbe:	eb81                	bnez	a5,4bce <_puts_r+0x6e>
    4bc0:	245e                	lhu	a5,12(s0)
    4bc2:	2007f793          	andi	a5,a5,512
    4bc6:	e781                	bnez	a5,4bce <_puts_r+0x6e>
    4bc8:	4c28                	lw	a0,88(s0)
    4bca:	7c8000ef          	jal	ra,5392 <__retarget_lock_release_recursive>
    4bce:	40f2                	lw	ra,28(sp)
    4bd0:	4462                	lw	s0,24(sp)
    4bd2:	4942                	lw	s2,16(sp)
    4bd4:	49b2                	lw	s3,12(sp)
    4bd6:	4a22                	lw	s4,8(sp)
    4bd8:	8526                	mv	a0,s1
    4bda:	44d2                	lw	s1,20(sp)
    4bdc:	6105                	addi	sp,sp,32
    4bde:	8082                	ret
    4be0:	4500                	lw	s0,8(a0)
    4be2:	b74d                	j	4b84 <_puts_r+0x24>
    4be4:	8526                	mv	a0,s1
    4be6:	2509                	jal	51e8 <__sinit>
    4be8:	bf71                	j	4b84 <_puts_r+0x24>
    4bea:	00001797          	auipc	a5,0x1
    4bee:	77a78793          	addi	a5,a5,1914 # 6364 <__sf_fake_stdout>
    4bf2:	00f41463          	bne	s0,a5,4bfa <_puts_r+0x9a>
    4bf6:	4480                	lw	s0,8(s1)
    4bf8:	bf69                	j	4b92 <_puts_r+0x32>
    4bfa:	00001797          	auipc	a5,0x1
    4bfe:	74a78793          	addi	a5,a5,1866 # 6344 <__sf_fake_stderr>
    4c02:	f8f418e3          	bne	s0,a5,4b92 <_puts_r+0x32>
    4c06:	44c0                	lw	s0,12(s1)
    4c08:	b769                	j	4b92 <_puts_r+0x32>
    4c0a:	c41c                	sw	a5,8(s0)
    4c0c:	0905                	addi	s2,s2,1
    4c0e:	0207c863          	bltz	a5,4c3e <_puts_r+0xde>
    4c12:	401c                	lw	a5,0(s0)
    4c14:	00178713          	addi	a4,a5,1
    4c18:	c018                	sw	a4,0(s0)
    4c1a:	a38c                	sb	a1,0(a5)
    4c1c:	441c                	lw	a5,8(s0)
    4c1e:	00094583          	lbu	a1,0(s2)
    4c22:	17fd                	addi	a5,a5,-1
    4c24:	f1fd                	bnez	a1,4c0a <_puts_r+0xaa>
    4c26:	c41c                	sw	a5,8(s0)
    4c28:	0207d963          	bgez	a5,4c5a <_puts_r+0xfa>
    4c2c:	8622                	mv	a2,s0
    4c2e:	45a9                	li	a1,10
    4c30:	8526                	mv	a0,s1
    4c32:	22b1                	jal	4d7e <__swbuf_r>
    4c34:	57fd                	li	a5,-1
    4c36:	f8f501e3          	beq	a0,a5,4bb8 <_puts_r+0x58>
    4c3a:	44a9                	li	s1,10
    4c3c:	bfbd                	j	4bba <_puts_r+0x5a>
    4c3e:	4c18                	lw	a4,24(s0)
    4c40:	00e7c463          	blt	a5,a4,4c48 <_puts_r+0xe8>
    4c44:	fd4597e3          	bne	a1,s4,4c12 <_puts_r+0xb2>
    4c48:	8622                	mv	a2,s0
    4c4a:	8526                	mv	a0,s1
    4c4c:	2a0d                	jal	4d7e <__swbuf_r>
    4c4e:	fd3517e3          	bne	a0,s3,4c1c <_puts_r+0xbc>
    4c52:	b79d                	j	4bb8 <_puts_r+0x58>
    4c54:	59fd                	li	s3,-1
    4c56:	4a29                	li	s4,10
    4c58:	b7d1                	j	4c1c <_puts_r+0xbc>
    4c5a:	401c                	lw	a5,0(s0)
    4c5c:	00178713          	addi	a4,a5,1
    4c60:	c018                	sw	a4,0(s0)
    4c62:	4729                	li	a4,10
    4c64:	a398                	sb	a4,0(a5)
    4c66:	bfd1                	j	4c3a <_puts_r+0xda>

00004c68 <puts>:
    4c68:	85aa                	mv	a1,a0
    4c6a:	8101a503          	lw	a0,-2032(gp) # 20000080 <_impure_ptr>
    4c6e:	bdcd                	j	4b60 <_puts_r>

00004c70 <srand>:
    4c70:	1141                	addi	sp,sp,-16
    4c72:	c226                	sw	s1,4(sp)
    4c74:	8101a483          	lw	s1,-2032(gp) # 20000080 <_impure_ptr>
    4c78:	5c9c                	lw	a5,56(s1)
    4c7a:	c422                	sw	s0,8(sp)
    4c7c:	c606                	sw	ra,12(sp)
    4c7e:	842a                	mv	s0,a0
    4c80:	e7b9                	bnez	a5,4cce <srand+0x5e>
    4c82:	4561                	li	a0,24
    4c84:	7fc000ef          	jal	ra,5480 <malloc>
    4c88:	dc88                	sw	a0,56(s1)
    4c8a:	ed09                	bnez	a0,4ca4 <srand+0x34>
    4c8c:	00001697          	auipc	a3,0x1
    4c90:	5ec68693          	addi	a3,a3,1516 # 6278 <__clz_tab+0x100>
    4c94:	4601                	li	a2,0
    4c96:	04200593          	li	a1,66
    4c9a:	00001517          	auipc	a0,0x1
    4c9e:	5f650513          	addi	a0,a0,1526 # 6290 <__clz_tab+0x118>
    4ca2:	2459                	jal	4f28 <__assert_func>
    4ca4:	abcd37b7          	lui	a5,0xabcd3
    4ca8:	30e78793          	addi	a5,a5,782 # abcd330e <_eusrstack+0x8bcce30e>
    4cac:	c11c                	sw	a5,0(a0)
    4cae:	e66d17b7          	lui	a5,0xe66d1
    4cb2:	23478793          	addi	a5,a5,564 # e66d1234 <_eusrstack+0xc66cc234>
    4cb6:	c15c                	sw	a5,4(a0)
    4cb8:	0005e7b7          	lui	a5,0x5e
    4cbc:	eec78793          	addi	a5,a5,-276 # 5deec <_data_lma+0x57ab4>
    4cc0:	c51c                	sw	a5,8(a0)
    4cc2:	47ad                	li	a5,11
    4cc4:	a55e                	sh	a5,12(a0)
    4cc6:	4705                	li	a4,1
    4cc8:	4781                	li	a5,0
    4cca:	c918                	sw	a4,16(a0)
    4ccc:	c95c                	sw	a5,20(a0)
    4cce:	5c9c                	lw	a5,56(s1)
    4cd0:	40b2                	lw	ra,12(sp)
    4cd2:	4492                	lw	s1,4(sp)
    4cd4:	cb80                	sw	s0,16(a5)
    4cd6:	4422                	lw	s0,8(sp)
    4cd8:	0007aa23          	sw	zero,20(a5)
    4cdc:	0141                	addi	sp,sp,16
    4cde:	8082                	ret

00004ce0 <rand>:
    4ce0:	1141                	addi	sp,sp,-16
    4ce2:	c422                	sw	s0,8(sp)
    4ce4:	8101a403          	lw	s0,-2032(gp) # 20000080 <_impure_ptr>
    4ce8:	5c1c                	lw	a5,56(s0)
    4cea:	c606                	sw	ra,12(sp)
    4cec:	e7b9                	bnez	a5,4d3a <rand+0x5a>
    4cee:	4561                	li	a0,24
    4cf0:	790000ef          	jal	ra,5480 <malloc>
    4cf4:	dc08                	sw	a0,56(s0)
    4cf6:	ed09                	bnez	a0,4d10 <rand+0x30>
    4cf8:	00001697          	auipc	a3,0x1
    4cfc:	58068693          	addi	a3,a3,1408 # 6278 <__clz_tab+0x100>
    4d00:	4601                	li	a2,0
    4d02:	04e00593          	li	a1,78
    4d06:	00001517          	auipc	a0,0x1
    4d0a:	58a50513          	addi	a0,a0,1418 # 6290 <__clz_tab+0x118>
    4d0e:	2c29                	jal	4f28 <__assert_func>
    4d10:	abcd37b7          	lui	a5,0xabcd3
    4d14:	30e78793          	addi	a5,a5,782 # abcd330e <_eusrstack+0x8bcce30e>
    4d18:	c11c                	sw	a5,0(a0)
    4d1a:	e66d17b7          	lui	a5,0xe66d1
    4d1e:	23478793          	addi	a5,a5,564 # e66d1234 <_eusrstack+0xc66cc234>
    4d22:	c15c                	sw	a5,4(a0)
    4d24:	0005e7b7          	lui	a5,0x5e
    4d28:	eec78793          	addi	a5,a5,-276 # 5deec <_data_lma+0x57ab4>
    4d2c:	c51c                	sw	a5,8(a0)
    4d2e:	47ad                	li	a5,11
    4d30:	a55e                	sh	a5,12(a0)
    4d32:	4705                	li	a4,1
    4d34:	4781                	li	a5,0
    4d36:	c918                	sw	a4,16(a0)
    4d38:	c95c                	sw	a5,20(a0)
    4d3a:	5c0c                	lw	a1,56(s0)
    4d3c:	4c9586b7          	lui	a3,0x4c958
    4d40:	5851f637          	lui	a2,0x5851f
    4d44:	4998                	lw	a4,16(a1)
    4d46:	49dc                	lw	a5,20(a1)
    4d48:	f2d68693          	addi	a3,a3,-211 # 4c957f2d <_eusrstack+0x2c952f2d>
    4d4c:	42d60613          	addi	a2,a2,1069 # 5851f42d <_eusrstack+0x3851a42d>
    4d50:	02c70633          	mul	a2,a4,a2
    4d54:	40b2                	lw	ra,12(sp)
    4d56:	4422                	lw	s0,8(sp)
    4d58:	02d787b3          	mul	a5,a5,a3
    4d5c:	02d70533          	mul	a0,a4,a3
    4d60:	97b2                	add	a5,a5,a2
    4d62:	02d73733          	mulhu	a4,a4,a3
    4d66:	97ba                	add	a5,a5,a4
    4d68:	00150713          	addi	a4,a0,1
    4d6c:	00a73533          	sltu	a0,a4,a0
    4d70:	953e                	add	a0,a0,a5
    4d72:	c9c8                	sw	a0,20(a1)
    4d74:	c998                	sw	a4,16(a1)
    4d76:	0506                	slli	a0,a0,0x1
    4d78:	8105                	srli	a0,a0,0x1
    4d7a:	0141                	addi	sp,sp,16
    4d7c:	8082                	ret

00004d7e <__swbuf_r>:
    4d7e:	1101                	addi	sp,sp,-32
    4d80:	cc22                	sw	s0,24(sp)
    4d82:	ca26                	sw	s1,20(sp)
    4d84:	c84a                	sw	s2,16(sp)
    4d86:	ce06                	sw	ra,28(sp)
    4d88:	c64e                	sw	s3,12(sp)
    4d8a:	84aa                	mv	s1,a0
    4d8c:	892e                	mv	s2,a1
    4d8e:	8432                	mv	s0,a2
    4d90:	c501                	beqz	a0,4d98 <__swbuf_r+0x1a>
    4d92:	4d1c                	lw	a5,24(a0)
    4d94:	e391                	bnez	a5,4d98 <__swbuf_r+0x1a>
    4d96:	2989                	jal	51e8 <__sinit>
    4d98:	00001797          	auipc	a5,0x1
    4d9c:	5ec78793          	addi	a5,a5,1516 # 6384 <__sf_fake_stdin>
    4da0:	02f41763          	bne	s0,a5,4dce <__swbuf_r+0x50>
    4da4:	40c0                	lw	s0,4(s1)
    4da6:	4c1c                	lw	a5,24(s0)
    4da8:	c41c                	sw	a5,8(s0)
    4daa:	245e                	lhu	a5,12(s0)
    4dac:	8ba1                	andi	a5,a5,8
    4dae:	c399                	beqz	a5,4db4 <__swbuf_r+0x36>
    4db0:	481c                	lw	a5,16(s0)
    4db2:	ef95                	bnez	a5,4dee <__swbuf_r+0x70>
    4db4:	85a2                	mv	a1,s0
    4db6:	8526                	mv	a0,s1
    4db8:	2049                	jal	4e3a <__swsetup_r>
    4dba:	c915                	beqz	a0,4dee <__swbuf_r+0x70>
    4dbc:	597d                	li	s2,-1
    4dbe:	40f2                	lw	ra,28(sp)
    4dc0:	4462                	lw	s0,24(sp)
    4dc2:	44d2                	lw	s1,20(sp)
    4dc4:	49b2                	lw	s3,12(sp)
    4dc6:	854a                	mv	a0,s2
    4dc8:	4942                	lw	s2,16(sp)
    4dca:	6105                	addi	sp,sp,32
    4dcc:	8082                	ret
    4dce:	00001797          	auipc	a5,0x1
    4dd2:	59678793          	addi	a5,a5,1430 # 6364 <__sf_fake_stdout>
    4dd6:	00f41463          	bne	s0,a5,4dde <__swbuf_r+0x60>
    4dda:	4480                	lw	s0,8(s1)
    4ddc:	b7e9                	j	4da6 <__swbuf_r+0x28>
    4dde:	00001797          	auipc	a5,0x1
    4de2:	56678793          	addi	a5,a5,1382 # 6344 <__sf_fake_stderr>
    4de6:	fcf410e3          	bne	s0,a5,4da6 <__swbuf_r+0x28>
    4dea:	44c0                	lw	s0,12(s1)
    4dec:	bf6d                	j	4da6 <__swbuf_r+0x28>
    4dee:	481c                	lw	a5,16(s0)
    4df0:	4008                	lw	a0,0(s0)
    4df2:	0ff97993          	zext.b	s3,s2
    4df6:	0ff97913          	zext.b	s2,s2
    4dfa:	8d1d                	sub	a0,a0,a5
    4dfc:	485c                	lw	a5,20(s0)
    4dfe:	00f54663          	blt	a0,a5,4e0a <__swbuf_r+0x8c>
    4e02:	85a2                	mv	a1,s0
    4e04:	8526                	mv	a0,s1
    4e06:	2471                	jal	5092 <_fflush_r>
    4e08:	f955                	bnez	a0,4dbc <__swbuf_r+0x3e>
    4e0a:	441c                	lw	a5,8(s0)
    4e0c:	0505                	addi	a0,a0,1
    4e0e:	17fd                	addi	a5,a5,-1
    4e10:	c41c                	sw	a5,8(s0)
    4e12:	401c                	lw	a5,0(s0)
    4e14:	00178713          	addi	a4,a5,1
    4e18:	c018                	sw	a4,0(s0)
    4e1a:	01378023          	sb	s3,0(a5)
    4e1e:	485c                	lw	a5,20(s0)
    4e20:	00a78863          	beq	a5,a0,4e30 <__swbuf_r+0xb2>
    4e24:	245e                	lhu	a5,12(s0)
    4e26:	8b85                	andi	a5,a5,1
    4e28:	dbd9                	beqz	a5,4dbe <__swbuf_r+0x40>
    4e2a:	47a9                	li	a5,10
    4e2c:	f8f919e3          	bne	s2,a5,4dbe <__swbuf_r+0x40>
    4e30:	85a2                	mv	a1,s0
    4e32:	8526                	mv	a0,s1
    4e34:	2cb9                	jal	5092 <_fflush_r>
    4e36:	d541                	beqz	a0,4dbe <__swbuf_r+0x40>
    4e38:	b751                	j	4dbc <__swbuf_r+0x3e>

00004e3a <__swsetup_r>:
    4e3a:	1141                	addi	sp,sp,-16
    4e3c:	c422                	sw	s0,8(sp)
    4e3e:	c226                	sw	s1,4(sp)
    4e40:	c04a                	sw	s2,0(sp)
    4e42:	c606                	sw	ra,12(sp)
    4e44:	8101a483          	lw	s1,-2032(gp) # 20000080 <_impure_ptr>
    4e48:	892a                	mv	s2,a0
    4e4a:	842e                	mv	s0,a1
    4e4c:	c489                	beqz	s1,4e56 <__swsetup_r+0x1c>
    4e4e:	4c9c                	lw	a5,24(s1)
    4e50:	e399                	bnez	a5,4e56 <__swsetup_r+0x1c>
    4e52:	8526                	mv	a0,s1
    4e54:	2e51                	jal	51e8 <__sinit>
    4e56:	00001797          	auipc	a5,0x1
    4e5a:	52e78793          	addi	a5,a5,1326 # 6384 <__sf_fake_stdin>
    4e5e:	02f41363          	bne	s0,a5,4e84 <__swsetup_r+0x4a>
    4e62:	40c0                	lw	s0,4(s1)
    4e64:	00c41783          	lh	a5,12(s0)
    4e68:	0087f713          	andi	a4,a5,8
    4e6c:	e725                	bnez	a4,4ed4 <__swsetup_r+0x9a>
    4e6e:	0107f713          	andi	a4,a5,16
    4e72:	eb0d                	bnez	a4,4ea4 <__swsetup_r+0x6a>
    4e74:	4725                	li	a4,9
    4e76:	00e92023          	sw	a4,0(s2)
    4e7a:	0407e793          	ori	a5,a5,64
    4e7e:	a45e                	sh	a5,12(s0)
    4e80:	557d                	li	a0,-1
    4e82:	a071                	j	4f0e <__swsetup_r+0xd4>
    4e84:	00001797          	auipc	a5,0x1
    4e88:	4e078793          	addi	a5,a5,1248 # 6364 <__sf_fake_stdout>
    4e8c:	00f41463          	bne	s0,a5,4e94 <__swsetup_r+0x5a>
    4e90:	4480                	lw	s0,8(s1)
    4e92:	bfc9                	j	4e64 <__swsetup_r+0x2a>
    4e94:	00001797          	auipc	a5,0x1
    4e98:	4b078793          	addi	a5,a5,1200 # 6344 <__sf_fake_stderr>
    4e9c:	fcf414e3          	bne	s0,a5,4e64 <__swsetup_r+0x2a>
    4ea0:	44c0                	lw	s0,12(s1)
    4ea2:	b7c9                	j	4e64 <__swsetup_r+0x2a>
    4ea4:	8b91                	andi	a5,a5,4
    4ea6:	c39d                	beqz	a5,4ecc <__swsetup_r+0x92>
    4ea8:	584c                	lw	a1,52(s0)
    4eaa:	c989                	beqz	a1,4ebc <__swsetup_r+0x82>
    4eac:	04440793          	addi	a5,s0,68
    4eb0:	00f58463          	beq	a1,a5,4eb8 <__swsetup_r+0x7e>
    4eb4:	854a                	mv	a0,s2
    4eb6:	2bc9                	jal	5488 <_free_r>
    4eb8:	02042a23          	sw	zero,52(s0)
    4ebc:	245e                	lhu	a5,12(s0)
    4ebe:	00042223          	sw	zero,4(s0)
    4ec2:	fdb7f793          	andi	a5,a5,-37
    4ec6:	a45e                	sh	a5,12(s0)
    4ec8:	481c                	lw	a5,16(s0)
    4eca:	c01c                	sw	a5,0(s0)
    4ecc:	245e                	lhu	a5,12(s0)
    4ece:	0087e793          	ori	a5,a5,8
    4ed2:	a45e                	sh	a5,12(s0)
    4ed4:	481c                	lw	a5,16(s0)
    4ed6:	eb99                	bnez	a5,4eec <__swsetup_r+0xb2>
    4ed8:	245e                	lhu	a5,12(s0)
    4eda:	20000713          	li	a4,512
    4ede:	2807f793          	andi	a5,a5,640
    4ee2:	00e78563          	beq	a5,a4,4eec <__swsetup_r+0xb2>
    4ee6:	85a2                	mv	a1,s0
    4ee8:	854a                	mv	a0,s2
    4eea:	2311                	jal	53ee <__smakebuf_r>
    4eec:	00c41783          	lh	a5,12(s0)
    4ef0:	0017f713          	andi	a4,a5,1
    4ef4:	c31d                	beqz	a4,4f1a <__swsetup_r+0xe0>
    4ef6:	4858                	lw	a4,20(s0)
    4ef8:	00042423          	sw	zero,8(s0)
    4efc:	40e00733          	neg	a4,a4
    4f00:	cc18                	sw	a4,24(s0)
    4f02:	4818                	lw	a4,16(s0)
    4f04:	4501                	li	a0,0
    4f06:	e701                	bnez	a4,4f0e <__swsetup_r+0xd4>
    4f08:	0807f713          	andi	a4,a5,128
    4f0c:	f73d                	bnez	a4,4e7a <__swsetup_r+0x40>
    4f0e:	40b2                	lw	ra,12(sp)
    4f10:	4422                	lw	s0,8(sp)
    4f12:	4492                	lw	s1,4(sp)
    4f14:	4902                	lw	s2,0(sp)
    4f16:	0141                	addi	sp,sp,16
    4f18:	8082                	ret
    4f1a:	0027f713          	andi	a4,a5,2
    4f1e:	4681                	li	a3,0
    4f20:	e311                	bnez	a4,4f24 <__swsetup_r+0xea>
    4f22:	4854                	lw	a3,20(s0)
    4f24:	c414                	sw	a3,8(s0)
    4f26:	bff1                	j	4f02 <__swsetup_r+0xc8>

00004f28 <__assert_func>:
    4f28:	1141                	addi	sp,sp,-16
    4f2a:	8101a783          	lw	a5,-2032(gp) # 20000080 <_impure_ptr>
    4f2e:	8832                	mv	a6,a2
    4f30:	c606                	sw	ra,12(sp)
    4f32:	88aa                	mv	a7,a0
    4f34:	872e                	mv	a4,a1
    4f36:	47c8                	lw	a0,12(a5)
    4f38:	8636                	mv	a2,a3
    4f3a:	00001797          	auipc	a5,0x1
    4f3e:	3ca78793          	addi	a5,a5,970 # 6304 <__clz_tab+0x18c>
    4f42:	00081763          	bnez	a6,4f50 <__assert_func+0x28>
    4f46:	00001797          	auipc	a5,0x1
    4f4a:	0fa78793          	addi	a5,a5,250 # 6040 <_exit+0x22>
    4f4e:	883e                	mv	a6,a5
    4f50:	86c6                	mv	a3,a7
    4f52:	00001597          	auipc	a1,0x1
    4f56:	3c258593          	addi	a1,a1,962 # 6314 <__clz_tab+0x19c>
    4f5a:	2665                	jal	5302 <fiprintf>
    4f5c:	353000ef          	jal	ra,5aae <abort>

00004f60 <__sflush_r>:
    4f60:	00c59783          	lh	a5,12(a1)
    4f64:	1101                	addi	sp,sp,-32
    4f66:	cc22                	sw	s0,24(sp)
    4f68:	ca26                	sw	s1,20(sp)
    4f6a:	ce06                	sw	ra,28(sp)
    4f6c:	c84a                	sw	s2,16(sp)
    4f6e:	c64e                	sw	s3,12(sp)
    4f70:	0087f713          	andi	a4,a5,8
    4f74:	84aa                	mv	s1,a0
    4f76:	842e                	mv	s0,a1
    4f78:	e379                	bnez	a4,503e <__sflush_r+0xde>
    4f7a:	41d8                	lw	a4,4(a1)
    4f7c:	00e04563          	bgtz	a4,4f86 <__sflush_r+0x26>
    4f80:	41b8                	lw	a4,64(a1)
    4f82:	08e05663          	blez	a4,500e <__sflush_r+0xae>
    4f86:	5458                	lw	a4,44(s0)
    4f88:	c359                	beqz	a4,500e <__sflush_r+0xae>
    4f8a:	83b1                	srli	a5,a5,0xc
    4f8c:	0004a903          	lw	s2,0(s1)
    4f90:	8b85                	andi	a5,a5,1
    4f92:	0004a023          	sw	zero,0(s1)
    4f96:	500c                	lw	a1,32(s0)
    4f98:	cba9                	beqz	a5,4fea <__sflush_r+0x8a>
    4f9a:	4870                	lw	a2,84(s0)
    4f9c:	245e                	lhu	a5,12(s0)
    4f9e:	8b91                	andi	a5,a5,4
    4fa0:	c799                	beqz	a5,4fae <__sflush_r+0x4e>
    4fa2:	405c                	lw	a5,4(s0)
    4fa4:	8e1d                	sub	a2,a2,a5
    4fa6:	585c                	lw	a5,52(s0)
    4fa8:	c399                	beqz	a5,4fae <__sflush_r+0x4e>
    4faa:	403c                	lw	a5,64(s0)
    4fac:	8e1d                	sub	a2,a2,a5
    4fae:	545c                	lw	a5,44(s0)
    4fb0:	500c                	lw	a1,32(s0)
    4fb2:	4681                	li	a3,0
    4fb4:	8526                	mv	a0,s1
    4fb6:	9782                	jalr	a5
    4fb8:	57fd                	li	a5,-1
    4fba:	04f50c63          	beq	a0,a5,5012 <__sflush_r+0xb2>
    4fbe:	481c                	lw	a5,16(s0)
    4fc0:	6705                	lui	a4,0x1
    4fc2:	00042223          	sw	zero,4(s0)
    4fc6:	c01c                	sw	a5,0(s0)
    4fc8:	245e                	lhu	a5,12(s0)
    4fca:	8ff9                	and	a5,a5,a4
    4fcc:	c391                	beqz	a5,4fd0 <__sflush_r+0x70>
    4fce:	c868                	sw	a0,84(s0)
    4fd0:	584c                	lw	a1,52(s0)
    4fd2:	0124a023          	sw	s2,0(s1)
    4fd6:	cd85                	beqz	a1,500e <__sflush_r+0xae>
    4fd8:	04440793          	addi	a5,s0,68
    4fdc:	00f58463          	beq	a1,a5,4fe4 <__sflush_r+0x84>
    4fe0:	8526                	mv	a0,s1
    4fe2:	215d                	jal	5488 <_free_r>
    4fe4:	02042a23          	sw	zero,52(s0)
    4fe8:	a01d                	j	500e <__sflush_r+0xae>
    4fea:	4601                	li	a2,0
    4fec:	4685                	li	a3,1
    4fee:	8526                	mv	a0,s1
    4ff0:	9702                	jalr	a4
    4ff2:	57fd                	li	a5,-1
    4ff4:	862a                	mv	a2,a0
    4ff6:	faf513e3          	bne	a0,a5,4f9c <__sflush_r+0x3c>
    4ffa:	409c                	lw	a5,0(s1)
    4ffc:	d3c5                	beqz	a5,4f9c <__sflush_r+0x3c>
    4ffe:	4775                	li	a4,29
    5000:	00e78563          	beq	a5,a4,500a <__sflush_r+0xaa>
    5004:	4759                	li	a4,22
    5006:	06e79563          	bne	a5,a4,5070 <__sflush_r+0x110>
    500a:	0124a023          	sw	s2,0(s1)
    500e:	4501                	li	a0,0
    5010:	a0b5                	j	507c <__sflush_r+0x11c>
    5012:	4098                	lw	a4,0(s1)
    5014:	00c41783          	lh	a5,12(s0)
    5018:	cf01                	beqz	a4,5030 <__sflush_r+0xd0>
    501a:	46f5                	li	a3,29
    501c:	00d70563          	beq	a4,a3,5026 <__sflush_r+0xc6>
    5020:	46d9                	li	a3,22
    5022:	04d71963          	bne	a4,a3,5074 <__sflush_r+0x114>
    5026:	481c                	lw	a5,16(s0)
    5028:	00042223          	sw	zero,4(s0)
    502c:	c01c                	sw	a5,0(s0)
    502e:	b74d                	j	4fd0 <__sflush_r+0x70>
    5030:	4818                	lw	a4,16(s0)
    5032:	83b1                	srli	a5,a5,0xc
    5034:	00042223          	sw	zero,4(s0)
    5038:	c018                	sw	a4,0(s0)
    503a:	8b85                	andi	a5,a5,1
    503c:	bf41                	j	4fcc <__sflush_r+0x6c>
    503e:	0105a983          	lw	s3,16(a1)
    5042:	fc0986e3          	beqz	s3,500e <__sflush_r+0xae>
    5046:	0005a903          	lw	s2,0(a1)
    504a:	8b8d                	andi	a5,a5,3
    504c:	0135a023          	sw	s3,0(a1)
    5050:	41390933          	sub	s2,s2,s3
    5054:	4701                	li	a4,0
    5056:	e391                	bnez	a5,505a <__sflush_r+0xfa>
    5058:	49d8                	lw	a4,20(a1)
    505a:	c418                	sw	a4,8(s0)
    505c:	fb2059e3          	blez	s2,500e <__sflush_r+0xae>
    5060:	541c                	lw	a5,40(s0)
    5062:	500c                	lw	a1,32(s0)
    5064:	86ca                	mv	a3,s2
    5066:	864e                	mv	a2,s3
    5068:	8526                	mv	a0,s1
    506a:	9782                	jalr	a5
    506c:	00a04f63          	bgtz	a0,508a <__sflush_r+0x12a>
    5070:	00c41783          	lh	a5,12(s0)
    5074:	0407e793          	ori	a5,a5,64
    5078:	a45e                	sh	a5,12(s0)
    507a:	557d                	li	a0,-1
    507c:	40f2                	lw	ra,28(sp)
    507e:	4462                	lw	s0,24(sp)
    5080:	44d2                	lw	s1,20(sp)
    5082:	4942                	lw	s2,16(sp)
    5084:	49b2                	lw	s3,12(sp)
    5086:	6105                	addi	sp,sp,32
    5088:	8082                	ret
    508a:	99aa                	add	s3,s3,a0
    508c:	40a90933          	sub	s2,s2,a0
    5090:	b7f1                	j	505c <__sflush_r+0xfc>

00005092 <_fflush_r>:
    5092:	499c                	lw	a5,16(a1)
    5094:	1141                	addi	sp,sp,-16
    5096:	c606                	sw	ra,12(sp)
    5098:	c422                	sw	s0,8(sp)
    509a:	c226                	sw	s1,4(sp)
    509c:	eb81                	bnez	a5,50ac <_fflush_r+0x1a>
    509e:	4481                	li	s1,0
    50a0:	40b2                	lw	ra,12(sp)
    50a2:	4422                	lw	s0,8(sp)
    50a4:	8526                	mv	a0,s1
    50a6:	4492                	lw	s1,4(sp)
    50a8:	0141                	addi	sp,sp,16
    50aa:	8082                	ret
    50ac:	84aa                	mv	s1,a0
    50ae:	842e                	mv	s0,a1
    50b0:	c501                	beqz	a0,50b8 <_fflush_r+0x26>
    50b2:	4d1c                	lw	a5,24(a0)
    50b4:	e391                	bnez	a5,50b8 <_fflush_r+0x26>
    50b6:	2a0d                	jal	51e8 <__sinit>
    50b8:	00001797          	auipc	a5,0x1
    50bc:	2cc78793          	addi	a5,a5,716 # 6384 <__sf_fake_stdin>
    50c0:	02f41d63          	bne	s0,a5,50fa <_fflush_r+0x68>
    50c4:	40c0                	lw	s0,4(s1)
    50c6:	00c41783          	lh	a5,12(s0)
    50ca:	dbf1                	beqz	a5,509e <_fflush_r+0xc>
    50cc:	5078                	lw	a4,100(s0)
    50ce:	8b05                	andi	a4,a4,1
    50d0:	e711                	bnez	a4,50dc <_fflush_r+0x4a>
    50d2:	2007f793          	andi	a5,a5,512
    50d6:	e399                	bnez	a5,50dc <_fflush_r+0x4a>
    50d8:	4c28                	lw	a0,88(s0)
    50da:	2c5d                	jal	5390 <__retarget_lock_acquire_recursive>
    50dc:	8526                	mv	a0,s1
    50de:	85a2                	mv	a1,s0
    50e0:	e81ff0ef          	jal	ra,4f60 <__sflush_r>
    50e4:	507c                	lw	a5,100(s0)
    50e6:	84aa                	mv	s1,a0
    50e8:	8b85                	andi	a5,a5,1
    50ea:	fbdd                	bnez	a5,50a0 <_fflush_r+0xe>
    50ec:	245e                	lhu	a5,12(s0)
    50ee:	2007f793          	andi	a5,a5,512
    50f2:	f7dd                	bnez	a5,50a0 <_fflush_r+0xe>
    50f4:	4c28                	lw	a0,88(s0)
    50f6:	2c71                	jal	5392 <__retarget_lock_release_recursive>
    50f8:	b765                	j	50a0 <_fflush_r+0xe>
    50fa:	00001797          	auipc	a5,0x1
    50fe:	26a78793          	addi	a5,a5,618 # 6364 <__sf_fake_stdout>
    5102:	00f41463          	bne	s0,a5,510a <_fflush_r+0x78>
    5106:	4480                	lw	s0,8(s1)
    5108:	bf7d                	j	50c6 <_fflush_r+0x34>
    510a:	00001797          	auipc	a5,0x1
    510e:	23a78793          	addi	a5,a5,570 # 6344 <__sf_fake_stderr>
    5112:	faf41ae3          	bne	s0,a5,50c6 <_fflush_r+0x34>
    5116:	44c0                	lw	s0,12(s1)
    5118:	b77d                	j	50c6 <_fflush_r+0x34>

0000511a <std>:
    511a:	1141                	addi	sp,sp,-16
    511c:	c422                	sw	s0,8(sp)
    511e:	c606                	sw	ra,12(sp)
    5120:	842a                	mv	s0,a0
    5122:	a54e                	sh	a1,12(a0)
    5124:	a572                	sh	a2,14(a0)
    5126:	00052023          	sw	zero,0(a0)
    512a:	00052223          	sw	zero,4(a0)
    512e:	00052423          	sw	zero,8(a0)
    5132:	06052223          	sw	zero,100(a0)
    5136:	00052823          	sw	zero,16(a0)
    513a:	00052a23          	sw	zero,20(a0)
    513e:	00052c23          	sw	zero,24(a0)
    5142:	4621                	li	a2,8
    5144:	4581                	li	a1,0
    5146:	05c50513          	addi	a0,a0,92
    514a:	856fb0ef          	jal	ra,1a0 <memset>
    514e:	00001797          	auipc	a5,0x1
    5152:	88a78793          	addi	a5,a5,-1910 # 59d8 <__sread>
    5156:	d05c                	sw	a5,36(s0)
    5158:	00001797          	auipc	a5,0x1
    515c:	8ac78793          	addi	a5,a5,-1876 # 5a04 <__swrite>
    5160:	d41c                	sw	a5,40(s0)
    5162:	00001797          	auipc	a5,0x1
    5166:	8ea78793          	addi	a5,a5,-1814 # 5a4c <__sseek>
    516a:	d45c                	sw	a5,44(s0)
    516c:	00001797          	auipc	a5,0x1
    5170:	91078793          	addi	a5,a5,-1776 # 5a7c <__sclose>
    5174:	40b2                	lw	ra,12(sp)
    5176:	d000                	sw	s0,32(s0)
    5178:	d81c                	sw	a5,48(s0)
    517a:	4422                	lw	s0,8(sp)
    517c:	0141                	addi	sp,sp,16
    517e:	8082                	ret

00005180 <_cleanup_r>:
    5180:	00000597          	auipc	a1,0x0
    5184:	f1258593          	addi	a1,a1,-238 # 5092 <_fflush_r>
    5188:	aa79                	j	5326 <_fwalk_reent>

0000518a <__sfmoreglue>:
    518a:	1141                	addi	sp,sp,-16
    518c:	c226                	sw	s1,4(sp)
    518e:	06800793          	li	a5,104
    5192:	fff58493          	addi	s1,a1,-1
    5196:	02f484b3          	mul	s1,s1,a5
    519a:	c04a                	sw	s2,0(sp)
    519c:	892e                	mv	s2,a1
    519e:	c422                	sw	s0,8(sp)
    51a0:	c606                	sw	ra,12(sp)
    51a2:	07448593          	addi	a1,s1,116
    51a6:	2ed1                	jal	557a <_malloc_r>
    51a8:	842a                	mv	s0,a0
    51aa:	cd01                	beqz	a0,51c2 <__sfmoreglue+0x38>
    51ac:	00052023          	sw	zero,0(a0)
    51b0:	01252223          	sw	s2,4(a0)
    51b4:	0531                	addi	a0,a0,12
    51b6:	c408                	sw	a0,8(s0)
    51b8:	06848613          	addi	a2,s1,104
    51bc:	4581                	li	a1,0
    51be:	fe3fa0ef          	jal	ra,1a0 <memset>
    51c2:	40b2                	lw	ra,12(sp)
    51c4:	8522                	mv	a0,s0
    51c6:	4422                	lw	s0,8(sp)
    51c8:	4492                	lw	s1,4(sp)
    51ca:	4902                	lw	s2,0(sp)
    51cc:	0141                	addi	sp,sp,16
    51ce:	8082                	ret

000051d0 <__sfp_lock_acquire>:
    51d0:	89418513          	addi	a0,gp,-1900 # 20000104 <__lock___sfp_recursive_mutex>
    51d4:	aa75                	j	5390 <__retarget_lock_acquire_recursive>

000051d6 <__sfp_lock_release>:
    51d6:	89418513          	addi	a0,gp,-1900 # 20000104 <__lock___sfp_recursive_mutex>
    51da:	aa65                	j	5392 <__retarget_lock_release_recursive>

000051dc <__sinit_lock_acquire>:
    51dc:	89818513          	addi	a0,gp,-1896 # 20000108 <__lock___sinit_recursive_mutex>
    51e0:	aa45                	j	5390 <__retarget_lock_acquire_recursive>

000051e2 <__sinit_lock_release>:
    51e2:	89818513          	addi	a0,gp,-1896 # 20000108 <__lock___sinit_recursive_mutex>
    51e6:	a275                	j	5392 <__retarget_lock_release_recursive>

000051e8 <__sinit>:
    51e8:	1141                	addi	sp,sp,-16
    51ea:	c422                	sw	s0,8(sp)
    51ec:	c606                	sw	ra,12(sp)
    51ee:	842a                	mv	s0,a0
    51f0:	37f5                	jal	51dc <__sinit_lock_acquire>
    51f2:	4c1c                	lw	a5,24(s0)
    51f4:	c789                	beqz	a5,51fe <__sinit+0x16>
    51f6:	4422                	lw	s0,8(sp)
    51f8:	40b2                	lw	ra,12(sp)
    51fa:	0141                	addi	sp,sp,16
    51fc:	b7dd                	j	51e2 <__sinit_lock_release>
    51fe:	00000797          	auipc	a5,0x0
    5202:	f8278793          	addi	a5,a5,-126 # 5180 <_cleanup_r>
    5206:	d41c                	sw	a5,40(s0)
    5208:	04042423          	sw	zero,72(s0)
    520c:	04042623          	sw	zero,76(s0)
    5210:	04042823          	sw	zero,80(s0)
    5214:	8741a783          	lw	a5,-1932(gp) # 200000e4 <_global_impure_ptr>
    5218:	00879463          	bne	a5,s0,5220 <__sinit+0x38>
    521c:	4785                	li	a5,1
    521e:	cc1c                	sw	a5,24(s0)
    5220:	8522                	mv	a0,s0
    5222:	2815                	jal	5256 <__sfp>
    5224:	c048                	sw	a0,4(s0)
    5226:	8522                	mv	a0,s0
    5228:	203d                	jal	5256 <__sfp>
    522a:	c408                	sw	a0,8(s0)
    522c:	8522                	mv	a0,s0
    522e:	2025                	jal	5256 <__sfp>
    5230:	c448                	sw	a0,12(s0)
    5232:	4048                	lw	a0,4(s0)
    5234:	4601                	li	a2,0
    5236:	4591                	li	a1,4
    5238:	ee3ff0ef          	jal	ra,511a <std>
    523c:	4408                	lw	a0,8(s0)
    523e:	4605                	li	a2,1
    5240:	45a5                	li	a1,9
    5242:	ed9ff0ef          	jal	ra,511a <std>
    5246:	4448                	lw	a0,12(s0)
    5248:	4609                	li	a2,2
    524a:	45c9                	li	a1,18
    524c:	ecfff0ef          	jal	ra,511a <std>
    5250:	4785                	li	a5,1
    5252:	cc1c                	sw	a5,24(s0)
    5254:	b74d                	j	51f6 <__sinit+0xe>

00005256 <__sfp>:
    5256:	1141                	addi	sp,sp,-16
    5258:	c226                	sw	s1,4(sp)
    525a:	c04a                	sw	s2,0(sp)
    525c:	c606                	sw	ra,12(sp)
    525e:	c422                	sw	s0,8(sp)
    5260:	892a                	mv	s2,a0
    5262:	37bd                	jal	51d0 <__sfp_lock_acquire>
    5264:	8741a483          	lw	s1,-1932(gp) # 200000e4 <_global_impure_ptr>
    5268:	4c9c                	lw	a5,24(s1)
    526a:	e399                	bnez	a5,5270 <__sfp+0x1a>
    526c:	8526                	mv	a0,s1
    526e:	3fad                	jal	51e8 <__sinit>
    5270:	04848493          	addi	s1,s1,72
    5274:	4480                	lw	s0,8(s1)
    5276:	40dc                	lw	a5,4(s1)
    5278:	17fd                	addi	a5,a5,-1
    527a:	0007d663          	bgez	a5,5286 <__sfp+0x30>
    527e:	409c                	lw	a5,0(s1)
    5280:	c7a5                	beqz	a5,52e8 <__sfp+0x92>
    5282:	4084                	lw	s1,0(s1)
    5284:	bfc5                	j	5274 <__sfp+0x1e>
    5286:	00c41703          	lh	a4,12(s0)
    528a:	ef21                	bnez	a4,52e2 <__sfp+0x8c>
    528c:	77c1                	lui	a5,0xffff0
    528e:	0785                	addi	a5,a5,1 # ffff0001 <_eusrstack+0xdffeb001>
    5290:	c45c                	sw	a5,12(s0)
    5292:	05840513          	addi	a0,s0,88
    5296:	06042223          	sw	zero,100(s0)
    529a:	28d5                	jal	538e <__retarget_lock_init_recursive>
    529c:	f3bff0ef          	jal	ra,51d6 <__sfp_lock_release>
    52a0:	4621                	li	a2,8
    52a2:	00042023          	sw	zero,0(s0)
    52a6:	00042423          	sw	zero,8(s0)
    52aa:	00042223          	sw	zero,4(s0)
    52ae:	00042823          	sw	zero,16(s0)
    52b2:	00042a23          	sw	zero,20(s0)
    52b6:	00042c23          	sw	zero,24(s0)
    52ba:	4581                	li	a1,0
    52bc:	05c40513          	addi	a0,s0,92
    52c0:	ee1fa0ef          	jal	ra,1a0 <memset>
    52c4:	02042a23          	sw	zero,52(s0)
    52c8:	02042c23          	sw	zero,56(s0)
    52cc:	04042423          	sw	zero,72(s0)
    52d0:	04042623          	sw	zero,76(s0)
    52d4:	40b2                	lw	ra,12(sp)
    52d6:	8522                	mv	a0,s0
    52d8:	4422                	lw	s0,8(sp)
    52da:	4492                	lw	s1,4(sp)
    52dc:	4902                	lw	s2,0(sp)
    52de:	0141                	addi	sp,sp,16
    52e0:	8082                	ret
    52e2:	06840413          	addi	s0,s0,104
    52e6:	bf49                	j	5278 <__sfp+0x22>
    52e8:	4591                	li	a1,4
    52ea:	854a                	mv	a0,s2
    52ec:	e9fff0ef          	jal	ra,518a <__sfmoreglue>
    52f0:	c088                	sw	a0,0(s1)
    52f2:	842a                	mv	s0,a0
    52f4:	f559                	bnez	a0,5282 <__sfp+0x2c>
    52f6:	ee1ff0ef          	jal	ra,51d6 <__sfp_lock_release>
    52fa:	47b1                	li	a5,12
    52fc:	00f92023          	sw	a5,0(s2)
    5300:	bfd1                	j	52d4 <__sfp+0x7e>

00005302 <fiprintf>:
    5302:	7139                	addi	sp,sp,-64
    5304:	d432                	sw	a2,40(sp)
    5306:	d636                	sw	a3,44(sp)
    5308:	862e                	mv	a2,a1
    530a:	1034                	addi	a3,sp,40
    530c:	85aa                	mv	a1,a0
    530e:	8101a503          	lw	a0,-2032(gp) # 20000080 <_impure_ptr>
    5312:	ce06                	sw	ra,28(sp)
    5314:	d83a                	sw	a4,48(sp)
    5316:	da3e                	sw	a5,52(sp)
    5318:	dc42                	sw	a6,56(sp)
    531a:	de46                	sw	a7,60(sp)
    531c:	c636                	sw	a3,12(sp)
    531e:	2ec9                	jal	56f0 <_vfiprintf_r>
    5320:	40f2                	lw	ra,28(sp)
    5322:	6121                	addi	sp,sp,64
    5324:	8082                	ret

00005326 <_fwalk_reent>:
    5326:	7179                	addi	sp,sp,-48
    5328:	d422                	sw	s0,40(sp)
    532a:	d04a                	sw	s2,32(sp)
    532c:	ce4e                	sw	s3,28(sp)
    532e:	cc52                	sw	s4,24(sp)
    5330:	c85a                	sw	s6,16(sp)
    5332:	c65e                	sw	s7,12(sp)
    5334:	d606                	sw	ra,44(sp)
    5336:	d226                	sw	s1,36(sp)
    5338:	ca56                	sw	s5,20(sp)
    533a:	892a                	mv	s2,a0
    533c:	8a2e                	mv	s4,a1
    533e:	04850413          	addi	s0,a0,72
    5342:	4981                	li	s3,0
    5344:	4b05                	li	s6,1
    5346:	5bfd                	li	s7,-1
    5348:	4404                	lw	s1,8(s0)
    534a:	00442a83          	lw	s5,4(s0)
    534e:	1afd                	addi	s5,s5,-1
    5350:	020ad063          	bgez	s5,5370 <_fwalk_reent+0x4a>
    5354:	4000                	lw	s0,0(s0)
    5356:	f86d                	bnez	s0,5348 <_fwalk_reent+0x22>
    5358:	50b2                	lw	ra,44(sp)
    535a:	5422                	lw	s0,40(sp)
    535c:	5492                	lw	s1,36(sp)
    535e:	5902                	lw	s2,32(sp)
    5360:	4a62                	lw	s4,24(sp)
    5362:	4ad2                	lw	s5,20(sp)
    5364:	4b42                	lw	s6,16(sp)
    5366:	4bb2                	lw	s7,12(sp)
    5368:	854e                	mv	a0,s3
    536a:	49f2                	lw	s3,28(sp)
    536c:	6145                	addi	sp,sp,48
    536e:	8082                	ret
    5370:	24de                	lhu	a5,12(s1)
    5372:	00fb7b63          	bgeu	s6,a5,5388 <_fwalk_reent+0x62>
    5376:	00e49783          	lh	a5,14(s1)
    537a:	01778763          	beq	a5,s7,5388 <_fwalk_reent+0x62>
    537e:	85a6                	mv	a1,s1
    5380:	854a                	mv	a0,s2
    5382:	9a02                	jalr	s4
    5384:	00a9e9b3          	or	s3,s3,a0
    5388:	06848493          	addi	s1,s1,104
    538c:	b7c9                	j	534e <_fwalk_reent+0x28>

0000538e <__retarget_lock_init_recursive>:
    538e:	8082                	ret

00005390 <__retarget_lock_acquire_recursive>:
    5390:	8082                	ret

00005392 <__retarget_lock_release_recursive>:
    5392:	8082                	ret

00005394 <__swhatbuf_r>:
    5394:	7159                	addi	sp,sp,-112
    5396:	d4a2                	sw	s0,104(sp)
    5398:	842e                	mv	s0,a1
    539a:	00e59583          	lh	a1,14(a1)
    539e:	d2a6                	sw	s1,100(sp)
    53a0:	d0ca                	sw	s2,96(sp)
    53a2:	d686                	sw	ra,108(sp)
    53a4:	84b2                	mv	s1,a2
    53a6:	8936                	mv	s2,a3
    53a8:	0205d263          	bgez	a1,53cc <__swhatbuf_r+0x38>
    53ac:	245e                	lhu	a5,12(s0)
    53ae:	0807f793          	andi	a5,a5,128
    53b2:	eb95                	bnez	a5,53e6 <__swhatbuf_r+0x52>
    53b4:	40000713          	li	a4,1024
    53b8:	50b6                	lw	ra,108(sp)
    53ba:	5426                	lw	s0,104(sp)
    53bc:	00f92023          	sw	a5,0(s2)
    53c0:	c098                	sw	a4,0(s1)
    53c2:	5906                	lw	s2,96(sp)
    53c4:	5496                	lw	s1,100(sp)
    53c6:	4501                	li	a0,0
    53c8:	6165                	addi	sp,sp,112
    53ca:	8082                	ret
    53cc:	0030                	addi	a2,sp,8
    53ce:	712000ef          	jal	ra,5ae0 <_fstat_r>
    53d2:	fc054de3          	bltz	a0,53ac <__swhatbuf_r+0x18>
    53d6:	4732                	lw	a4,12(sp)
    53d8:	67bd                	lui	a5,0xf
    53da:	8ff9                	and	a5,a5,a4
    53dc:	7779                	lui	a4,0xffffe
    53de:	97ba                	add	a5,a5,a4
    53e0:	0017b793          	seqz	a5,a5
    53e4:	bfc1                	j	53b4 <__swhatbuf_r+0x20>
    53e6:	4781                	li	a5,0
    53e8:	04000713          	li	a4,64
    53ec:	b7f1                	j	53b8 <__swhatbuf_r+0x24>

000053ee <__smakebuf_r>:
    53ee:	25de                	lhu	a5,12(a1)
    53f0:	7179                	addi	sp,sp,-48
    53f2:	d422                	sw	s0,40(sp)
    53f4:	d606                	sw	ra,44(sp)
    53f6:	d226                	sw	s1,36(sp)
    53f8:	d04a                	sw	s2,32(sp)
    53fa:	ce4e                	sw	s3,28(sp)
    53fc:	8b89                	andi	a5,a5,2
    53fe:	842e                	mv	s0,a1
    5400:	cf91                	beqz	a5,541c <__smakebuf_r+0x2e>
    5402:	04740793          	addi	a5,s0,71
    5406:	c01c                	sw	a5,0(s0)
    5408:	c81c                	sw	a5,16(s0)
    540a:	4785                	li	a5,1
    540c:	c85c                	sw	a5,20(s0)
    540e:	50b2                	lw	ra,44(sp)
    5410:	5422                	lw	s0,40(sp)
    5412:	5492                	lw	s1,36(sp)
    5414:	5902                	lw	s2,32(sp)
    5416:	49f2                	lw	s3,28(sp)
    5418:	6145                	addi	sp,sp,48
    541a:	8082                	ret
    541c:	0074                	addi	a3,sp,12
    541e:	0030                	addi	a2,sp,8
    5420:	84aa                	mv	s1,a0
    5422:	3f8d                	jal	5394 <__swhatbuf_r>
    5424:	49a2                	lw	s3,8(sp)
    5426:	892a                	mv	s2,a0
    5428:	8526                	mv	a0,s1
    542a:	85ce                	mv	a1,s3
    542c:	22b9                	jal	557a <_malloc_r>
    542e:	e919                	bnez	a0,5444 <__smakebuf_r+0x56>
    5430:	00c41783          	lh	a5,12(s0)
    5434:	2007f713          	andi	a4,a5,512
    5438:	fb79                	bnez	a4,540e <__smakebuf_r+0x20>
    543a:	9bf1                	andi	a5,a5,-4
    543c:	0027e793          	ori	a5,a5,2
    5440:	a45e                	sh	a5,12(s0)
    5442:	b7c1                	j	5402 <__smakebuf_r+0x14>
    5444:	00000797          	auipc	a5,0x0
    5448:	d3c78793          	addi	a5,a5,-708 # 5180 <_cleanup_r>
    544c:	d49c                	sw	a5,40(s1)
    544e:	245e                	lhu	a5,12(s0)
    5450:	c008                	sw	a0,0(s0)
    5452:	c808                	sw	a0,16(s0)
    5454:	0807e793          	ori	a5,a5,128
    5458:	a45e                	sh	a5,12(s0)
    545a:	47b2                	lw	a5,12(sp)
    545c:	01342a23          	sw	s3,20(s0)
    5460:	cb99                	beqz	a5,5476 <__smakebuf_r+0x88>
    5462:	00e41583          	lh	a1,14(s0)
    5466:	8526                	mv	a0,s1
    5468:	2545                	jal	5b08 <_isatty_r>
    546a:	c511                	beqz	a0,5476 <__smakebuf_r+0x88>
    546c:	245e                	lhu	a5,12(s0)
    546e:	9bf1                	andi	a5,a5,-4
    5470:	0017e793          	ori	a5,a5,1
    5474:	a45e                	sh	a5,12(s0)
    5476:	245e                	lhu	a5,12(s0)
    5478:	0127e533          	or	a0,a5,s2
    547c:	a44a                	sh	a0,12(s0)
    547e:	bf41                	j	540e <__smakebuf_r+0x20>

00005480 <malloc>:
    5480:	85aa                	mv	a1,a0
    5482:	8101a503          	lw	a0,-2032(gp) # 20000080 <_impure_ptr>
    5486:	a8d5                	j	557a <_malloc_r>

00005488 <_free_r>:
    5488:	cdd1                	beqz	a1,5524 <_free_r+0x9c>
    548a:	ffc5a783          	lw	a5,-4(a1)
    548e:	1101                	addi	sp,sp,-32
    5490:	cc22                	sw	s0,24(sp)
    5492:	ce06                	sw	ra,28(sp)
    5494:	ffc58413          	addi	s0,a1,-4
    5498:	0007d363          	bgez	a5,549e <_free_r+0x16>
    549c:	943e                	add	s0,s0,a5
    549e:	c62a                	sw	a0,12(sp)
    54a0:	2dc1                	jal	5b70 <__malloc_lock>
    54a2:	8a018713          	addi	a4,gp,-1888 # 20000110 <__malloc_free_list>
    54a6:	431c                	lw	a5,0(a4)
    54a8:	4532                	lw	a0,12(sp)
    54aa:	eb81                	bnez	a5,54ba <_free_r+0x32>
    54ac:	00042223          	sw	zero,4(s0)
    54b0:	c300                	sw	s0,0(a4)
    54b2:	4462                	lw	s0,24(sp)
    54b4:	40f2                	lw	ra,28(sp)
    54b6:	6105                	addi	sp,sp,32
    54b8:	a5c1                	j	5b78 <__malloc_unlock>
    54ba:	00f47d63          	bgeu	s0,a5,54d4 <_free_r+0x4c>
    54be:	4010                	lw	a2,0(s0)
    54c0:	00c406b3          	add	a3,s0,a2
    54c4:	00d79663          	bne	a5,a3,54d0 <_free_r+0x48>
    54c8:	4394                	lw	a3,0(a5)
    54ca:	43dc                	lw	a5,4(a5)
    54cc:	96b2                	add	a3,a3,a2
    54ce:	c014                	sw	a3,0(s0)
    54d0:	c05c                	sw	a5,4(s0)
    54d2:	bff9                	j	54b0 <_free_r+0x28>
    54d4:	873e                	mv	a4,a5
    54d6:	43dc                	lw	a5,4(a5)
    54d8:	c399                	beqz	a5,54de <_free_r+0x56>
    54da:	fef47de3          	bgeu	s0,a5,54d4 <_free_r+0x4c>
    54de:	4314                	lw	a3,0(a4)
    54e0:	00d70633          	add	a2,a4,a3
    54e4:	00861f63          	bne	a2,s0,5502 <_free_r+0x7a>
    54e8:	4010                	lw	a2,0(s0)
    54ea:	96b2                	add	a3,a3,a2
    54ec:	c314                	sw	a3,0(a4)
    54ee:	00d70633          	add	a2,a4,a3
    54f2:	fcc790e3          	bne	a5,a2,54b2 <_free_r+0x2a>
    54f6:	4390                	lw	a2,0(a5)
    54f8:	43dc                	lw	a5,4(a5)
    54fa:	96b2                	add	a3,a3,a2
    54fc:	c314                	sw	a3,0(a4)
    54fe:	c35c                	sw	a5,4(a4)
    5500:	bf4d                	j	54b2 <_free_r+0x2a>
    5502:	00c47563          	bgeu	s0,a2,550c <_free_r+0x84>
    5506:	47b1                	li	a5,12
    5508:	c11c                	sw	a5,0(a0)
    550a:	b765                	j	54b2 <_free_r+0x2a>
    550c:	4010                	lw	a2,0(s0)
    550e:	00c406b3          	add	a3,s0,a2
    5512:	00d79663          	bne	a5,a3,551e <_free_r+0x96>
    5516:	4394                	lw	a3,0(a5)
    5518:	43dc                	lw	a5,4(a5)
    551a:	96b2                	add	a3,a3,a2
    551c:	c014                	sw	a3,0(s0)
    551e:	c05c                	sw	a5,4(s0)
    5520:	c340                	sw	s0,4(a4)
    5522:	bf41                	j	54b2 <_free_r+0x2a>
    5524:	8082                	ret

00005526 <sbrk_aligned>:
    5526:	1141                	addi	sp,sp,-16
    5528:	c04a                	sw	s2,0(sp)
    552a:	89c18913          	addi	s2,gp,-1892 # 2000010c <__malloc_sbrk_start>
    552e:	00092783          	lw	a5,0(s2)
    5532:	c422                	sw	s0,8(sp)
    5534:	c226                	sw	s1,4(sp)
    5536:	c606                	sw	ra,12(sp)
    5538:	84aa                	mv	s1,a0
    553a:	842e                	mv	s0,a1
    553c:	e789                	bnez	a5,5546 <sbrk_aligned+0x20>
    553e:	4581                	li	a1,0
    5540:	2985                	jal	59b0 <_sbrk_r>
    5542:	00a92023          	sw	a0,0(s2)
    5546:	85a2                	mv	a1,s0
    5548:	8526                	mv	a0,s1
    554a:	219d                	jal	59b0 <_sbrk_r>
    554c:	597d                	li	s2,-1
    554e:	01251a63          	bne	a0,s2,5562 <sbrk_aligned+0x3c>
    5552:	547d                	li	s0,-1
    5554:	40b2                	lw	ra,12(sp)
    5556:	8522                	mv	a0,s0
    5558:	4422                	lw	s0,8(sp)
    555a:	4492                	lw	s1,4(sp)
    555c:	4902                	lw	s2,0(sp)
    555e:	0141                	addi	sp,sp,16
    5560:	8082                	ret
    5562:	00350413          	addi	s0,a0,3
    5566:	9871                	andi	s0,s0,-4
    5568:	fe8506e3          	beq	a0,s0,5554 <sbrk_aligned+0x2e>
    556c:	40a405b3          	sub	a1,s0,a0
    5570:	8526                	mv	a0,s1
    5572:	293d                	jal	59b0 <_sbrk_r>
    5574:	ff2510e3          	bne	a0,s2,5554 <sbrk_aligned+0x2e>
    5578:	bfe9                	j	5552 <sbrk_aligned+0x2c>

0000557a <_malloc_r>:
    557a:	1101                	addi	sp,sp,-32
    557c:	ca26                	sw	s1,20(sp)
    557e:	00358493          	addi	s1,a1,3
    5582:	98f1                	andi	s1,s1,-4
    5584:	c84a                	sw	s2,16(sp)
    5586:	ce06                	sw	ra,28(sp)
    5588:	cc22                	sw	s0,24(sp)
    558a:	c64e                	sw	s3,12(sp)
    558c:	04a1                	addi	s1,s1,8
    558e:	47b1                	li	a5,12
    5590:	892a                	mv	s2,a0
    5592:	06f4f563          	bgeu	s1,a5,55fc <_malloc_r+0x82>
    5596:	44b1                	li	s1,12
    5598:	06b4e463          	bltu	s1,a1,5600 <_malloc_r+0x86>
    559c:	854a                	mv	a0,s2
    559e:	2bc9                	jal	5b70 <__malloc_lock>
    55a0:	8a018993          	addi	s3,gp,-1888 # 20000110 <__malloc_free_list>
    55a4:	0009a783          	lw	a5,0(s3)
    55a8:	843e                	mv	s0,a5
    55aa:	e435                	bnez	s0,5616 <_malloc_r+0x9c>
    55ac:	85a6                	mv	a1,s1
    55ae:	854a                	mv	a0,s2
    55b0:	f77ff0ef          	jal	ra,5526 <sbrk_aligned>
    55b4:	57fd                	li	a5,-1
    55b6:	842a                	mv	s0,a0
    55b8:	0cf51563          	bne	a0,a5,5682 <_malloc_r+0x108>
    55bc:	0009a403          	lw	s0,0(s3)
    55c0:	87a2                	mv	a5,s0
    55c2:	e7dd                	bnez	a5,5670 <_malloc_r+0xf6>
    55c4:	00042983          	lw	s3,0(s0)
    55c8:	4581                	li	a1,0
    55ca:	854a                	mv	a0,s2
    55cc:	99a2                	add	s3,s3,s0
    55ce:	26cd                	jal	59b0 <_sbrk_r>
    55d0:	0aa99363          	bne	s3,a0,5676 <_malloc_r+0xfc>
    55d4:	401c                	lw	a5,0(s0)
    55d6:	048d                	addi	s1,s1,3
    55d8:	8c9d                	sub	s1,s1,a5
    55da:	98f1                	andi	s1,s1,-4
    55dc:	04a1                	addi	s1,s1,8
    55de:	47b1                	li	a5,12
    55e0:	00f4f363          	bgeu	s1,a5,55e6 <_malloc_r+0x6c>
    55e4:	44b1                	li	s1,12
    55e6:	85a6                	mv	a1,s1
    55e8:	854a                	mv	a0,s2
    55ea:	f3dff0ef          	jal	ra,5526 <sbrk_aligned>
    55ee:	57fd                	li	a5,-1
    55f0:	08f50363          	beq	a0,a5,5676 <_malloc_r+0xfc>
    55f4:	401c                	lw	a5,0(s0)
    55f6:	97a6                	add	a5,a5,s1
    55f8:	c01c                	sw	a5,0(s0)
    55fa:	a83d                	j	5638 <_malloc_r+0xbe>
    55fc:	f804dee3          	bgez	s1,5598 <_malloc_r+0x1e>
    5600:	47b1                	li	a5,12
    5602:	00f92023          	sw	a5,0(s2)
    5606:	4501                	li	a0,0
    5608:	40f2                	lw	ra,28(sp)
    560a:	4462                	lw	s0,24(sp)
    560c:	44d2                	lw	s1,20(sp)
    560e:	4942                	lw	s2,16(sp)
    5610:	49b2                	lw	s3,12(sp)
    5612:	6105                	addi	sp,sp,32
    5614:	8082                	ret
    5616:	4014                	lw	a3,0(s0)
    5618:	8e85                	sub	a3,a3,s1
    561a:	0406c863          	bltz	a3,566a <_malloc_r+0xf0>
    561e:	472d                	li	a4,11
    5620:	02d77d63          	bgeu	a4,a3,565a <_malloc_r+0xe0>
    5624:	c004                	sw	s1,0(s0)
    5626:	00940733          	add	a4,s0,s1
    562a:	02879663          	bne	a5,s0,5656 <_malloc_r+0xdc>
    562e:	00e9a023          	sw	a4,0(s3)
    5632:	405c                	lw	a5,4(s0)
    5634:	c314                	sw	a3,0(a4)
    5636:	c35c                	sw	a5,4(a4)
    5638:	854a                	mv	a0,s2
    563a:	2b3d                	jal	5b78 <__malloc_unlock>
    563c:	00b40513          	addi	a0,s0,11
    5640:	00440793          	addi	a5,s0,4
    5644:	9961                	andi	a0,a0,-8
    5646:	40f50733          	sub	a4,a0,a5
    564a:	faf50fe3          	beq	a0,a5,5608 <_malloc_r+0x8e>
    564e:	943a                	add	s0,s0,a4
    5650:	8f89                	sub	a5,a5,a0
    5652:	c01c                	sw	a5,0(s0)
    5654:	bf55                	j	5608 <_malloc_r+0x8e>
    5656:	c3d8                	sw	a4,4(a5)
    5658:	bfe9                	j	5632 <_malloc_r+0xb8>
    565a:	4058                	lw	a4,4(s0)
    565c:	00879563          	bne	a5,s0,5666 <_malloc_r+0xec>
    5660:	00e9a023          	sw	a4,0(s3)
    5664:	bfd1                	j	5638 <_malloc_r+0xbe>
    5666:	c3d8                	sw	a4,4(a5)
    5668:	bfc1                	j	5638 <_malloc_r+0xbe>
    566a:	87a2                	mv	a5,s0
    566c:	4040                	lw	s0,4(s0)
    566e:	bf35                	j	55aa <_malloc_r+0x30>
    5670:	843e                	mv	s0,a5
    5672:	43dc                	lw	a5,4(a5)
    5674:	b7b9                	j	55c2 <_malloc_r+0x48>
    5676:	47b1                	li	a5,12
    5678:	00f92023          	sw	a5,0(s2)
    567c:	854a                	mv	a0,s2
    567e:	29ed                	jal	5b78 <__malloc_unlock>
    5680:	b759                	j	5606 <_malloc_r+0x8c>
    5682:	c104                	sw	s1,0(a0)
    5684:	bf55                	j	5638 <_malloc_r+0xbe>

00005686 <__sfputc_r>:
    5686:	461c                	lw	a5,8(a2)
    5688:	17fd                	addi	a5,a5,-1
    568a:	c61c                	sw	a5,8(a2)
    568c:	0007da63          	bgez	a5,56a0 <__sfputc_r+0x1a>
    5690:	4e18                	lw	a4,24(a2)
    5692:	00e7c563          	blt	a5,a4,569c <__sfputc_r+0x16>
    5696:	47a9                	li	a5,10
    5698:	00f59463          	bne	a1,a5,56a0 <__sfputc_r+0x1a>
    569c:	ee2ff06f          	j	4d7e <__swbuf_r>
    56a0:	421c                	lw	a5,0(a2)
    56a2:	852e                	mv	a0,a1
    56a4:	00178713          	addi	a4,a5,1
    56a8:	c218                	sw	a4,0(a2)
    56aa:	a38c                	sb	a1,0(a5)
    56ac:	8082                	ret

000056ae <__sfputs_r>:
    56ae:	1101                	addi	sp,sp,-32
    56b0:	cc22                	sw	s0,24(sp)
    56b2:	ca26                	sw	s1,20(sp)
    56b4:	c84a                	sw	s2,16(sp)
    56b6:	c64e                	sw	s3,12(sp)
    56b8:	c452                	sw	s4,8(sp)
    56ba:	ce06                	sw	ra,28(sp)
    56bc:	892a                	mv	s2,a0
    56be:	89ae                	mv	s3,a1
    56c0:	8432                	mv	s0,a2
    56c2:	00d604b3          	add	s1,a2,a3
    56c6:	5a7d                	li	s4,-1
    56c8:	00941463          	bne	s0,s1,56d0 <__sfputs_r+0x22>
    56cc:	4501                	li	a0,0
    56ce:	a809                	j	56e0 <__sfputs_r+0x32>
    56d0:	200c                	lbu	a1,0(s0)
    56d2:	864e                	mv	a2,s3
    56d4:	854a                	mv	a0,s2
    56d6:	fb1ff0ef          	jal	ra,5686 <__sfputc_r>
    56da:	0405                	addi	s0,s0,1
    56dc:	ff4516e3          	bne	a0,s4,56c8 <__sfputs_r+0x1a>
    56e0:	40f2                	lw	ra,28(sp)
    56e2:	4462                	lw	s0,24(sp)
    56e4:	44d2                	lw	s1,20(sp)
    56e6:	4942                	lw	s2,16(sp)
    56e8:	49b2                	lw	s3,12(sp)
    56ea:	4a22                	lw	s4,8(sp)
    56ec:	6105                	addi	sp,sp,32
    56ee:	8082                	ret

000056f0 <_vfiprintf_r>:
    56f0:	7135                	addi	sp,sp,-160
    56f2:	cd22                	sw	s0,152(sp)
    56f4:	cb26                	sw	s1,148(sp)
    56f6:	c94a                	sw	s2,144(sp)
    56f8:	c74e                	sw	s3,140(sp)
    56fa:	cf06                	sw	ra,156(sp)
    56fc:	c552                	sw	s4,136(sp)
    56fe:	c356                	sw	s5,132(sp)
    5700:	c15a                	sw	s6,128(sp)
    5702:	dede                	sw	s7,124(sp)
    5704:	dce2                	sw	s8,120(sp)
    5706:	dae6                	sw	s9,116(sp)
    5708:	89aa                	mv	s3,a0
    570a:	842e                	mv	s0,a1
    570c:	8932                	mv	s2,a2
    570e:	84b6                	mv	s1,a3
    5710:	c509                	beqz	a0,571a <_vfiprintf_r+0x2a>
    5712:	4d1c                	lw	a5,24(a0)
    5714:	e399                	bnez	a5,571a <_vfiprintf_r+0x2a>
    5716:	ad3ff0ef          	jal	ra,51e8 <__sinit>
    571a:	00001797          	auipc	a5,0x1
    571e:	c6a78793          	addi	a5,a5,-918 # 6384 <__sf_fake_stdin>
    5722:	04f41963          	bne	s0,a5,5774 <_vfiprintf_r+0x84>
    5726:	0049a403          	lw	s0,4(s3)
    572a:	507c                	lw	a5,100(s0)
    572c:	8b85                	andi	a5,a5,1
    572e:	eb81                	bnez	a5,573e <_vfiprintf_r+0x4e>
    5730:	245e                	lhu	a5,12(s0)
    5732:	2007f793          	andi	a5,a5,512
    5736:	e781                	bnez	a5,573e <_vfiprintf_r+0x4e>
    5738:	4c28                	lw	a0,88(s0)
    573a:	c57ff0ef          	jal	ra,5390 <__retarget_lock_acquire_recursive>
    573e:	245e                	lhu	a5,12(s0)
    5740:	8ba1                	andi	a5,a5,8
    5742:	c399                	beqz	a5,5748 <_vfiprintf_r+0x58>
    5744:	481c                	lw	a5,16(s0)
    5746:	e3ad                	bnez	a5,57a8 <_vfiprintf_r+0xb8>
    5748:	85a2                	mv	a1,s0
    574a:	854e                	mv	a0,s3
    574c:	eeeff0ef          	jal	ra,4e3a <__swsetup_r>
    5750:	cd21                	beqz	a0,57a8 <_vfiprintf_r+0xb8>
    5752:	507c                	lw	a5,100(s0)
    5754:	8b85                	andi	a5,a5,1
    5756:	c3a9                	beqz	a5,5798 <_vfiprintf_r+0xa8>
    5758:	557d                	li	a0,-1
    575a:	40fa                	lw	ra,156(sp)
    575c:	446a                	lw	s0,152(sp)
    575e:	44da                	lw	s1,148(sp)
    5760:	494a                	lw	s2,144(sp)
    5762:	49ba                	lw	s3,140(sp)
    5764:	4a2a                	lw	s4,136(sp)
    5766:	4a9a                	lw	s5,132(sp)
    5768:	4b0a                	lw	s6,128(sp)
    576a:	5bf6                	lw	s7,124(sp)
    576c:	5c66                	lw	s8,120(sp)
    576e:	5cd6                	lw	s9,116(sp)
    5770:	610d                	addi	sp,sp,160
    5772:	8082                	ret
    5774:	00001797          	auipc	a5,0x1
    5778:	bf078793          	addi	a5,a5,-1040 # 6364 <__sf_fake_stdout>
    577c:	00f41563          	bne	s0,a5,5786 <_vfiprintf_r+0x96>
    5780:	0089a403          	lw	s0,8(s3)
    5784:	b75d                	j	572a <_vfiprintf_r+0x3a>
    5786:	00001797          	auipc	a5,0x1
    578a:	bbe78793          	addi	a5,a5,-1090 # 6344 <__sf_fake_stderr>
    578e:	f8f41ee3          	bne	s0,a5,572a <_vfiprintf_r+0x3a>
    5792:	00c9a403          	lw	s0,12(s3)
    5796:	bf51                	j	572a <_vfiprintf_r+0x3a>
    5798:	245e                	lhu	a5,12(s0)
    579a:	2007f793          	andi	a5,a5,512
    579e:	ffcd                	bnez	a5,5758 <_vfiprintf_r+0x68>
    57a0:	4c28                	lw	a0,88(s0)
    57a2:	bf1ff0ef          	jal	ra,5392 <__retarget_lock_release_recursive>
    57a6:	bf4d                	j	5758 <_vfiprintf_r+0x68>
    57a8:	02000793          	li	a5,32
    57ac:	02f104a3          	sb	a5,41(sp)
    57b0:	03000793          	li	a5,48
    57b4:	d202                	sw	zero,36(sp)
    57b6:	02f10523          	sb	a5,42(sp)
    57ba:	c626                	sw	s1,12(sp)
    57bc:	02500b93          	li	s7,37
    57c0:	00001a97          	auipc	s5,0x1
    57c4:	be4a8a93          	addi	s5,s5,-1052 # 63a4 <__sf_fake_stdin+0x20>
    57c8:	4c05                	li	s8,1
    57ca:	4b29                	li	s6,10
    57cc:	84ca                	mv	s1,s2
    57ce:	209c                	lbu	a5,0(s1)
    57d0:	c399                	beqz	a5,57d6 <_vfiprintf_r+0xe6>
    57d2:	09779a63          	bne	a5,s7,5866 <_vfiprintf_r+0x176>
    57d6:	41248cb3          	sub	s9,s1,s2
    57da:	01248e63          	beq	s1,s2,57f6 <_vfiprintf_r+0x106>
    57de:	86e6                	mv	a3,s9
    57e0:	864a                	mv	a2,s2
    57e2:	85a2                	mv	a1,s0
    57e4:	854e                	mv	a0,s3
    57e6:	ec9ff0ef          	jal	ra,56ae <__sfputs_r>
    57ea:	57fd                	li	a5,-1
    57ec:	18f50763          	beq	a0,a5,597a <_vfiprintf_r+0x28a>
    57f0:	5792                	lw	a5,36(sp)
    57f2:	97e6                	add	a5,a5,s9
    57f4:	d23e                	sw	a5,36(sp)
    57f6:	209c                	lbu	a5,0(s1)
    57f8:	18078163          	beqz	a5,597a <_vfiprintf_r+0x28a>
    57fc:	57fd                	li	a5,-1
    57fe:	00148913          	addi	s2,s1,1
    5802:	c802                	sw	zero,16(sp)
    5804:	ce02                	sw	zero,28(sp)
    5806:	ca3e                	sw	a5,20(sp)
    5808:	cc02                	sw	zero,24(sp)
    580a:	040109a3          	sb	zero,83(sp)
    580e:	d482                	sw	zero,104(sp)
    5810:	00094583          	lbu	a1,0(s2)
    5814:	4615                	li	a2,5
    5816:	8556                	mv	a0,s5
    5818:	2681                	jal	5b58 <memchr>
    581a:	47c2                	lw	a5,16(sp)
    581c:	00190493          	addi	s1,s2,1
    5820:	e529                	bnez	a0,586a <_vfiprintf_r+0x17a>
    5822:	0107f713          	andi	a4,a5,16
    5826:	c709                	beqz	a4,5830 <_vfiprintf_r+0x140>
    5828:	02000713          	li	a4,32
    582c:	04e109a3          	sb	a4,83(sp)
    5830:	0087f713          	andi	a4,a5,8
    5834:	c709                	beqz	a4,583e <_vfiprintf_r+0x14e>
    5836:	02b00713          	li	a4,43
    583a:	04e109a3          	sb	a4,83(sp)
    583e:	00094683          	lbu	a3,0(s2)
    5842:	02a00713          	li	a4,42
    5846:	02e68a63          	beq	a3,a4,587a <_vfiprintf_r+0x18a>
    584a:	47f2                	lw	a5,28(sp)
    584c:	84ca                	mv	s1,s2
    584e:	4681                	li	a3,0
    5850:	4625                	li	a2,9
    5852:	2098                	lbu	a4,0(s1)
    5854:	00148593          	addi	a1,s1,1
    5858:	fd070713          	addi	a4,a4,-48 # ffffdfd0 <_eusrstack+0xdfff8fd0>
    585c:	06e67363          	bgeu	a2,a4,58c2 <_vfiprintf_r+0x1d2>
    5860:	c68d                	beqz	a3,588a <_vfiprintf_r+0x19a>
    5862:	ce3e                	sw	a5,28(sp)
    5864:	a01d                	j	588a <_vfiprintf_r+0x19a>
    5866:	0485                	addi	s1,s1,1
    5868:	b79d                	j	57ce <_vfiprintf_r+0xde>
    586a:	41550533          	sub	a0,a0,s5
    586e:	00ac1533          	sll	a0,s8,a0
    5872:	8fc9                	or	a5,a5,a0
    5874:	c83e                	sw	a5,16(sp)
    5876:	8926                	mv	s2,s1
    5878:	bf61                	j	5810 <_vfiprintf_r+0x120>
    587a:	4732                	lw	a4,12(sp)
    587c:	00470693          	addi	a3,a4,4
    5880:	4318                	lw	a4,0(a4)
    5882:	c636                	sw	a3,12(sp)
    5884:	02074863          	bltz	a4,58b4 <_vfiprintf_r+0x1c4>
    5888:	ce3a                	sw	a4,28(sp)
    588a:	2098                	lbu	a4,0(s1)
    588c:	02e00793          	li	a5,46
    5890:	04f71c63          	bne	a4,a5,58e8 <_vfiprintf_r+0x1f8>
    5894:	3098                	lbu	a4,1(s1)
    5896:	02a00793          	li	a5,42
    589a:	02f71a63          	bne	a4,a5,58ce <_vfiprintf_r+0x1de>
    589e:	47b2                	lw	a5,12(sp)
    58a0:	0489                	addi	s1,s1,2
    58a2:	00478713          	addi	a4,a5,4
    58a6:	439c                	lw	a5,0(a5)
    58a8:	c63a                	sw	a4,12(sp)
    58aa:	0007d363          	bgez	a5,58b0 <_vfiprintf_r+0x1c0>
    58ae:	57fd                	li	a5,-1
    58b0:	ca3e                	sw	a5,20(sp)
    58b2:	a81d                	j	58e8 <_vfiprintf_r+0x1f8>
    58b4:	40e00733          	neg	a4,a4
    58b8:	0027e793          	ori	a5,a5,2
    58bc:	ce3a                	sw	a4,28(sp)
    58be:	c83e                	sw	a5,16(sp)
    58c0:	b7e9                	j	588a <_vfiprintf_r+0x19a>
    58c2:	036787b3          	mul	a5,a5,s6
    58c6:	84ae                	mv	s1,a1
    58c8:	4685                	li	a3,1
    58ca:	97ba                	add	a5,a5,a4
    58cc:	b759                	j	5852 <_vfiprintf_r+0x162>
    58ce:	0485                	addi	s1,s1,1
    58d0:	ca02                	sw	zero,20(sp)
    58d2:	4681                	li	a3,0
    58d4:	4781                	li	a5,0
    58d6:	4625                	li	a2,9
    58d8:	2098                	lbu	a4,0(s1)
    58da:	00148593          	addi	a1,s1,1
    58de:	fd070713          	addi	a4,a4,-48
    58e2:	06e67263          	bgeu	a2,a4,5946 <_vfiprintf_r+0x256>
    58e6:	f6e9                	bnez	a3,58b0 <_vfiprintf_r+0x1c0>
    58e8:	208c                	lbu	a1,0(s1)
    58ea:	460d                	li	a2,3
    58ec:	00001517          	auipc	a0,0x1
    58f0:	ac050513          	addi	a0,a0,-1344 # 63ac <__sf_fake_stdin+0x28>
    58f4:	2495                	jal	5b58 <memchr>
    58f6:	cd11                	beqz	a0,5912 <_vfiprintf_r+0x222>
    58f8:	00001797          	auipc	a5,0x1
    58fc:	ab478793          	addi	a5,a5,-1356 # 63ac <__sf_fake_stdin+0x28>
    5900:	8d1d                	sub	a0,a0,a5
    5902:	47c2                	lw	a5,16(sp)
    5904:	04000713          	li	a4,64
    5908:	00a71733          	sll	a4,a4,a0
    590c:	8fd9                	or	a5,a5,a4
    590e:	0485                	addi	s1,s1,1
    5910:	c83e                	sw	a5,16(sp)
    5912:	208c                	lbu	a1,0(s1)
    5914:	4619                	li	a2,6
    5916:	00001517          	auipc	a0,0x1
    591a:	a9a50513          	addi	a0,a0,-1382 # 63b0 <__sf_fake_stdin+0x2c>
    591e:	00148913          	addi	s2,s1,1
    5922:	02b10423          	sb	a1,40(sp)
    5926:	2c0d                	jal	5b58 <memchr>
    5928:	c935                	beqz	a0,599c <_vfiprintf_r+0x2ac>
    592a:	00000793          	li	a5,0
    592e:	e795                	bnez	a5,595a <_vfiprintf_r+0x26a>
    5930:	4742                	lw	a4,16(sp)
    5932:	47b2                	lw	a5,12(sp)
    5934:	10077713          	andi	a4,a4,256
    5938:	cf09                	beqz	a4,5952 <_vfiprintf_r+0x262>
    593a:	0791                	addi	a5,a5,4
    593c:	c63e                	sw	a5,12(sp)
    593e:	5792                	lw	a5,36(sp)
    5940:	97d2                	add	a5,a5,s4
    5942:	d23e                	sw	a5,36(sp)
    5944:	b561                	j	57cc <_vfiprintf_r+0xdc>
    5946:	036787b3          	mul	a5,a5,s6
    594a:	84ae                	mv	s1,a1
    594c:	4685                	li	a3,1
    594e:	97ba                	add	a5,a5,a4
    5950:	b761                	j	58d8 <_vfiprintf_r+0x1e8>
    5952:	079d                	addi	a5,a5,7
    5954:	9be1                	andi	a5,a5,-8
    5956:	07a1                	addi	a5,a5,8
    5958:	b7d5                	j	593c <_vfiprintf_r+0x24c>
    595a:	0078                	addi	a4,sp,12
    595c:	00000697          	auipc	a3,0x0
    5960:	d5268693          	addi	a3,a3,-686 # 56ae <__sfputs_r>
    5964:	8622                	mv	a2,s0
    5966:	080c                	addi	a1,sp,16
    5968:	854e                	mv	a0,s3
    596a:	00000097          	auipc	ra,0x0
    596e:	000000e7          	jalr	zero # 0 <_sinit>
    5972:	57fd                	li	a5,-1
    5974:	8a2a                	mv	s4,a0
    5976:	fcf514e3          	bne	a0,a5,593e <_vfiprintf_r+0x24e>
    597a:	507c                	lw	a5,100(s0)
    597c:	8b85                	andi	a5,a5,1
    597e:	eb81                	bnez	a5,598e <_vfiprintf_r+0x29e>
    5980:	245e                	lhu	a5,12(s0)
    5982:	2007f793          	andi	a5,a5,512
    5986:	e781                	bnez	a5,598e <_vfiprintf_r+0x29e>
    5988:	4c28                	lw	a0,88(s0)
    598a:	a09ff0ef          	jal	ra,5392 <__retarget_lock_release_recursive>
    598e:	245e                	lhu	a5,12(s0)
    5990:	0407f793          	andi	a5,a5,64
    5994:	dc0792e3          	bnez	a5,5758 <_vfiprintf_r+0x68>
    5998:	5512                	lw	a0,36(sp)
    599a:	b3c1                	j	575a <_vfiprintf_r+0x6a>
    599c:	0078                	addi	a4,sp,12
    599e:	00000697          	auipc	a3,0x0
    59a2:	d1068693          	addi	a3,a3,-752 # 56ae <__sfputs_r>
    59a6:	8622                	mv	a2,s0
    59a8:	080c                	addi	a1,sp,16
    59aa:	854e                	mv	a0,s3
    59ac:	24d5                	jal	5c90 <_printf_i>
    59ae:	b7d1                	j	5972 <_vfiprintf_r+0x282>

000059b0 <_sbrk_r>:
    59b0:	1141                	addi	sp,sp,-16
    59b2:	c422                	sw	s0,8(sp)
    59b4:	842a                	mv	s0,a0
    59b6:	852e                	mv	a0,a1
    59b8:	8a01a223          	sw	zero,-1884(gp) # 20000114 <errno>
    59bc:	c606                	sw	ra,12(sp)
    59be:	825fb0ef          	jal	ra,11e2 <_sbrk>
    59c2:	57fd                	li	a5,-1
    59c4:	00f51663          	bne	a0,a5,59d0 <_sbrk_r+0x20>
    59c8:	8a41a783          	lw	a5,-1884(gp) # 20000114 <errno>
    59cc:	c391                	beqz	a5,59d0 <_sbrk_r+0x20>
    59ce:	c01c                	sw	a5,0(s0)
    59d0:	40b2                	lw	ra,12(sp)
    59d2:	4422                	lw	s0,8(sp)
    59d4:	0141                	addi	sp,sp,16
    59d6:	8082                	ret

000059d8 <__sread>:
    59d8:	1141                	addi	sp,sp,-16
    59da:	c422                	sw	s0,8(sp)
    59dc:	842e                	mv	s0,a1
    59de:	00e59583          	lh	a1,14(a1)
    59e2:	c606                	sw	ra,12(sp)
    59e4:	2325                	jal	5f0c <_read_r>
    59e6:	00054963          	bltz	a0,59f8 <__sread+0x20>
    59ea:	487c                	lw	a5,84(s0)
    59ec:	97aa                	add	a5,a5,a0
    59ee:	c87c                	sw	a5,84(s0)
    59f0:	40b2                	lw	ra,12(sp)
    59f2:	4422                	lw	s0,8(sp)
    59f4:	0141                	addi	sp,sp,16
    59f6:	8082                	ret
    59f8:	245e                	lhu	a5,12(s0)
    59fa:	777d                	lui	a4,0xfffff
    59fc:	177d                	addi	a4,a4,-1 # ffffefff <_eusrstack+0xdfff9fff>
    59fe:	8ff9                	and	a5,a5,a4
    5a00:	a45e                	sh	a5,12(s0)
    5a02:	b7fd                	j	59f0 <__sread+0x18>

00005a04 <__swrite>:
    5a04:	25de                	lhu	a5,12(a1)
    5a06:	1101                	addi	sp,sp,-32
    5a08:	cc22                	sw	s0,24(sp)
    5a0a:	ca26                	sw	s1,20(sp)
    5a0c:	c84a                	sw	s2,16(sp)
    5a0e:	c64e                	sw	s3,12(sp)
    5a10:	ce06                	sw	ra,28(sp)
    5a12:	1007f793          	andi	a5,a5,256
    5a16:	84aa                	mv	s1,a0
    5a18:	842e                	mv	s0,a1
    5a1a:	8932                	mv	s2,a2
    5a1c:	89b6                	mv	s3,a3
    5a1e:	c791                	beqz	a5,5a2a <__swrite+0x26>
    5a20:	00e59583          	lh	a1,14(a1)
    5a24:	4689                	li	a3,2
    5a26:	4601                	li	a2,0
    5a28:	2219                	jal	5b2e <_lseek_r>
    5a2a:	245e                	lhu	a5,12(s0)
    5a2c:	777d                	lui	a4,0xfffff
    5a2e:	177d                	addi	a4,a4,-1 # ffffefff <_eusrstack+0xdfff9fff>
    5a30:	8ff9                	and	a5,a5,a4
    5a32:	00e41583          	lh	a1,14(s0)
    5a36:	a45e                	sh	a5,12(s0)
    5a38:	4462                	lw	s0,24(sp)
    5a3a:	40f2                	lw	ra,28(sp)
    5a3c:	86ce                	mv	a3,s3
    5a3e:	864a                	mv	a2,s2
    5a40:	49b2                	lw	s3,12(sp)
    5a42:	4942                	lw	s2,16(sp)
    5a44:	8526                	mv	a0,s1
    5a46:	44d2                	lw	s1,20(sp)
    5a48:	6105                	addi	sp,sp,32
    5a4a:	a825                	j	5a82 <_write_r>

00005a4c <__sseek>:
    5a4c:	1141                	addi	sp,sp,-16
    5a4e:	c422                	sw	s0,8(sp)
    5a50:	842e                	mv	s0,a1
    5a52:	00e59583          	lh	a1,14(a1)
    5a56:	c606                	sw	ra,12(sp)
    5a58:	28d9                	jal	5b2e <_lseek_r>
    5a5a:	577d                	li	a4,-1
    5a5c:	245e                	lhu	a5,12(s0)
    5a5e:	00e51a63          	bne	a0,a4,5a72 <__sseek+0x26>
    5a62:	777d                	lui	a4,0xfffff
    5a64:	177d                	addi	a4,a4,-1 # ffffefff <_eusrstack+0xdfff9fff>
    5a66:	8ff9                	and	a5,a5,a4
    5a68:	a45e                	sh	a5,12(s0)
    5a6a:	40b2                	lw	ra,12(sp)
    5a6c:	4422                	lw	s0,8(sp)
    5a6e:	0141                	addi	sp,sp,16
    5a70:	8082                	ret
    5a72:	6705                	lui	a4,0x1
    5a74:	8fd9                	or	a5,a5,a4
    5a76:	a45e                	sh	a5,12(s0)
    5a78:	c868                	sw	a0,84(s0)
    5a7a:	bfc5                	j	5a6a <__sseek+0x1e>

00005a7c <__sclose>:
    5a7c:	00e59583          	lh	a1,14(a1)
    5a80:	a82d                	j	5aba <_close_r>

00005a82 <_write_r>:
    5a82:	1141                	addi	sp,sp,-16
    5a84:	c422                	sw	s0,8(sp)
    5a86:	842a                	mv	s0,a0
    5a88:	852e                	mv	a0,a1
    5a8a:	85b2                	mv	a1,a2
    5a8c:	8636                	mv	a2,a3
    5a8e:	8a01a223          	sw	zero,-1884(gp) # 20000114 <errno>
    5a92:	c606                	sw	ra,12(sp)
    5a94:	f14fb0ef          	jal	ra,11a8 <_write>
    5a98:	57fd                	li	a5,-1
    5a9a:	00f51663          	bne	a0,a5,5aa6 <_write_r+0x24>
    5a9e:	8a41a783          	lw	a5,-1884(gp) # 20000114 <errno>
    5aa2:	c391                	beqz	a5,5aa6 <_write_r+0x24>
    5aa4:	c01c                	sw	a5,0(s0)
    5aa6:	40b2                	lw	ra,12(sp)
    5aa8:	4422                	lw	s0,8(sp)
    5aaa:	0141                	addi	sp,sp,16
    5aac:	8082                	ret

00005aae <abort>:
    5aae:	1141                	addi	sp,sp,-16
    5ab0:	4519                	li	a0,6
    5ab2:	c606                	sw	ra,12(sp)
    5ab4:	21cd                	jal	5f96 <raise>
    5ab6:	4505                	li	a0,1
    5ab8:	239d                	jal	601e <_exit>

00005aba <_close_r>:
    5aba:	1141                	addi	sp,sp,-16
    5abc:	c422                	sw	s0,8(sp)
    5abe:	842a                	mv	s0,a0
    5ac0:	852e                	mv	a0,a1
    5ac2:	8a01a223          	sw	zero,-1884(gp) # 20000114 <errno>
    5ac6:	c606                	sw	ra,12(sp)
    5ac8:	2309                	jal	5fca <_close>
    5aca:	57fd                	li	a5,-1
    5acc:	00f51663          	bne	a0,a5,5ad8 <_close_r+0x1e>
    5ad0:	8a41a783          	lw	a5,-1884(gp) # 20000114 <errno>
    5ad4:	c391                	beqz	a5,5ad8 <_close_r+0x1e>
    5ad6:	c01c                	sw	a5,0(s0)
    5ad8:	40b2                	lw	ra,12(sp)
    5ada:	4422                	lw	s0,8(sp)
    5adc:	0141                	addi	sp,sp,16
    5ade:	8082                	ret

00005ae0 <_fstat_r>:
    5ae0:	1141                	addi	sp,sp,-16
    5ae2:	c422                	sw	s0,8(sp)
    5ae4:	842a                	mv	s0,a0
    5ae6:	852e                	mv	a0,a1
    5ae8:	85b2                	mv	a1,a2
    5aea:	8a01a223          	sw	zero,-1884(gp) # 20000114 <errno>
    5aee:	c606                	sw	ra,12(sp)
    5af0:	21dd                	jal	5fd6 <_fstat>
    5af2:	57fd                	li	a5,-1
    5af4:	00f51663          	bne	a0,a5,5b00 <_fstat_r+0x20>
    5af8:	8a41a783          	lw	a5,-1884(gp) # 20000114 <errno>
    5afc:	c391                	beqz	a5,5b00 <_fstat_r+0x20>
    5afe:	c01c                	sw	a5,0(s0)
    5b00:	40b2                	lw	ra,12(sp)
    5b02:	4422                	lw	s0,8(sp)
    5b04:	0141                	addi	sp,sp,16
    5b06:	8082                	ret

00005b08 <_isatty_r>:
    5b08:	1141                	addi	sp,sp,-16
    5b0a:	c422                	sw	s0,8(sp)
    5b0c:	842a                	mv	s0,a0
    5b0e:	852e                	mv	a0,a1
    5b10:	8a01a223          	sw	zero,-1884(gp) # 20000114 <errno>
    5b14:	c606                	sw	ra,12(sp)
    5b16:	29e1                	jal	5fee <_isatty>
    5b18:	57fd                	li	a5,-1
    5b1a:	00f51663          	bne	a0,a5,5b26 <_isatty_r+0x1e>
    5b1e:	8a41a783          	lw	a5,-1884(gp) # 20000114 <errno>
    5b22:	c391                	beqz	a5,5b26 <_isatty_r+0x1e>
    5b24:	c01c                	sw	a5,0(s0)
    5b26:	40b2                	lw	ra,12(sp)
    5b28:	4422                	lw	s0,8(sp)
    5b2a:	0141                	addi	sp,sp,16
    5b2c:	8082                	ret

00005b2e <_lseek_r>:
    5b2e:	1141                	addi	sp,sp,-16
    5b30:	c422                	sw	s0,8(sp)
    5b32:	842a                	mv	s0,a0
    5b34:	852e                	mv	a0,a1
    5b36:	85b2                	mv	a1,a2
    5b38:	8636                	mv	a2,a3
    5b3a:	8a01a223          	sw	zero,-1884(gp) # 20000114 <errno>
    5b3e:	c606                	sw	ra,12(sp)
    5b40:	21d9                	jal	6006 <_lseek>
    5b42:	57fd                	li	a5,-1
    5b44:	00f51663          	bne	a0,a5,5b50 <_lseek_r+0x22>
    5b48:	8a41a783          	lw	a5,-1884(gp) # 20000114 <errno>
    5b4c:	c391                	beqz	a5,5b50 <_lseek_r+0x22>
    5b4e:	c01c                	sw	a5,0(s0)
    5b50:	40b2                	lw	ra,12(sp)
    5b52:	4422                	lw	s0,8(sp)
    5b54:	0141                	addi	sp,sp,16
    5b56:	8082                	ret

00005b58 <memchr>:
    5b58:	0ff5f593          	zext.b	a1,a1
    5b5c:	962a                	add	a2,a2,a0
    5b5e:	00c51463          	bne	a0,a2,5b66 <memchr+0xe>
    5b62:	4501                	li	a0,0
    5b64:	8082                	ret
    5b66:	211c                	lbu	a5,0(a0)
    5b68:	feb78ee3          	beq	a5,a1,5b64 <memchr+0xc>
    5b6c:	0505                	addi	a0,a0,1
    5b6e:	bfc5                	j	5b5e <memchr+0x6>

00005b70 <__malloc_lock>:
    5b70:	89018513          	addi	a0,gp,-1904 # 20000100 <__lock___malloc_recursive_mutex>
    5b74:	81dff06f          	j	5390 <__retarget_lock_acquire_recursive>

00005b78 <__malloc_unlock>:
    5b78:	89018513          	addi	a0,gp,-1904 # 20000100 <__lock___malloc_recursive_mutex>
    5b7c:	817ff06f          	j	5392 <__retarget_lock_release_recursive>

00005b80 <_printf_common>:
    5b80:	7179                	addi	sp,sp,-48
    5b82:	ca56                	sw	s5,20(sp)
    5b84:	499c                	lw	a5,16(a1)
    5b86:	8aba                	mv	s5,a4
    5b88:	4598                	lw	a4,8(a1)
    5b8a:	d422                	sw	s0,40(sp)
    5b8c:	d04a                	sw	s2,32(sp)
    5b8e:	ce4e                	sw	s3,28(sp)
    5b90:	cc52                	sw	s4,24(sp)
    5b92:	d606                	sw	ra,44(sp)
    5b94:	d226                	sw	s1,36(sp)
    5b96:	c85a                	sw	s6,16(sp)
    5b98:	c65e                	sw	s7,12(sp)
    5b9a:	89aa                	mv	s3,a0
    5b9c:	842e                	mv	s0,a1
    5b9e:	8932                	mv	s2,a2
    5ba0:	8a36                	mv	s4,a3
    5ba2:	00e7d363          	bge	a5,a4,5ba8 <_printf_common+0x28>
    5ba6:	87ba                	mv	a5,a4
    5ba8:	00f92023          	sw	a5,0(s2)
    5bac:	04344703          	lbu	a4,67(s0)
    5bb0:	c701                	beqz	a4,5bb8 <_printf_common+0x38>
    5bb2:	0785                	addi	a5,a5,1
    5bb4:	00f92023          	sw	a5,0(s2)
    5bb8:	401c                	lw	a5,0(s0)
    5bba:	0207f793          	andi	a5,a5,32
    5bbe:	c791                	beqz	a5,5bca <_printf_common+0x4a>
    5bc0:	00092783          	lw	a5,0(s2)
    5bc4:	0789                	addi	a5,a5,2
    5bc6:	00f92023          	sw	a5,0(s2)
    5bca:	4004                	lw	s1,0(s0)
    5bcc:	8899                	andi	s1,s1,6
    5bce:	e891                	bnez	s1,5be2 <_printf_common+0x62>
    5bd0:	01940b13          	addi	s6,s0,25
    5bd4:	5bfd                	li	s7,-1
    5bd6:	445c                	lw	a5,12(s0)
    5bd8:	00092703          	lw	a4,0(s2)
    5bdc:	8f99                	sub	a5,a5,a4
    5bde:	04f4cc63          	blt	s1,a5,5c36 <_printf_common+0xb6>
    5be2:	04344783          	lbu	a5,67(s0)
    5be6:	00f036b3          	snez	a3,a5
    5bea:	401c                	lw	a5,0(s0)
    5bec:	0207f793          	andi	a5,a5,32
    5bf0:	eba5                	bnez	a5,5c60 <_printf_common+0xe0>
    5bf2:	04340613          	addi	a2,s0,67
    5bf6:	85d2                	mv	a1,s4
    5bf8:	854e                	mv	a0,s3
    5bfa:	9a82                	jalr	s5
    5bfc:	57fd                	li	a5,-1
    5bfe:	04f50363          	beq	a0,a5,5c44 <_printf_common+0xc4>
    5c02:	401c                	lw	a5,0(s0)
    5c04:	4711                	li	a4,4
    5c06:	4481                	li	s1,0
    5c08:	8b99                	andi	a5,a5,6
    5c0a:	00e79963          	bne	a5,a4,5c1c <_printf_common+0x9c>
    5c0e:	4444                	lw	s1,12(s0)
    5c10:	00092783          	lw	a5,0(s2)
    5c14:	8c9d                	sub	s1,s1,a5
    5c16:	0004d363          	bgez	s1,5c1c <_printf_common+0x9c>
    5c1a:	4481                	li	s1,0
    5c1c:	441c                	lw	a5,8(s0)
    5c1e:	4818                	lw	a4,16(s0)
    5c20:	00f75463          	bge	a4,a5,5c28 <_printf_common+0xa8>
    5c24:	8f99                	sub	a5,a5,a4
    5c26:	94be                	add	s1,s1,a5
    5c28:	4901                	li	s2,0
    5c2a:	0469                	addi	s0,s0,26
    5c2c:	5b7d                	li	s6,-1
    5c2e:	05249863          	bne	s1,s2,5c7e <_printf_common+0xfe>
    5c32:	4501                	li	a0,0
    5c34:	a809                	j	5c46 <_printf_common+0xc6>
    5c36:	4685                	li	a3,1
    5c38:	865a                	mv	a2,s6
    5c3a:	85d2                	mv	a1,s4
    5c3c:	854e                	mv	a0,s3
    5c3e:	9a82                	jalr	s5
    5c40:	01751e63          	bne	a0,s7,5c5c <_printf_common+0xdc>
    5c44:	557d                	li	a0,-1
    5c46:	50b2                	lw	ra,44(sp)
    5c48:	5422                	lw	s0,40(sp)
    5c4a:	5492                	lw	s1,36(sp)
    5c4c:	5902                	lw	s2,32(sp)
    5c4e:	49f2                	lw	s3,28(sp)
    5c50:	4a62                	lw	s4,24(sp)
    5c52:	4ad2                	lw	s5,20(sp)
    5c54:	4b42                	lw	s6,16(sp)
    5c56:	4bb2                	lw	s7,12(sp)
    5c58:	6145                	addi	sp,sp,48
    5c5a:	8082                	ret
    5c5c:	0485                	addi	s1,s1,1
    5c5e:	bfa5                	j	5bd6 <_printf_common+0x56>
    5c60:	00d40733          	add	a4,s0,a3
    5c64:	03000613          	li	a2,48
    5c68:	04c701a3          	sb	a2,67(a4) # 1043 <TIM_ICInit+0xf1>
    5c6c:	04544703          	lbu	a4,69(s0)
    5c70:	00168793          	addi	a5,a3,1
    5c74:	97a2                	add	a5,a5,s0
    5c76:	0689                	addi	a3,a3,2
    5c78:	04e781a3          	sb	a4,67(a5)
    5c7c:	bf9d                	j	5bf2 <_printf_common+0x72>
    5c7e:	4685                	li	a3,1
    5c80:	8622                	mv	a2,s0
    5c82:	85d2                	mv	a1,s4
    5c84:	854e                	mv	a0,s3
    5c86:	9a82                	jalr	s5
    5c88:	fb650ee3          	beq	a0,s6,5c44 <_printf_common+0xc4>
    5c8c:	0905                	addi	s2,s2,1
    5c8e:	b745                	j	5c2e <_printf_common+0xae>

00005c90 <_printf_i>:
    5c90:	7179                	addi	sp,sp,-48
    5c92:	d422                	sw	s0,40(sp)
    5c94:	d04a                	sw	s2,32(sp)
    5c96:	ce4e                	sw	s3,28(sp)
    5c98:	cc52                	sw	s4,24(sp)
    5c9a:	d606                	sw	ra,44(sp)
    5c9c:	d226                	sw	s1,36(sp)
    5c9e:	ca56                	sw	s5,20(sp)
    5ca0:	c85a                	sw	s6,16(sp)
    5ca2:	0185c803          	lbu	a6,24(a1)
    5ca6:	07800793          	li	a5,120
    5caa:	892a                	mv	s2,a0
    5cac:	842e                	mv	s0,a1
    5cae:	89b2                	mv	s3,a2
    5cb0:	8a36                	mv	s4,a3
    5cb2:	0307e263          	bltu	a5,a6,5cd6 <_printf_i+0x46>
    5cb6:	06200793          	li	a5,98
    5cba:	04358693          	addi	a3,a1,67
    5cbe:	0307e163          	bltu	a5,a6,5ce0 <_printf_i+0x50>
    5cc2:	1c080c63          	beqz	a6,5e9a <_printf_i+0x20a>
    5cc6:	05800793          	li	a5,88
    5cca:	00000617          	auipc	a2,0x0
    5cce:	6ee60613          	addi	a2,a2,1774 # 63b8 <__sf_fake_stdin+0x34>
    5cd2:	14f80863          	beq	a6,a5,5e22 <_printf_i+0x192>
    5cd6:	04240493          	addi	s1,s0,66
    5cda:	05040123          	sb	a6,66(s0)
    5cde:	a815                	j	5d12 <_printf_i+0x82>
    5ce0:	f9d80793          	addi	a5,a6,-99
    5ce4:	0ff7f793          	zext.b	a5,a5
    5ce8:	4655                	li	a2,21
    5cea:	fef666e3          	bltu	a2,a5,5cd6 <_printf_i+0x46>
    5cee:	00000617          	auipc	a2,0x0
    5cf2:	6f260613          	addi	a2,a2,1778 # 63e0 <__sf_fake_stdin+0x5c>
    5cf6:	078a                	slli	a5,a5,0x2
    5cf8:	97b2                	add	a5,a5,a2
    5cfa:	439c                	lw	a5,0(a5)
    5cfc:	97b2                	add	a5,a5,a2
    5cfe:	8782                	jr	a5
    5d00:	431c                	lw	a5,0(a4)
    5d02:	04258493          	addi	s1,a1,66
    5d06:	00478693          	addi	a3,a5,4
    5d0a:	439c                	lw	a5,0(a5)
    5d0c:	c314                	sw	a3,0(a4)
    5d0e:	04f58123          	sb	a5,66(a1)
    5d12:	4785                	li	a5,1
    5d14:	a26d                	j	5ebe <_printf_i+0x22e>
    5d16:	4190                	lw	a2,0(a1)
    5d18:	431c                	lw	a5,0(a4)
    5d1a:	08067513          	andi	a0,a2,128
    5d1e:	00478593          	addi	a1,a5,4
    5d22:	c129                	beqz	a0,5d64 <_printf_i+0xd4>
    5d24:	439c                	lw	a5,0(a5)
    5d26:	c30c                	sw	a1,0(a4)
    5d28:	4058                	lw	a4,4(s0)
    5d2a:	1207df63          	bgez	a5,5e68 <_printf_i+0x1d8>
    5d2e:	02d00593          	li	a1,45
    5d32:	04b401a3          	sb	a1,67(s0)
    5d36:	c418                	sw	a4,8(s0)
    5d38:	02075e63          	bgez	a4,5d74 <_printf_i+0xe4>
    5d3c:	40f007b3          	neg	a5,a5
    5d40:	00000617          	auipc	a2,0x0
    5d44:	67860613          	addi	a2,a2,1656 # 63b8 <__sf_fake_stdin+0x34>
    5d48:	4829                	li	a6,10
    5d4a:	84b6                	mv	s1,a3
    5d4c:	0307f733          	remu	a4,a5,a6
    5d50:	14fd                	addi	s1,s1,-1
    5d52:	9732                	add	a4,a4,a2
    5d54:	2318                	lbu	a4,0(a4)
    5d56:	a098                	sb	a4,0(s1)
    5d58:	873e                	mv	a4,a5
    5d5a:	0307d7b3          	divu	a5,a5,a6
    5d5e:	ff0777e3          	bgeu	a4,a6,5d4c <_printf_i+0xbc>
    5d62:	a085                	j	5dc2 <_printf_i+0x132>
    5d64:	439c                	lw	a5,0(a5)
    5d66:	04067513          	andi	a0,a2,64
    5d6a:	c30c                	sw	a1,0(a4)
    5d6c:	dd55                	beqz	a0,5d28 <_printf_i+0x98>
    5d6e:	07c2                	slli	a5,a5,0x10
    5d70:	87c1                	srai	a5,a5,0x10
    5d72:	bf5d                	j	5d28 <_printf_i+0x98>
    5d74:	9a6d                	andi	a2,a2,-5
    5d76:	c010                	sw	a2,0(s0)
    5d78:	b7d1                	j	5d3c <_printf_i+0xac>
    5d7a:	4190                	lw	a2,0(a1)
    5d7c:	431c                	lw	a5,0(a4)
    5d7e:	08067513          	andi	a0,a2,128
    5d82:	00478593          	addi	a1,a5,4
    5d86:	c501                	beqz	a0,5d8e <_printf_i+0xfe>
    5d88:	c30c                	sw	a1,0(a4)
    5d8a:	439c                	lw	a5,0(a5)
    5d8c:	a031                	j	5d98 <_printf_i+0x108>
    5d8e:	04067613          	andi	a2,a2,64
    5d92:	c30c                	sw	a1,0(a4)
    5d94:	da7d                	beqz	a2,5d8a <_printf_i+0xfa>
    5d96:	239e                	lhu	a5,0(a5)
    5d98:	06f00713          	li	a4,111
    5d9c:	00000617          	auipc	a2,0x0
    5da0:	61c60613          	addi	a2,a2,1564 # 63b8 <__sf_fake_stdin+0x34>
    5da4:	0ce81063          	bne	a6,a4,5e64 <_printf_i+0x1d4>
    5da8:	4821                	li	a6,8
    5daa:	040401a3          	sb	zero,67(s0)
    5dae:	4058                	lw	a4,4(s0)
    5db0:	c418                	sw	a4,8(s0)
    5db2:	f8074ce3          	bltz	a4,5d4a <_printf_i+0xba>
    5db6:	400c                	lw	a1,0(s0)
    5db8:	99ed                	andi	a1,a1,-5
    5dba:	c00c                	sw	a1,0(s0)
    5dbc:	f7d9                	bnez	a5,5d4a <_printf_i+0xba>
    5dbe:	84b6                	mv	s1,a3
    5dc0:	f749                	bnez	a4,5d4a <_printf_i+0xba>
    5dc2:	47a1                	li	a5,8
    5dc4:	00f81e63          	bne	a6,a5,5de0 <_printf_i+0x150>
    5dc8:	401c                	lw	a5,0(s0)
    5dca:	8b85                	andi	a5,a5,1
    5dcc:	cb91                	beqz	a5,5de0 <_printf_i+0x150>
    5dce:	4058                	lw	a4,4(s0)
    5dd0:	481c                	lw	a5,16(s0)
    5dd2:	00e7c763          	blt	a5,a4,5de0 <_printf_i+0x150>
    5dd6:	03000793          	li	a5,48
    5dda:	fef48fa3          	sb	a5,-1(s1)
    5dde:	14fd                	addi	s1,s1,-1
    5de0:	8e85                	sub	a3,a3,s1
    5de2:	c814                	sw	a3,16(s0)
    5de4:	8752                	mv	a4,s4
    5de6:	86ce                	mv	a3,s3
    5de8:	0070                	addi	a2,sp,12
    5dea:	85a2                	mv	a1,s0
    5dec:	854a                	mv	a0,s2
    5dee:	d93ff0ef          	jal	ra,5b80 <_printf_common>
    5df2:	5afd                	li	s5,-1
    5df4:	0d551963          	bne	a0,s5,5ec6 <_printf_i+0x236>
    5df8:	557d                	li	a0,-1
    5dfa:	50b2                	lw	ra,44(sp)
    5dfc:	5422                	lw	s0,40(sp)
    5dfe:	5492                	lw	s1,36(sp)
    5e00:	5902                	lw	s2,32(sp)
    5e02:	49f2                	lw	s3,28(sp)
    5e04:	4a62                	lw	s4,24(sp)
    5e06:	4ad2                	lw	s5,20(sp)
    5e08:	4b42                	lw	s6,16(sp)
    5e0a:	6145                	addi	sp,sp,48
    5e0c:	8082                	ret
    5e0e:	419c                	lw	a5,0(a1)
    5e10:	0207e793          	ori	a5,a5,32
    5e14:	c19c                	sw	a5,0(a1)
    5e16:	07800813          	li	a6,120
    5e1a:	00000617          	auipc	a2,0x0
    5e1e:	5b260613          	addi	a2,a2,1458 # 63cc <__sf_fake_stdin+0x48>
    5e22:	050402a3          	sb	a6,69(s0)
    5e26:	400c                	lw	a1,0(s0)
    5e28:	431c                	lw	a5,0(a4)
    5e2a:	0805f813          	andi	a6,a1,128
    5e2e:	00478513          	addi	a0,a5,4
    5e32:	00080563          	beqz	a6,5e3c <_printf_i+0x1ac>
    5e36:	c308                	sw	a0,0(a4)
    5e38:	439c                	lw	a5,0(a5)
    5e3a:	a039                	j	5e48 <_printf_i+0x1b8>
    5e3c:	0405f813          	andi	a6,a1,64
    5e40:	c308                	sw	a0,0(a4)
    5e42:	fe080be3          	beqz	a6,5e38 <_printf_i+0x1a8>
    5e46:	239e                	lhu	a5,0(a5)
    5e48:	0015f713          	andi	a4,a1,1
    5e4c:	c701                	beqz	a4,5e54 <_printf_i+0x1c4>
    5e4e:	0205e593          	ori	a1,a1,32
    5e52:	c00c                	sw	a1,0(s0)
    5e54:	c399                	beqz	a5,5e5a <_printf_i+0x1ca>
    5e56:	4841                	li	a6,16
    5e58:	bf89                	j	5daa <_printf_i+0x11a>
    5e5a:	4018                	lw	a4,0(s0)
    5e5c:	fdf77713          	andi	a4,a4,-33
    5e60:	c018                	sw	a4,0(s0)
    5e62:	bfd5                	j	5e56 <_printf_i+0x1c6>
    5e64:	4829                	li	a6,10
    5e66:	b791                	j	5daa <_printf_i+0x11a>
    5e68:	00000617          	auipc	a2,0x0
    5e6c:	55060613          	addi	a2,a2,1360 # 63b8 <__sf_fake_stdin+0x34>
    5e70:	4829                	li	a6,10
    5e72:	bf35                	j	5dae <_printf_i+0x11e>
    5e74:	4190                	lw	a2,0(a1)
    5e76:	431c                	lw	a5,0(a4)
    5e78:	49cc                	lw	a1,20(a1)
    5e7a:	08067813          	andi	a6,a2,128
    5e7e:	00478513          	addi	a0,a5,4
    5e82:	00080663          	beqz	a6,5e8e <_printf_i+0x1fe>
    5e86:	c308                	sw	a0,0(a4)
    5e88:	439c                	lw	a5,0(a5)
    5e8a:	c38c                	sw	a1,0(a5)
    5e8c:	a039                	j	5e9a <_printf_i+0x20a>
    5e8e:	c308                	sw	a0,0(a4)
    5e90:	04067613          	andi	a2,a2,64
    5e94:	439c                	lw	a5,0(a5)
    5e96:	da75                	beqz	a2,5e8a <_printf_i+0x1fa>
    5e98:	a38e                	sh	a1,0(a5)
    5e9a:	00042823          	sw	zero,16(s0)
    5e9e:	84b6                	mv	s1,a3
    5ea0:	b791                	j	5de4 <_printf_i+0x154>
    5ea2:	431c                	lw	a5,0(a4)
    5ea4:	41d0                	lw	a2,4(a1)
    5ea6:	4581                	li	a1,0
    5ea8:	00478693          	addi	a3,a5,4
    5eac:	c314                	sw	a3,0(a4)
    5eae:	4384                	lw	s1,0(a5)
    5eb0:	8526                	mv	a0,s1
    5eb2:	ca7ff0ef          	jal	ra,5b58 <memchr>
    5eb6:	c119                	beqz	a0,5ebc <_printf_i+0x22c>
    5eb8:	8d05                	sub	a0,a0,s1
    5eba:	c048                	sw	a0,4(s0)
    5ebc:	405c                	lw	a5,4(s0)
    5ebe:	c81c                	sw	a5,16(s0)
    5ec0:	040401a3          	sb	zero,67(s0)
    5ec4:	b705                	j	5de4 <_printf_i+0x154>
    5ec6:	4814                	lw	a3,16(s0)
    5ec8:	8626                	mv	a2,s1
    5eca:	85ce                	mv	a1,s3
    5ecc:	854a                	mv	a0,s2
    5ece:	9a02                	jalr	s4
    5ed0:	f35504e3          	beq	a0,s5,5df8 <_printf_i+0x168>
    5ed4:	401c                	lw	a5,0(s0)
    5ed6:	8b89                	andi	a5,a5,2
    5ed8:	e78d                	bnez	a5,5f02 <_printf_i+0x272>
    5eda:	47b2                	lw	a5,12(sp)
    5edc:	4448                	lw	a0,12(s0)
    5ede:	f0f55ee3          	bge	a0,a5,5dfa <_printf_i+0x16a>
    5ee2:	853e                	mv	a0,a5
    5ee4:	bf19                	j	5dfa <_printf_i+0x16a>
    5ee6:	4685                	li	a3,1
    5ee8:	8656                	mv	a2,s5
    5eea:	85ce                	mv	a1,s3
    5eec:	854a                	mv	a0,s2
    5eee:	9a02                	jalr	s4
    5ef0:	f16504e3          	beq	a0,s6,5df8 <_printf_i+0x168>
    5ef4:	0485                	addi	s1,s1,1
    5ef6:	445c                	lw	a5,12(s0)
    5ef8:	4732                	lw	a4,12(sp)
    5efa:	8f99                	sub	a5,a5,a4
    5efc:	fef4c5e3          	blt	s1,a5,5ee6 <_printf_i+0x256>
    5f00:	bfe9                	j	5eda <_printf_i+0x24a>
    5f02:	4481                	li	s1,0
    5f04:	01940a93          	addi	s5,s0,25
    5f08:	5b7d                	li	s6,-1
    5f0a:	b7f5                	j	5ef6 <_printf_i+0x266>

00005f0c <_read_r>:
    5f0c:	1141                	addi	sp,sp,-16
    5f0e:	c422                	sw	s0,8(sp)
    5f10:	842a                	mv	s0,a0
    5f12:	852e                	mv	a0,a1
    5f14:	85b2                	mv	a1,a2
    5f16:	8636                	mv	a2,a3
    5f18:	8a01a223          	sw	zero,-1884(gp) # 20000114 <errno>
    5f1c:	c606                	sw	ra,12(sp)
    5f1e:	28d5                	jal	6012 <_read>
    5f20:	57fd                	li	a5,-1
    5f22:	00f51663          	bne	a0,a5,5f2e <_read_r+0x22>
    5f26:	8a41a783          	lw	a5,-1884(gp) # 20000114 <errno>
    5f2a:	c391                	beqz	a5,5f2e <_read_r+0x22>
    5f2c:	c01c                	sw	a5,0(s0)
    5f2e:	40b2                	lw	ra,12(sp)
    5f30:	4422                	lw	s0,8(sp)
    5f32:	0141                	addi	sp,sp,16
    5f34:	8082                	ret

00005f36 <_raise_r>:
    5f36:	1101                	addi	sp,sp,-32
    5f38:	cc22                	sw	s0,24(sp)
    5f3a:	ce06                	sw	ra,28(sp)
    5f3c:	47fd                	li	a5,31
    5f3e:	842a                	mv	s0,a0
    5f40:	00b7f963          	bgeu	a5,a1,5f52 <_raise_r+0x1c>
    5f44:	47d9                	li	a5,22
    5f46:	c11c                	sw	a5,0(a0)
    5f48:	557d                	li	a0,-1
    5f4a:	40f2                	lw	ra,28(sp)
    5f4c:	4462                	lw	s0,24(sp)
    5f4e:	6105                	addi	sp,sp,32
    5f50:	8082                	ret
    5f52:	417c                	lw	a5,68(a0)
    5f54:	862e                	mv	a2,a1
    5f56:	c791                	beqz	a5,5f62 <_raise_r+0x2c>
    5f58:	00259713          	slli	a4,a1,0x2
    5f5c:	97ba                	add	a5,a5,a4
    5f5e:	4398                	lw	a4,0(a5)
    5f60:	eb19                	bnez	a4,5f76 <_raise_r+0x40>
    5f62:	8522                	mv	a0,s0
    5f64:	c632                	sw	a2,12(sp)
    5f66:	208d                	jal	5fc8 <_getpid_r>
    5f68:	85aa                	mv	a1,a0
    5f6a:	8522                	mv	a0,s0
    5f6c:	4462                	lw	s0,24(sp)
    5f6e:	4632                	lw	a2,12(sp)
    5f70:	40f2                	lw	ra,28(sp)
    5f72:	6105                	addi	sp,sp,32
    5f74:	a035                	j	5fa0 <_kill_r>
    5f76:	4685                	li	a3,1
    5f78:	00d70d63          	beq	a4,a3,5f92 <_raise_r+0x5c>
    5f7c:	56fd                	li	a3,-1
    5f7e:	00d71663          	bne	a4,a3,5f8a <_raise_r+0x54>
    5f82:	47d9                	li	a5,22
    5f84:	c11c                	sw	a5,0(a0)
    5f86:	4505                	li	a0,1
    5f88:	b7c9                	j	5f4a <_raise_r+0x14>
    5f8a:	0007a023          	sw	zero,0(a5)
    5f8e:	852e                	mv	a0,a1
    5f90:	9702                	jalr	a4
    5f92:	4501                	li	a0,0
    5f94:	bf5d                	j	5f4a <_raise_r+0x14>

00005f96 <raise>:
    5f96:	85aa                	mv	a1,a0
    5f98:	8101a503          	lw	a0,-2032(gp) # 20000080 <_impure_ptr>
    5f9c:	f9bff06f          	j	5f36 <_raise_r>

00005fa0 <_kill_r>:
    5fa0:	1141                	addi	sp,sp,-16
    5fa2:	c422                	sw	s0,8(sp)
    5fa4:	842a                	mv	s0,a0
    5fa6:	852e                	mv	a0,a1
    5fa8:	85b2                	mv	a1,a2
    5faa:	8a01a223          	sw	zero,-1884(gp) # 20000114 <errno>
    5fae:	c606                	sw	ra,12(sp)
    5fb0:	20a9                	jal	5ffa <_kill>
    5fb2:	57fd                	li	a5,-1
    5fb4:	00f51663          	bne	a0,a5,5fc0 <_kill_r+0x20>
    5fb8:	8a41a783          	lw	a5,-1884(gp) # 20000114 <errno>
    5fbc:	c391                	beqz	a5,5fc0 <_kill_r+0x20>
    5fbe:	c01c                	sw	a5,0(s0)
    5fc0:	40b2                	lw	ra,12(sp)
    5fc2:	4422                	lw	s0,8(sp)
    5fc4:	0141                	addi	sp,sp,16
    5fc6:	8082                	ret

00005fc8 <_getpid_r>:
    5fc8:	a829                	j	5fe2 <_getpid>

00005fca <_close>:
    5fca:	05800793          	li	a5,88
    5fce:	8af1a223          	sw	a5,-1884(gp) # 20000114 <errno>
    5fd2:	557d                	li	a0,-1
    5fd4:	8082                	ret

00005fd6 <_fstat>:
    5fd6:	05800793          	li	a5,88
    5fda:	8af1a223          	sw	a5,-1884(gp) # 20000114 <errno>
    5fde:	557d                	li	a0,-1
    5fe0:	8082                	ret

00005fe2 <_getpid>:
    5fe2:	05800793          	li	a5,88
    5fe6:	8af1a223          	sw	a5,-1884(gp) # 20000114 <errno>
    5fea:	557d                	li	a0,-1
    5fec:	8082                	ret

00005fee <_isatty>:
    5fee:	05800793          	li	a5,88
    5ff2:	8af1a223          	sw	a5,-1884(gp) # 20000114 <errno>
    5ff6:	4501                	li	a0,0
    5ff8:	8082                	ret

00005ffa <_kill>:
    5ffa:	05800793          	li	a5,88
    5ffe:	8af1a223          	sw	a5,-1884(gp) # 20000114 <errno>
    6002:	557d                	li	a0,-1
    6004:	8082                	ret

00006006 <_lseek>:
    6006:	05800793          	li	a5,88
    600a:	8af1a223          	sw	a5,-1884(gp) # 20000114 <errno>
    600e:	557d                	li	a0,-1
    6010:	8082                	ret

00006012 <_read>:
    6012:	05800793          	li	a5,88
    6016:	8af1a223          	sw	a5,-1884(gp) # 20000114 <errno>
    601a:	557d                	li	a0,-1
    601c:	8082                	ret

0000601e <_exit>:
    601e:	a001                	j	601e <_exit>
    6020:	6148                	.2byte	0x6148
    6022:	6472                	.2byte	0x6472
    6024:	6146                	.2byte	0x6146
    6026:	6c75                	lui	s8,0x1d
    6028:	5f74                	lw	a3,124(a4)
    602a:	6148                	.2byte	0x6148
    602c:	646e                	.2byte	0x646e
    602e:	656c                	.2byte	0x656c
    6030:	0d72                	slli	s10,s10,0x1c
    6032:	0000                	unimp
    6034:	636d                	lui	t1,0x1b
    6036:	7561                	lui	a0,0xffff8
    6038:	253a6573          	csrrsi	a0,0x253,20
    603c:	7830                	.2byte	0x7830
    603e:	0a0d                	addi	s4,s4,3
    6040:	0000                	unimp
    6042:	0000                	unimp
    6044:	746d                	lui	s0,0xffffb
    6046:	6176                	.2byte	0x6176
    6048:	3a6c                	lbu	a1,23(a2)
    604a:	3025                	jal	5872 <_vfiprintf_r+0x182>
    604c:	0d78                	addi	a4,sp,668
    604e:	000a                	c.slli	zero,0x2
    6050:	656d                	lui	a0,0x1b
    6052:	6370                	.2byte	0x6370
    6054:	253a                	lhu	a4,10(a0)
    6056:	7830                	.2byte	0x7830
    6058:	0a0d                	addi	s4,s4,3
    605a:	0000                	unimp
    605c:	1904                	addi	s1,sp,176
    605e:	0000                	unimp
    6060:	169e                	slli	a3,a3,0x27
    6062:	0000                	unimp
    6064:	1762                	slli	a4,a4,0x38
    6066:	0000                	unimp
    6068:	1876                	slli	a6,a6,0x3d
    606a:	0000                	unimp
    606c:	18f6                	slli	a7,a7,0x3d
    606e:	0000                	unimp
    6070:	190c                	addi	a1,sp,176
    6072:	0000                	unimp
    6074:	1904                	addi	s1,sp,176
    6076:	0000                	unimp
    6078:	1c06                	slli	s8,s8,0x21
    607a:	0000                	unimp
    607c:	1c0c                	addi	a1,sp,560
    607e:	0000                	unimp
    6080:	1c12                	slli	s8,s8,0x24
    6082:	0000                	unimp
    6084:	1c18                	addi	a4,sp,560
    6086:	0000                	unimp
    6088:	1c1e                	slli	s8,s8,0x27
    608a:	0000                	unimp
    608c:	1c24                	addi	s1,sp,568
    608e:	0000                	unimp
    6090:	ceb2                	sw	a2,92(sp)
    6092:	ffff                	.2byte	0xffff
    6094:	cd6c                	sw	a1,92(a0)
    6096:	ffff                	.2byte	0xffff
    6098:	cd42                	sw	a6,152(sp)
    609a:	ffff                	.2byte	0xffff
    609c:	ce24                	sw	s1,88(a2)
    609e:	ffff                	.2byte	0xffff
    60a0:	cd42                	sw	a6,152(sp)
    60a2:	ffff                	.2byte	0xffff
    60a4:	cd76                	sw	t4,152(sp)
    60a6:	ffff                	.2byte	0xffff
    60a8:	cd42                	sw	a6,152(sp)
    60aa:	ffff                	.2byte	0xffff
    60ac:	ce24                	sw	s1,88(a2)
    60ae:	ffff                	.2byte	0xffff
    60b0:	cd6c                	sw	a1,92(a0)
    60b2:	ffff                	.2byte	0xffff
    60b4:	cd6c                	sw	a1,92(a0)
    60b6:	ffff                	.2byte	0xffff
    60b8:	cd76                	sw	t4,152(sp)
    60ba:	ffff                	.2byte	0xffff
    60bc:	ce24                	sw	s1,88(a2)
    60be:	ffff                	.2byte	0xffff
    60c0:	ce7e                	sw	t6,28(sp)
    60c2:	ffff                	.2byte	0xffff
    60c4:	ce7e                	sw	t6,28(sp)
    60c6:	ffff                	.2byte	0xffff
    60c8:	ce7e                	sw	t6,28(sp)
    60ca:	ffff                	.2byte	0xffff
    60cc:	cd76                	sw	t4,152(sp)
    60ce:	ffff                	.2byte	0xffff
    60d0:	dda4                	sw	s1,120(a1)
    60d2:	ffff                	.2byte	0xffff
    60d4:	dc04                	sw	s1,56(s0)
    60d6:	ffff                	.2byte	0xffff
    60d8:	dc36                	sw	a3,56(sp)
    60da:	ffff                	.2byte	0xffff
    60dc:	dc3c                	sw	a5,120(s0)
    60de:	ffff                	.2byte	0xffff
    60e0:	dc36                	sw	a3,56(sp)
    60e2:	ffff                	.2byte	0xffff
    60e4:	dc46                	sw	a7,56(sp)
    60e6:	ffff                	.2byte	0xffff
    60e8:	dc36                	sw	a3,56(sp)
    60ea:	ffff                	.2byte	0xffff
    60ec:	dc3c                	sw	a5,120(s0)
    60ee:	ffff                	.2byte	0xffff
    60f0:	dc04                	sw	s1,56(s0)
    60f2:	ffff                	.2byte	0xffff
    60f4:	dc04                	sw	s1,56(s0)
    60f6:	ffff                	.2byte	0xffff
    60f8:	dc46                	sw	a7,56(sp)
    60fa:	ffff                	.2byte	0xffff
    60fc:	dc3c                	sw	a5,120(s0)
    60fe:	ffff                	.2byte	0xffff
    6100:	dd08                	sw	a0,56(a0)
    6102:	ffff                	.2byte	0xffff
    6104:	dd08                	sw	a0,56(a0)
    6106:	ffff                	.2byte	0xffff
    6108:	dd08                	sw	a0,56(a0)
    610a:	ffff                	.2byte	0xffff
    610c:	dc46                	sw	a7,56(sp)
    610e:	ffff                	.2byte	0xffff
    6110:	dbc4                	sw	s1,52(a5)
    6112:	ffff                	.2byte	0xffff
    6114:	dbc4                	sw	s1,52(a5)
    6116:	ffff                	.2byte	0xffff
    6118:	dbf6                	sw	t4,244(sp)
    611a:	ffff                	.2byte	0xffff
    611c:	ddf8                	sw	a4,124(a1)
    611e:	ffff                	.2byte	0xffff
    6120:	dbf6                	sw	t4,244(sp)
    6122:	ffff                	.2byte	0xffff
    6124:	dc06                	sw	ra,56(sp)
    6126:	ffff                	.2byte	0xffff
    6128:	dbf6                	sw	t4,244(sp)
    612a:	ffff                	.2byte	0xffff
    612c:	ddf8                	sw	a4,124(a1)
    612e:	ffff                	.2byte	0xffff
    6130:	dbc4                	sw	s1,52(a5)
    6132:	ffff                	.2byte	0xffff
    6134:	dbc4                	sw	s1,52(a5)
    6136:	ffff                	.2byte	0xffff
    6138:	dc06                	sw	ra,56(sp)
    613a:	ffff                	.2byte	0xffff
    613c:	ddf8                	sw	a4,124(a1)
    613e:	ffff                	.2byte	0xffff
    6140:	dcc8                	sw	a0,60(s1)
    6142:	ffff                	.2byte	0xffff
    6144:	dcc8                	sw	a0,60(s1)
    6146:	ffff                	.2byte	0xffff
    6148:	dde2                	sw	s8,248(sp)
    614a:	ffff                	.2byte	0xffff
    614c:	dbbe                	sw	a5,244(sp)
    614e:	ffff                	.2byte	0xffff
    6150:	ddc6                	sw	a7,248(sp)
    6152:	ffff                	.2byte	0xffff
    6154:	dbbe                	sw	a5,244(sp)
    6156:	ffff                	.2byte	0xffff
    6158:	dde2                	sw	s8,248(sp)
    615a:	ffff                	.2byte	0xffff
    615c:	db8c                	sw	a1,48(a5)
    615e:	ffff                	.2byte	0xffff
    6160:	db8c                	sw	a1,48(a5)
    6162:	ffff                	.2byte	0xffff
    6164:	ddc6                	sw	a7,248(sp)
    6166:	ffff                	.2byte	0xffff
    6168:	dde2                	sw	s8,248(sp)
    616a:	ffff                	.2byte	0xffff
    616c:	dc8c                	sw	a1,56(s1)
    616e:	ffff                	.2byte	0xffff
    6170:	dc8c                	sw	a1,56(s1)
    6172:	ffff                	.2byte	0xffff
    6174:	dc8c                	sw	a1,56(s1)
    6176:	ffff                	.2byte	0xffff

00006178 <__clz_tab>:
    6178:	0100 0202 0303 0303 0404 0404 0404 0404     ................
    6188:	0505 0505 0505 0505 0505 0505 0505 0505     ................
    6198:	0606 0606 0606 0606 0606 0606 0606 0606     ................
    61a8:	0606 0606 0606 0606 0606 0606 0606 0606     ................
    61b8:	0707 0707 0707 0707 0707 0707 0707 0707     ................
    61c8:	0707 0707 0707 0707 0707 0707 0707 0707     ................
    61d8:	0707 0707 0707 0707 0707 0707 0707 0707     ................
    61e8:	0707 0707 0707 0707 0707 0707 0707 0707     ................
    61f8:	0808 0808 0808 0808 0808 0808 0808 0808     ................
    6208:	0808 0808 0808 0808 0808 0808 0808 0808     ................
    6218:	0808 0808 0808 0808 0808 0808 0808 0808     ................
    6228:	0808 0808 0808 0808 0808 0808 0808 0808     ................
    6238:	0808 0808 0808 0808 0808 0808 0808 0808     ................
    6248:	0808 0808 0808 0808 0808 0808 0808 0808     ................
    6258:	0808 0808 0808 0808 0808 0808 0808 0808     ................
    6268:	0808 0808 0808 0808 0808 0808 0808 0808     ................
    6278:	4552 4e45 2054 616d 6c6c 636f 7320 6375     REENT malloc suc
    6288:	6563 6465 6465 0000 482f 736f 2f74 6f68     ceeded../Host/ho
    6298:	656d 792f 7979 2f79 6f57 6b72 722f 7369     me/yyyy/Work/ris
    62a8:	7663 6e2d 6e6f 2d65 6c65 2d66 6367 2d63     cv-none-elf-gcc-
    62b8:	3231 322e 302e 312d 6c2f 6e69 7875 692d     12.2.0-1/linux-i
    62c8:	3361 2f32 6f73 7275 6563 2f73 656e 6c77     a32/sources/newl
    62d8:	6269 342d 322e 302e 322e 3230 3131 3332     ib-4.2.0.2021123
    62e8:	2f31 656e 6c77 6269 6c2f 6269 2f63 7473     1/newlib/libc/st
    62f8:	6c64 6269 722f 6e61 2e64 0063 202c 7566     dlib/rand.c., fu
    6308:	636e 6974 6e6f 203a 0000 0000 7361 6573     nction: ....asse
    6318:	7472 6f69 206e 2522 2273 6620 6961 656c     rtion "%s" faile
    6328:	3a64 6620 6c69 2065 2522 2273 202c 696c     d: file "%s", li
    6338:	656e 2520 2564 2573 0a73 0000               ne %d%s%s...

00006344 <__sf_fake_stderr>:
	...

00006364 <__sf_fake_stdout>:
	...

00006384 <__sf_fake_stdin>:
	...
    63a4:	2d23 2b30 0020 0000 6c68 004c 6665 4567     #-0+ ...hlL.efgE
    63b4:	4746 0000 3130 3332 3534 3736 3938 4241     FG..0123456789AB
    63c4:	4443 4645 0000 0000 3130 3332 3534 3736     CDEF....01234567
    63d4:	3938 6261 6463 6665 0000 0000 f920 ffff     89abcdef.... ...
    63e4:	f936 ffff f8f6 ffff f8f6 ffff f8f6 ffff     6...............
    63f4:	f8f6 ffff f936 ffff f8f6 ffff f8f6 ffff     ....6...........
    6404:	f8f6 ffff f8f6 ffff fa94 ffff f99a ffff     ................
    6414:	fa2e ffff f8f6 ffff f8f6 ffff fac2 ffff     ................
    6424:	f8f6 ffff f99a ffff f8f6 ffff f8f6 ffff     ................
    6434:	fa36 ffff                                   6...
